Archive member included because of file (symbol)

cores/core_no_main.a(exceptions.c.o)
                              /tmp/cc86yoVA.o (_general_exception_handler_entry)
cores/core_no_main.a(task_manager.c.o)
                              /tmp/ccmZprsd.o (_scheduleTask)
cores/core_no_main.a(vector_table.S.o)
                              /tmp/ccmZprsd.o (__use_isr_install)
cores/core_no_main.a(wiring.c.o)
                              cores/core_no_main.a(task_manager.c.o) (millis)
cores/core_no_main.a(wiring_digital.c.o)
                              /tmp/ccmZprsd.o (pinMode)
cores/core_no_main.a(USB.cpp.o)
                              cores/core_no_main.a(wiring.c.o) (usb_boot_system)
cores/core_no_main.a(USB_CDCACM.cpp.o)
                              cores/core_no_main.a(USB.cpp.o) (vtable for CDCACM)
cores/core_no_main.a(USB_FS.cpp.o)
                              cores/core_no_main.a(USB.cpp.o) (USBFS::_this)
cores/core_no_main.a(WSystem.c.o)
                              cores/core_no_main.a(wiring.c.o) (initIntVector)
cores/core_no_main.a(pins_arduino.c.o)
                              cores/core_no_main.a(wiring.c.o) (_board_init)
cores/core_no_main.a(wiring_analog.c.o)
                              cores/core_no_main.a(wiring_digital.c.o) (turnOffPWM)
cores/core_no_main.a(Print.cpp.o)
                              cores/core_no_main.a(USB_CDCACM.cpp.o) (typeinfo for Print)
cores/core_no_main.a(doprnt.cpp.o)
                              cores/core_no_main.a(Print.cpp.o) (_doprnt(char const*, void*, Print*))
/home/ishyro/.arduino15/packages/chipKIT/tools/pic32-tools/1.43-pic32gcc/bin/bin/../../lib/gcc/pic32mx/4.8.3/../../../../pic32mx/lib/size/libm.a(lib_a-s_fpclassify.o)
                              cores/core_no_main.a(Print.cpp.o) (__fpclassifyd)
/home/ishyro/.arduino15/packages/chipKIT/tools/pic32-tools/1.43-pic32gcc/bin/bin/../../lib/gcc/pic32mx/4.8.3/../../../../pic32mx/lib/size/libm.a(lib_a-s_modf.o)
                              cores/core_no_main.a(doprnt.cpp.o) (modf)

Optional file libmchp_peripheral_32MX250F128D.a not found

Optional file libmchp_peripheral.a not found
/home/ishyro/.arduino15/packages/chipKIT/tools/pic32-tools/1.43-pic32gcc/bin/bin/../../lib/gcc/pic32mx/4.8.3/size/libgcc.a(adddf3.o)
                              cores/core_no_main.a(Print.cpp.o) (__adddf3)
/home/ishyro/.arduino15/packages/chipKIT/tools/pic32-tools/1.43-pic32gcc/bin/bin/../../lib/gcc/pic32mx/4.8.3/size/libgcc.a(divdf3.o)
                              cores/core_no_main.a(Print.cpp.o) (__divdf3)
/home/ishyro/.arduino15/packages/chipKIT/tools/pic32-tools/1.43-pic32gcc/bin/bin/../../lib/gcc/pic32mx/4.8.3/size/libgcc.a(eqdf2.o)
                              cores/core_no_main.a(doprnt.cpp.o) (__nedf2)
/home/ishyro/.arduino15/packages/chipKIT/tools/pic32-tools/1.43-pic32gcc/bin/bin/../../lib/gcc/pic32mx/4.8.3/size/libgcc.a(gedf2.o)
                              cores/core_no_main.a(Print.cpp.o) (__gtdf2)
/home/ishyro/.arduino15/packages/chipKIT/tools/pic32-tools/1.43-pic32gcc/bin/bin/../../lib/gcc/pic32mx/4.8.3/size/libgcc.a(ledf2.o)
                              cores/core_no_main.a(Print.cpp.o) (__ltdf2)
/home/ishyro/.arduino15/packages/chipKIT/tools/pic32-tools/1.43-pic32gcc/bin/bin/../../lib/gcc/pic32mx/4.8.3/size/libgcc.a(muldf3.o)
                              cores/core_no_main.a(Print.cpp.o) (__muldf3)
/home/ishyro/.arduino15/packages/chipKIT/tools/pic32-tools/1.43-pic32gcc/bin/bin/../../lib/gcc/pic32mx/4.8.3/size/libgcc.a(subdf3.o)
                              cores/core_no_main.a(Print.cpp.o) (__subdf3)
/home/ishyro/.arduino15/packages/chipKIT/tools/pic32-tools/1.43-pic32gcc/bin/bin/../../lib/gcc/pic32mx/4.8.3/size/libgcc.a(fixdfsi.o)
                              cores/core_no_main.a(Print.cpp.o) (__fixdfsi)
/home/ishyro/.arduino15/packages/chipKIT/tools/pic32-tools/1.43-pic32gcc/bin/bin/../../lib/gcc/pic32mx/4.8.3/size/libgcc.a(fixunsdfsi.o)
                              cores/core_no_main.a(Print.cpp.o) (__fixunsdfsi)
/home/ishyro/.arduino15/packages/chipKIT/tools/pic32-tools/1.43-pic32gcc/bin/bin/../../lib/gcc/pic32mx/4.8.3/size/libgcc.a(floatsidf.o)
                              cores/core_no_main.a(Print.cpp.o) (__floatsidf)
/home/ishyro/.arduino15/packages/chipKIT/tools/pic32-tools/1.43-pic32gcc/bin/bin/../../lib/gcc/pic32mx/4.8.3/size/libgcc.a(floatunsidf.o)
                              cores/core_no_main.a(Print.cpp.o) (__floatunsidf)
/home/ishyro/.arduino15/packages/chipKIT/tools/pic32-tools/1.43-pic32gcc/bin/bin/../../lib/gcc/pic32mx/4.8.3/../../../../pic32mx/lib/size/libc.a(lib_a-errno.o)
                              cores/core_no_main.a(wiring.c.o) (__errno)
/home/ishyro/.arduino15/packages/chipKIT/tools/pic32-tools/1.43-pic32gcc/bin/bin/../../lib/gcc/pic32mx/4.8.3/../../../../pic32mx/lib/size/libc.a(lib_a-impure.o)
                              /home/ishyro/.arduino15/packages/chipKIT/tools/pic32-tools/1.43-pic32gcc/bin/bin/../../lib/gcc/pic32mx/4.8.3/../../../../pic32mx/lib/size/libc.a(lib_a-errno.o) (_impure_ptr)
/home/ishyro/.arduino15/packages/chipKIT/tools/pic32-tools/1.43-pic32gcc/bin/bin/../../lib/gcc/pic32mx/4.8.3/../../../../pic32mx/lib/size/libc.a(lib_a-malloc.o)
                              cores/core_no_main.a(USB.cpp.o) (malloc)
/home/ishyro/.arduino15/packages/chipKIT/tools/pic32-tools/1.43-pic32gcc/bin/bin/../../lib/gcc/pic32mx/4.8.3/../../../../pic32mx/lib/size/libc.a(lib_a-mallocr.o)
                              /home/ishyro/.arduino15/packages/chipKIT/tools/pic32-tools/1.43-pic32gcc/bin/bin/../../lib/gcc/pic32mx/4.8.3/../../../../pic32mx/lib/size/libc.a(lib_a-malloc.o) (_malloc_r)
/home/ishyro/.arduino15/packages/chipKIT/tools/pic32-tools/1.43-pic32gcc/bin/bin/../../lib/gcc/pic32mx/4.8.3/../../../../pic32mx/lib/size/libc.a(lib_a-memcpy.o)
                              cores/core_no_main.a(USB_FS.cpp.o) (memcpy)
/home/ishyro/.arduino15/packages/chipKIT/tools/pic32-tools/1.43-pic32gcc/bin/bin/../../lib/gcc/pic32mx/4.8.3/../../../../pic32mx/lib/size/libc.a(lib_a-mlock.o)
                              /home/ishyro/.arduino15/packages/chipKIT/tools/pic32-tools/1.43-pic32gcc/bin/bin/../../lib/gcc/pic32mx/4.8.3/../../../../pic32mx/lib/size/libc.a(lib_a-mallocr.o) (__malloc_lock)
/home/ishyro/.arduino15/packages/chipKIT/tools/pic32-tools/1.43-pic32gcc/bin/bin/../../lib/gcc/pic32mx/4.8.3/../../../../pic32mx/lib/size/libc.a(lib_a-sbrkr.o)
                              /home/ishyro/.arduino15/packages/chipKIT/tools/pic32-tools/1.43-pic32gcc/bin/bin/../../lib/gcc/pic32mx/4.8.3/../../../../pic32mx/lib/size/libc.a(lib_a-mallocr.o) (_sbrk_r)
/home/ishyro/.arduino15/packages/chipKIT/tools/pic32-tools/1.43-pic32gcc/bin/bin/../../lib/gcc/pic32mx/4.8.3/../../../../pic32mx/lib/size/libc.a(lib_a-strlen.o)
                              cores/core_no_main.a(USB.cpp.o) (strlen)
/home/ishyro/.arduino15/packages/chipKIT/tools/pic32-tools/1.43-pic32gcc/bin/bin/../../lib/gcc/pic32mx/4.8.3/../../../../pic32mx/lib/size/libc.a(lib_a-freer.o)
                              /home/ishyro/.arduino15/packages/chipKIT/tools/pic32-tools/1.43-pic32gcc/bin/bin/../../lib/gcc/pic32mx/4.8.3/../../../../pic32mx/lib/size/libc.a(lib_a-malloc.o) (_free_r)
/home/ishyro/.arduino15/packages/chipKIT/tools/pic32-tools/1.43-pic32gcc/bin/bin/../../lib/gcc/pic32mx/4.8.3/../../../../pic32mx/lib/size/libc.a(lib_a-reent.o)
                              /home/ishyro/.arduino15/packages/chipKIT/tools/pic32-tools/1.43-pic32gcc/bin/bin/../../lib/gcc/pic32mx/4.8.3/../../../../pic32mx/lib/size/libc.a(lib_a-sbrkr.o) (errno)
/home/ishyro/.arduino15/packages/chipKIT/tools/pic32-tools/1.43-pic32gcc/bin/bin/../../lib/gcc/pic32mx/4.8.3/../../../../pic32mx/lib/size/libsupc++.a(class_type_info.o)
                              cores/core_no_main.a(USB_CDCACM.cpp.o) (vtable for __cxxabiv1::__class_type_info)
/home/ishyro/.arduino15/packages/chipKIT/tools/pic32-tools/1.43-pic32gcc/bin/bin/../../lib/gcc/pic32mx/4.8.3/../../../../pic32mx/lib/size/libsupc++.a(del_op.o)
                              /home/ishyro/.arduino15/packages/chipKIT/tools/pic32-tools/1.43-pic32gcc/bin/bin/../../lib/gcc/pic32mx/4.8.3/../../../../pic32mx/lib/size/libsupc++.a(class_type_info.o) (operator delete(void*))
/home/ishyro/.arduino15/packages/chipKIT/tools/pic32-tools/1.43-pic32gcc/bin/bin/../../lib/gcc/pic32mx/4.8.3/../../../../pic32mx/lib/size/libsupc++.a(si_class_type_info.o)
                              cores/core_no_main.a(USB_CDCACM.cpp.o) (vtable for __cxxabiv1::__si_class_type_info)
/home/ishyro/.arduino15/packages/chipKIT/tools/pic32-tools/1.43-pic32gcc/bin/bin/../../lib/gcc/pic32mx/4.8.3/../../../../pic32mx/lib/size/libsupc++.a(tinfo.o)
                              /home/ishyro/.arduino15/packages/chipKIT/tools/pic32-tools/1.43-pic32gcc/bin/bin/../../lib/gcc/pic32mx/4.8.3/../../../../pic32mx/lib/size/libsupc++.a(class_type_info.o) (std::type_info::~type_info())
/home/ishyro/.arduino15/packages/chipKIT/tools/pic32-tools/1.43-pic32gcc/bin/bin/../../lib/gcc/pic32mx/4.8.3/../../../../pic32mx/lib/size/libsupc++.a(vmi_class_type_info.o)
                              cores/core_no_main.a(USB_CDCACM.cpp.o) (vtable for __cxxabiv1::__vmi_class_type_info)
/home/ishyro/.arduino15/packages/chipKIT/tools/pic32-tools/1.43-pic32gcc/bin/bin/../../lib/gcc/pic32mx/4.8.3/../../../../pic32mx/lib/size/libsupc++.a(pure.o)
                              cores/core_no_main.a(Print.cpp.o) (__cxa_pure_virtual)
/home/ishyro/.arduino15/packages/chipKIT/tools/pic32-tools/1.43-pic32gcc/bin/bin/../../lib/gcc/pic32mx/4.8.3/../../../../pic32mx/lib/size/libsupc++.a(eh_terminate.o)
                              /home/ishyro/.arduino15/packages/chipKIT/tools/pic32-tools/1.43-pic32gcc/bin/bin/../../lib/gcc/pic32mx/4.8.3/../../../../pic32mx/lib/size/libsupc++.a(pure.o) (std::terminate())
/home/ishyro/.arduino15/packages/chipKIT/tools/pic32-tools/1.43-pic32gcc/bin/bin/../../lib/gcc/pic32mx/4.8.3/../../../../pic32mx/lib/size/libsupc++.a(eh_unex_handler.o)
                              /home/ishyro/.arduino15/packages/chipKIT/tools/pic32-tools/1.43-pic32gcc/bin/bin/../../lib/gcc/pic32mx/4.8.3/../../../../pic32mx/lib/size/libsupc++.a(eh_terminate.o) (__cxxabiv1::__unexpected_handler)
/home/ishyro/.arduino15/packages/chipKIT/tools/pic32-tools/1.43-pic32gcc/bin/bin/../../lib/gcc/pic32mx/4.8.3/../../../../pic32mx/lib/size/libsupc++.a(eh_term_handler.o)
                              /home/ishyro/.arduino15/packages/chipKIT/tools/pic32-tools/1.43-pic32gcc/bin/bin/../../lib/gcc/pic32mx/4.8.3/../../../../pic32mx/lib/size/libsupc++.a(eh_terminate.o) (__cxxabiv1::__terminate_handler)
/home/ishyro/.arduino15/packages/chipKIT/tools/pic32-tools/1.43-pic32gcc/bin/bin/../../lib/gcc/pic32mx/4.8.3/../../../../pic32mx/lib/size/libpic32.a(sbrk.o)
                              /home/ishyro/.arduino15/packages/chipKIT/tools/pic32-tools/1.43-pic32gcc/bin/bin/../../lib/gcc/pic32mx/4.8.3/../../../../pic32mx/lib/size/libc.a(lib_a-sbrkr.o) (sbrk)
/home/ishyro/.arduino15/packages/chipKIT/tools/pic32-tools/1.43-pic32gcc/bin/bin/../../lib/gcc/pic32mx/4.8.3/../../../../pic32mx/lib/size/libpic32.a(default-bootstrap-exception-handler.o)
                              /tmp/cc86yoVA.o (_bootstrap_exception_handler)
/home/ishyro/.arduino15/packages/chipKIT/tools/pic32-tools/1.43-pic32gcc/bin/bin/../../lib/gcc/pic32mx/4.8.3/../../../../pic32mx/lib/size/libpic32.a(default-on-reset.o)
                              /tmp/cc86yoVA.o (_on_reset)
/home/ishyro/.arduino15/packages/chipKIT/tools/pic32-tools/1.43-pic32gcc/bin/bin/../../lib/gcc/pic32mx/4.8.3/../../../../pic32mx/lib/size/libpic32.a(default-on-bootstrap.o)
                              /tmp/cc86yoVA.o (_on_bootstrap)
/home/ishyro/.arduino15/packages/chipKIT/tools/pic32-tools/1.43-pic32gcc/bin/bin/../../lib/gcc/pic32mx/4.8.3/../../../../pic32mx/lib/size/libpic32.a(default-nmi-handler.o)
                              /tmp/cc86yoVA.o (_nmi_handler)
/home/ishyro/.arduino15/packages/chipKIT/tools/pic32-tools/1.43-pic32gcc/bin/bin/../../lib/gcc/pic32mx/4.8.3/../../../../pic32mx/lib/size/libc.a(lib_a-abort.o)
                              /home/ishyro/.arduino15/packages/chipKIT/tools/pic32-tools/1.43-pic32gcc/bin/bin/../../lib/gcc/pic32mx/4.8.3/../../../../pic32mx/lib/size/libsupc++.a(eh_terminate.o) (abort)
/home/ishyro/.arduino15/packages/chipKIT/tools/pic32-tools/1.43-pic32gcc/bin/bin/../../lib/gcc/pic32mx/4.8.3/../../../../pic32mx/lib/size/libc.a(lib_a-memset.o)
                              /home/ishyro/.arduino15/packages/chipKIT/tools/pic32-tools/1.43-pic32gcc/bin/bin/../../lib/gcc/pic32mx/4.8.3/../../../../pic32mx/lib/size/libpic32.a(sbrk.o) (memset)
/home/ishyro/.arduino15/packages/chipKIT/tools/pic32-tools/1.43-pic32gcc/bin/bin/../../lib/gcc/pic32mx/4.8.3/../../../../pic32mx/lib/size/libc.a(lib_a-signal.o)
                              /home/ishyro/.arduino15/packages/chipKIT/tools/pic32-tools/1.43-pic32gcc/bin/bin/../../lib/gcc/pic32mx/4.8.3/../../../../pic32mx/lib/size/libc.a(lib_a-abort.o) (raise)
/home/ishyro/.arduino15/packages/chipKIT/tools/pic32-tools/1.43-pic32gcc/bin/bin/../../lib/gcc/pic32mx/4.8.3/../../../../pic32mx/lib/size/libc.a(lib_a-signalr.o)
                              /home/ishyro/.arduino15/packages/chipKIT/tools/pic32-tools/1.43-pic32gcc/bin/bin/../../lib/gcc/pic32mx/4.8.3/../../../../pic32mx/lib/size/libc.a(lib_a-signal.o) (_kill_r)
/home/ishyro/.arduino15/packages/chipKIT/tools/pic32-tools/1.43-pic32gcc/bin/bin/../../lib/gcc/pic32mx/4.8.3/../../../../pic32mx/lib/size/libc.a(lib_a-strcmp.o)
                              /home/ishyro/.arduino15/packages/chipKIT/tools/pic32-tools/1.43-pic32gcc/bin/bin/../../lib/gcc/pic32mx/4.8.3/../../../../pic32mx/lib/size/libsupc++.a(class_type_info.o) (strcmp)
/home/ishyro/.arduino15/packages/chipKIT/tools/pic32-tools/1.43-pic32gcc/bin/bin/../../lib/gcc/pic32mx/4.8.3/../../../../pic32mx/lib/size/libpic32.a(_exit.o)
                              /home/ishyro/.arduino15/packages/chipKIT/tools/pic32-tools/1.43-pic32gcc/bin/bin/../../lib/gcc/pic32mx/4.8.3/../../../../pic32mx/lib/size/libc.a(lib_a-abort.o) (_exit)
/home/ishyro/.arduino15/packages/chipKIT/tools/pic32-tools/1.43-pic32gcc/bin/bin/../../lib/gcc/pic32mx/4.8.3/../../../../pic32mx/lib/size/libpic32.a(kill.o)
                              /home/ishyro/.arduino15/packages/chipKIT/tools/pic32-tools/1.43-pic32gcc/bin/bin/../../lib/gcc/pic32mx/4.8.3/../../../../pic32mx/lib/size/libc.a(lib_a-signalr.o) (kill)
/home/ishyro/.arduino15/packages/chipKIT/tools/pic32-tools/1.43-pic32gcc/bin/bin/../../lib/gcc/pic32mx/4.8.3/../../../../pic32mx/lib/size/libpic32.a(getpid.o)
                              /home/ishyro/.arduino15/packages/chipKIT/tools/pic32-tools/1.43-pic32gcc/bin/bin/../../lib/gcc/pic32mx/4.8.3/../../../../pic32mx/lib/size/libc.a(lib_a-signalr.o) (getpid)

Allocating common symbols
Common symbol       size              file

_analogRead_channelNumber
                    0x1               cores/core_no_main.a(wiring_analog.c.o)
__PIC32_pbClk       0x4               cores/core_no_main.a(wiring.c.o)

Microchip PIC32 Memory-Usage Report

kseg0 Program-Memory Usage
section                    address  length [bytes]      (dec)  Description
-------                 ----------  -------------------------  -----------
.reset                  0x9d001000            0x8           8  Reset handler 
.startup                0x9d001008          0x200         512  C startup code 
.text                   0x9d001208          0x1bc         444  App's exec code 
.init                   0x9d0013c4           0x30          48   
.fini                   0x9d0013f4           0x28          40   
.ctors                  0x9d00141c            0xc          12   
.dtors                  0x9d001428            0x8           8   
.header_info            0x9d001430           0x4c          76   
.rodata                 0x9d00147c          0x1f4         500  Read-only const 
.dinit                  0x9d001670          0xb20        2848   
.text._malloc_r         0x9d002190          0x68c        1676   
.text._ZN10USBManager13 0x9d00281c          0x614        1556   
.text._ZN5USBFS11addEnd 0x9d002e30          0x5f4        1524   
.text._ZNK10__cxxabiv12 0x9d003424          0x490        1168   
.text._ZN5USBFS15handle 0x9d0038b4          0x3b0         944   
.text._ZN5USBFS21popula 0x9d003c64          0x370         880   
.text._ZN5USBFS10sendBu 0x9d003fd4          0x28c         652   
.text._free_r           0x9d004260          0x278         632   
.text                   0x9d0044d8          0x24c         588  App's exec code 
.text._ZNK10__cxxabiv12 0x9d004724          0x240         576   
.text.CoreTimerHandler  0x9d004964          0x23c         572   
.text._ZN6CDCACM31popul 0x9d004ba0          0x224         548   
.text._scheduleTask     0x9d004dc4          0x1b8         440   
.text._ZN6CDCACM11onOut 0x9d004f7c          0x194         404   
.text.pinMode           0x9d005110          0x18c         396   
.text._ZN6CDCACM5writeE 0x9d00529c          0x180         384   
.text._ZN5USBFS9enableU 0x9d00541c          0x160         352   
.text._sbrk_init        0x9d00557c          0x158         344   
.text._ZN6CDCACM13onSet 0x9d0056d4          0x138         312   
.text._ZNK10__cxxabiv12 0x9d00580c          0x128         296   
.text._malloc_trim_r    0x9d005934          0x114         276   
.text._ZN6CDCACM10onInP 0x9d005a48          0x110         272   
.text._ZN5USBFS13enqueu 0x9d005b58          0x110         272   
.text._ZNK10__cxxabiv12 0x9d005c68          0x100         256   
.text._ZN10USBManagerC2 0x9d005d68           0xf0         240   
.text._ZN6CDCACM18confi 0x9d005e58           0xf0         240   
.text.init              0x9d005f48           0xe0         224   
.text._ZN6CDCACM4readEv 0x9d006028           0xc8         200   
.text._sbrk             0x9d0060f0           0xbc         188   
.text._ZN10USBManager10 0x9d0061ac           0xb8         184   
.text._GLOBAL__sub_I_us 0x9d006264           0x98         152   
.text.executeSoftReset  0x9d0062fc           0x94         148   
.text._ZNK10__cxxabiv11 0x9d006390           0x94         148   
.text._ZN10USBManager11 0x9d006424           0x8c         140   
.text._ZN10USBManager9a 0x9d0064b0           0x88         136   
.text._ZNK10__cxxabiv11 0x9d006538           0x7c         124   
.text._ZNK10__cxxabiv12 0x9d0065b4           0x7c         124   
.text._ZN6CDCACM5writeE 0x9d006630           0x78         120   
.text.initIntVector     0x9d0066a8           0x74         116   
.text._ZNK10__cxxabiv12 0x9d00671c           0x74         116   
.text._ZNK10__cxxabiv11 0x9d006790           0x68         104   
.text.strcmp            0x9d0067f8           0x64         100   
.text._ZN10USBManager5b 0x9d00685c           0x60          96   
.text.setIntPriority    0x9d0068bc           0x5c          92   
.text.turnOffPWM        0x9d006918           0x5c          92   
.text._ZNK10__cxxabiv11 0x9d006974           0x5c          92   
.text.delay             0x9d0069d0           0x58          88   
.text._ZN6CDCACM10initD 0x9d006a28           0x54          84   
.text._sbrk_r           0x9d006a7c           0x50          80   
.text._ZNKSt9type_info1 0x9d006acc           0x50          80   
.text.sbrk              0x9d006b1c           0x50          80   
.text._ZN5USBFS6resumeE 0x9d006b6c           0x48          72   
.text                   0x9d006bb4           0x48          72  App's exec code 
.text._ZNKSt9type_infoe 0x9d006bfc           0x90         144   
.text._ZNKSt9type_infoe 0x9d006c8c           0x48          72   
.text._bootstrap_except 0x9d006cd4           0x48          72   
.text                   0x9d006d1c           0x44          68  App's exec code 
.text.pic32softwarerese 0x9d006d60           0x44          68   
.rodata.digital_pin_to_ 0x9d006da4           0x44          68   
.rodata.digital_pin_to_ 0x9d006de8           0x44          68   
.text._ZN5USBFS16canEnq 0x9d006e2c           0x40          64   
.text.millisecondCoreTi 0x9d006e6c           0x3c          60   
.text._general_exceptio 0x9d006ea8           0x38          56   
.text.setIntEnable      0x9d006ee0           0x38          56   
.text._softwareReset    0x9d006f18           0x38          56   
.text.main_entry        0x9d006f50           0x34          52   
.text.clearIntFlag      0x9d006f84           0x34          52   
.text.setIntVector      0x9d006fb8           0x2c          44   
.text._configSystem     0x9d006fe4           0x2c          44   
.text.memcpy            0x9d007010           0x2c          44   
.text._ZN10__cxxabiv117 0x9d00703c           0x2c          44   
.text._ZN10__cxxabiv120 0x9d007068           0x2c          44   
.text._ZN10__cxxabiv121 0x9d007094           0x2c          44   
.text._stub_sbd_memlayo 0x9d0070c0           0x2c          44   
.text._ZN6CDCACM4peekEv 0x9d0070ec           0x28          40   
.text._enableMultiVecto 0x9d007114           0x28          40   
.text._ZdlPv            0x9d00713c           0x28          40   
.text._initTaskManager  0x9d007164           0x24          36   
.text.usb_boot_system   0x9d007188           0x24          36   
.rodata.digital_pin_to_ 0x9d0071ac           0x24          36   
.rodata.digital_pin_to_ 0x9d0071d0           0x24          36   
.rodata.port_to_tris_PG 0x9d0071f4           0x24          36   
.text.malloc            0x9d007218           0x24          36   
.text.free              0x9d00723c           0x24          36   
.text._ZN10__cxxabiv117 0x9d007260           0x24          36   
.text._ZN10__cxxabiv120 0x9d007284           0x24          36   
.text._ZNSt9type_infoD0 0x9d0072a8           0x24          36   
.text._ZN10__cxxabiv121 0x9d0072cc           0x24          36   
.text.memset            0x9d0072f0           0x24          36   
.text._ZN5USBFS10disabl 0x9d007314           0x1c          28   
.text._ZN5USBFS6isIdleE 0x9d007330           0x1c          28   
.text.restoreInterrupts 0x9d00734c           0x1c          28   
.text.getPeripheralCloc 0x9d007368           0x1c          28   
.text._ZNK10__cxxabiv11 0x9d007384           0x1c          28   
.rodata                 0x9d0073a0           0x18          24  Read-only const 
.text                   0x9d0073b8           0x30          48  App's exec code 
.text._ZN6CDCACM9availa 0x9d0073e8           0x14          20   
.text._ZN6CDCACM17avail 0x9d0073fc           0x14          20   
.text._board_init       0x9d007410           0x14          20   
.text._ZN10USBManager17 0x9d007424           0x10          16   
.text._ZN10USBManager16 0x9d007434           0x10          16   
.text._ZN5USBFS10setAdd 0x9d007444           0x10          16   
.text._initCoreTimer    0x9d007454           0x10          16   
.text._ZNSt9type_infoD2 0x9d007464           0x10          16   
.text.millis            0x9d007474            0xc          12   
.text.disableInterrupts 0x9d007480            0xc          12   
.text.__errno           0x9d00748c            0xc          12   
.text._general_exceptio 0x9d007498            0x8           8   
.text._ZN6CDCACM19getDe 0x9d0074a0            0x8           8   
.text._ZN6CDCACM17getIn 0x9d0074a8            0x8           8   
.text._ZN6CDCACM13getDe 0x9d0074b0            0x8           8   
.text._ZThn4_N6CDCACM9a 0x9d0074b8            0x8           8   
.text._ZThn4_N6CDCACM17 0x9d0074c0            0x8           8   
.text._ZThn4_N6CDCACM4r 0x9d0074c8            0x8           8   
.text._ZN6CDCACM5flushE 0x9d0074d0            0x8           8   
.text._ZThn4_N6CDCACM5f 0x9d0074d8            0x8           8   
.text._ZThn4_N6CDCACM4p 0x9d0074e0            0x8           8   
.text._ZN6CDCACM12onEnu 0x9d0074e8            0x8           8   
.text._ZThn4_N6CDCACM5w 0x9d0074f0            0x8           8   
.text._ZThn4_N6CDCACM5w 0x9d0074f8            0x8           8   
.text.__malloc_lock     0x9d007500            0x8           8   
.text.__malloc_unlock   0x9d007508            0x8           8   
.text._ZNKSt9type_info1 0x9d007510            0x8           8   
.text._ZNKSt9type_info1 0x9d007518            0x8           8   
.text._ZNKSt9type_info1 0x9d007520            0x8           8   
.text._on_reset         0x9d007528            0x8           8   
.text._on_bootstrap     0x9d007530            0x8           8   
.rodata                 0x9d007538            0x4           4  Read-only const 
      Total kseg0_program_mem used  :      0x653c       25916  21.8% of 0x1d000

kseg0 Boot-Memory Usage
section                    address  length [bytes]      (dec)  Description
-------                 ----------  -------------------------  -----------
         Total kseg0_boot_mem used  :           0           0  

Exception-Memory Usage 
section                    address  length [bytes]      (dec)  Description
-------                 ----------  -------------------------  -----------
.image_ptr_table        0x9d0000f8            0x8           8   
.app_excpt              0x9d000180           0x10          16  General-Exception 
.vector_0               0x9d000200           0x14          20  Interrupt Vector 0 
.vector_1               0x9d000220           0x14          20  Interrupt Vector 1 
.vector_2               0x9d000240           0x14          20  Interrupt Vector 2 
.vector_3               0x9d000260           0x14          20  Interrupt Vector 3 
.vector_4               0x9d000280           0x14          20  Interrupt Vector 4 
.vector_5               0x9d0002a0           0x14          20  Interrupt Vector 5 
.vector_6               0x9d0002c0           0x14          20  Interrupt Vector 6 
.vector_7               0x9d0002e0           0x14          20  Interrupt Vector 7 
.vector_8               0x9d000300           0x14          20  Interrupt Vector 8 
.vector_9               0x9d000320           0x14          20  Interrupt Vector 9 
.vector_10              0x9d000340           0x14          20  Interrupt Vector 10 
.vector_11              0x9d000360           0x14          20  Interrupt Vector 11 
.vector_12              0x9d000380           0x14          20  Interrupt Vector 12 
.vector_13              0x9d0003a0           0x14          20  Interrupt Vector 13 
.vector_14              0x9d0003c0           0x14          20  Interrupt Vector 14 
.vector_15              0x9d0003e0           0x14          20  Interrupt Vector 15 
.vector_16              0x9d000400           0x14          20  Interrupt Vector 16 
.vector_17              0x9d000420           0x14          20  Interrupt Vector 17 
.vector_18              0x9d000440           0x14          20  Interrupt Vector 18 
.vector_19              0x9d000460           0x14          20  Interrupt Vector 19 
.vector_20              0x9d000480           0x14          20  Interrupt Vector 20 
.vector_21              0x9d0004a0           0x14          20  Interrupt Vector 21 
.vector_22              0x9d0004c0           0x14          20  Interrupt Vector 22 
.vector_23              0x9d0004e0           0x14          20  Interrupt Vector 23 
.vector_24              0x9d000500           0x14          20  Interrupt Vector 24 
.vector_25              0x9d000520           0x14          20  Interrupt Vector 25 
.vector_26              0x9d000540           0x14          20  Interrupt Vector 26 
.vector_27              0x9d000560           0x14          20  Interrupt Vector 27 
.vector_28              0x9d000580           0x14          20  Interrupt Vector 28 
.vector_29              0x9d0005a0           0x14          20  Interrupt Vector 29 
.vector_30              0x9d0005c0           0x14          20  Interrupt Vector 30 
.vector_31              0x9d0005e0           0x14          20  Interrupt Vector 31 
.vector_32              0x9d000600           0x14          20  Interrupt Vector 32 
.vector_33              0x9d000620           0x14          20  Interrupt Vector 33 
.vector_34              0x9d000640           0x14          20  Interrupt Vector 34 
.vector_35              0x9d000660           0x14          20  Interrupt Vector 35 
.vector_36              0x9d000680           0x14          20  Interrupt Vector 36 
.vector_37              0x9d0006a0           0x14          20  Interrupt Vector 37 
.vector_38              0x9d0006c0           0x14          20  Interrupt Vector 38 
.vector_39              0x9d0006e0           0x14          20  Interrupt Vector 39 
.vector_40              0x9d000700           0x14          20  Interrupt Vector 40 
.vector_41              0x9d000720           0x14          20  Interrupt Vector 41 
.vector_42              0x9d000740           0x14          20  Interrupt Vector 42 
.vector_43              0x9d000760           0x14          20  Interrupt Vector 43 
.vector_44              0x9d000780           0x14          20  Interrupt Vector 44 
.vector_45              0x9d0007a0           0x14          20  Interrupt Vector 45 
.vector_46              0x9d0007c0           0x14          20  Interrupt Vector 46 
.vector_47              0x9d0007e0           0x14          20  Interrupt Vector 47 
.vector_48              0x9d000800           0x14          20  Interrupt Vector 48 
.vector_49              0x9d000820           0x14          20  Interrupt Vector 49 
.vector_50              0x9d000840           0x14          20  Interrupt Vector 50 
.vector_51              0x9d000860           0x14          20  Interrupt Vector 51 
.vector_52              0x9d000880           0x14          20  Interrupt Vector 52 
.vector_53              0x9d0008a0           0x14          20  Interrupt Vector 53 
.vector_54              0x9d0008c0           0x14          20  Interrupt Vector 54 
.vector_55              0x9d0008e0           0x14          20  Interrupt Vector 55 
.vector_56              0x9d000900           0x14          20  Interrupt Vector 56 
.vector_57              0x9d000920           0x14          20  Interrupt Vector 57 
.vector_58              0x9d000940           0x14          20  Interrupt Vector 58 
.vector_59              0x9d000960           0x14          20  Interrupt Vector 59 
.vector_60              0x9d000980           0x14          20  Interrupt Vector 60 
.vector_61              0x9d0009a0           0x14          20  Interrupt Vector 61 
.vector_62              0x9d0009c0           0x14          20  Interrupt Vector 62 
.vector_63              0x9d0009e0           0x14          20  Interrupt Vector 63 
          Total exception_mem used  :       0x518        1304  31.8% of 0x1000

kseg1 Boot-Memory Usage
section                    address  length [bytes]      (dec)  Description
-------                 ----------  -------------------------  -----------
         Total kseg1_boot_mem used  :           0           0  
        --------------------------------------------------------------------------
         Total Program Memory used  :      0x6a54       27220  22.2% of 0x1e000
        --------------------------------------------------------------------------


kseg1 Data-Memory Usage
section                    address  length [bytes]      (dec)  Description
-------                 ----------  -------------------------  -----------
.dbg_data               0xa0000000          0x200         512  Memory reserved for debugger exec 
.ram_exchange_data      0xa0000200            0x8           8   
.sdata                  0xa0000208           0xd8         216  Small init data 
.sbss                   0xa00002e0          0x478        1144  Small uninit data 
.bss.__malloc_current_m 0xa0000758           0x28          40   
.bss                    0xa0000780           0x20          32  Uninitialized data 
.bss.mem.1296.mem       0xa00007a0           0x18          24   
.libc.data._impure_ptr  0xa00007b8            0x4           4   
.data.__malloc_trim_thr 0xa00007bc            0x4           4   
.bss.__malloc_top_pad._ 0xa00007c0            0x4           4   
.data.__malloc_sbrk_bas 0xa00007c4            0x4           4   
.bss.__malloc_max_sbrke 0xa00007c8            0x4           4   
.bss.__malloc_max_total 0xa00007cc            0x4           4   
.bss.errno.errno        0xa00007d0            0x4           4   
.bss._minbrk._minbrk    0xa00007d4            0x4           4   
.bss._maxbrk._maxbrk    0xa00007d8            0x4           4   
.bss.curbrk.curbrk      0xa00007dc            0x4           4   
.bss.usbDriver.usbDrive 0xa0000800          0x600        1536   
.data.impure_data.impur 0xa0000e00          0x418        1048   
.data.__malloc_av_.__ma 0xa0001218          0x408        1032   
         Total kseg1_data_mem used  :      0x1600        5632  17.2% of 0x8000
        --------------------------------------------------------------------------
            Total Data Memory used  :      0x1600        5632  17.2% of 0x8000
        --------------------------------------------------------------------------


Dynamic Data-Memory Reservation
section                    address  length [bytes]      (dec)  Description
-------                 ----------  -------------------------  -----------
heap                    0xa0001628          0x800        2048  Reserved for heap 
stack                   0xa0001e40         0x61b8       25016  Reserved for stack 

        --------------------------------------------------------------------------

Discarded input sections

 .data          0x00000000        0x0 /tmp/ccmZprsd.o
 .bss           0x00000000        0x0 /tmp/ccmZprsd.o
 .reginfo       0x00000000       0x18 /tmp/ccmZprsd.o
 .rodata        0x00000000        0x4 /tmp/ccmZprsd.o
 .comment       0x00000000       0x40 /tmp/ccmZprsd.o
 .text          0x00000000        0x0 /tmp/ccV8lcgl.o
 .data          0x00000000        0x0 /tmp/ccV8lcgl.o
 .bss           0x00000000        0x0 /tmp/ccV8lcgl.o
 .reginfo       0x00000000       0x18 /tmp/ccV8lcgl.o
 .text          0x00000000        0x0 /tmp/ccDSgI4s.o
 .data          0x00000000        0x0 /tmp/ccDSgI4s.o
 .bss           0x00000000        0x0 /tmp/ccDSgI4s.o
 .reginfo       0x00000000       0x18 /tmp/ccDSgI4s.o
 .text          0x00000000        0x0 /tmp/cc86yoVA.o
 .data          0x00000000        0x0 /tmp/cc86yoVA.o
 .bss           0x00000000        0x0 /tmp/cc86yoVA.o
 .reginfo       0x00000000       0x18 /tmp/cc86yoVA.o
 .text          0x00000000        0x0 /tmp/ccIZmcRI.o
 .data          0x00000000        0x0 /tmp/ccIZmcRI.o
 .bss           0x00000000        0x0 /tmp/ccIZmcRI.o
 .reginfo       0x00000000       0x18 /tmp/ccIZmcRI.o
 .text          0x00000000        0x0 Board_Data.o
 .data          0x00000000        0x0 Board_Data.o
 .bss           0x00000000        0x0 Board_Data.o
 .reginfo       0x00000000       0x18 Board_Data.o
 .text          0x00000000        0x0 cores/core_no_main.a(exceptions.c.o)
 .data          0x00000000        0x0 cores/core_no_main.a(exceptions.c.o)
 .bss           0x00000000        0x0 cores/core_no_main.a(exceptions.c.o)
 .reginfo       0x00000000       0x18 cores/core_no_main.a(exceptions.c.o)
 .text          0x00000000        0x0 cores/core_no_main.a(task_manager.c.o)
 .data          0x00000000        0x0 cores/core_no_main.a(task_manager.c.o)
 .bss           0x00000000        0x0 cores/core_no_main.a(task_manager.c.o)
 .reginfo       0x00000000       0x18 cores/core_no_main.a(task_manager.c.o)
 .text.getTaskId
                0x00000000       0x30 cores/core_no_main.a(task_manager.c.o)
 .text.getTaskNextExec
                0x00000000       0x44 cores/core_no_main.a(task_manager.c.o)
 .text.getTaskState
                0x00000000       0x40 cores/core_no_main.a(task_manager.c.o)
 .text.getTaskPeriod
                0x00000000       0x40 cores/core_no_main.a(task_manager.c.o)
 .text.setTaskVar
                0x00000000       0x38 cores/core_no_main.a(task_manager.c.o)
 .text.getTaskVar
                0x00000000       0x44 cores/core_no_main.a(task_manager.c.o)
 .text._updateTaskEvent
                0x00000000       0x68 cores/core_no_main.a(task_manager.c.o)
 .text.createTask
                0x00000000      0x130 cores/core_no_main.a(task_manager.c.o)
 .text.destroyTask
                0x00000000       0x78 cores/core_no_main.a(task_manager.c.o)
 .text.startTaskAt
                0x00000000       0x60 cores/core_no_main.a(task_manager.c.o)
 .text.setTaskState
                0x00000000       0x98 cores/core_no_main.a(task_manager.c.o)
 .text.setTaskPeriod
                0x00000000       0x88 cores/core_no_main.a(task_manager.c.o)
 .text          0x00000000        0x0 cores/core_no_main.a(vector_table.S.o)
 .data          0x00000000        0x0 cores/core_no_main.a(vector_table.S.o)
 .bss           0x00000000        0x0 cores/core_no_main.a(vector_table.S.o)
 .reginfo       0x00000000       0x18 cores/core_no_main.a(vector_table.S.o)
 .text          0x00000000        0x0 cores/core_no_main.a(wiring.c.o)
 .data          0x00000000        0x0 cores/core_no_main.a(wiring.c.o)
 .bss           0x00000000        0x0 cores/core_no_main.a(wiring.c.o)
 .reginfo       0x00000000       0x18 cores/core_no_main.a(wiring.c.o)
 .text.micros   0x00000000       0x80 cores/core_no_main.a(wiring.c.o)
 .text.delayMicroseconds
                0x00000000       0x44 cores/core_no_main.a(wiring.c.o)
 .text.lockPps  0x00000000        0xc cores/core_no_main.a(wiring.c.o)
 .text.unlockPps
                0x00000000        0x8 cores/core_no_main.a(wiring.c.o)
 .text.mapPps   0x00000000      0x140 cores/core_no_main.a(wiring.c.o)
 .text.attachCoreTimerService
                0x00000000       0xb4 cores/core_no_main.a(wiring.c.o)
 .text.detachCoreTimerService
                0x00000000       0x4c cores/core_no_main.a(wiring.c.o)
 .text.callCoreTimerServiceNow
                0x00000000       0x78 cores/core_no_main.a(wiring.c.o)
 .text          0x00000000        0x0 cores/core_no_main.a(wiring_digital.c.o)
 .data          0x00000000        0x0 cores/core_no_main.a(wiring_digital.c.o)
 .bss           0x00000000        0x0 cores/core_no_main.a(wiring_digital.c.o)
 .reginfo       0x00000000       0x18 cores/core_no_main.a(wiring_digital.c.o)
 .text.getPinMode
                0x00000000       0x80 cores/core_no_main.a(wiring_digital.c.o)
 .text.digitalWrite
                0x00000000       0xe8 cores/core_no_main.a(wiring_digital.c.o)
 .text.digitalRead
                0x00000000       0x68 cores/core_no_main.a(wiring_digital.c.o)
 .text          0x00000000        0x0 cores/core_no_main.a(USB.cpp.o)
 .data          0x00000000        0x0 cores/core_no_main.a(USB.cpp.o)
 .bss           0x00000000        0x0 cores/core_no_main.a(USB.cpp.o)
 .reginfo       0x00000000       0x18 cores/core_no_main.a(USB.cpp.o)
 .gnu.linkonce.t._ZN5Print17availableForWriteEv
                0x00000000        0x8 cores/core_no_main.a(USB.cpp.o)
 .text._ZN10USBManager14allocateStringEv
                0x00000000       0x10 cores/core_no_main.a(USB.cpp.o)
 .text._ZN10USBManager3endEv
                0x00000000       0x14 cores/core_no_main.a(USB.cpp.o)
 .text._ZN10USBManager12isEnumeratedEv
                0x00000000        0x8 cores/core_no_main.a(USB.cpp.o)
 .text          0x00000000        0x0 cores/core_no_main.a(USB_CDCACM.cpp.o)
 .data          0x00000000        0x0 cores/core_no_main.a(USB_CDCACM.cpp.o)
 .bss           0x00000000        0x0 cores/core_no_main.a(USB_CDCACM.cpp.o)
 .reginfo       0x00000000       0x18 cores/core_no_main.a(USB_CDCACM.cpp.o)
 .text._ZN6CDCACMcviEv
                0x00000000        0xc cores/core_no_main.a(USB_CDCACM.cpp.o)
 .text          0x00000000        0x0 cores/core_no_main.a(USB_FS.cpp.o)
 .data          0x00000000        0x0 cores/core_no_main.a(USB_FS.cpp.o)
 .bss           0x00000000        0x0 cores/core_no_main.a(USB_FS.cpp.o)
 .reginfo       0x00000000       0x18 cores/core_no_main.a(USB_FS.cpp.o)
 .gnu.linkonce.t._ZN9USBDriver10setManagerEP10USBManager
                0x00000000        0x8 cores/core_no_main.a(USB_FS.cpp.o)
 .text          0x00000000        0x0 cores/core_no_main.a(WSystem.c.o)
 .data          0x00000000        0x0 cores/core_no_main.a(WSystem.c.o)
 .bss           0x00000000        0x0 cores/core_no_main.a(WSystem.c.o)
 .reginfo       0x00000000       0x18 cores/core_no_main.a(WSystem.c.o)
 .text.getIntVector
                0x00000000       0x28 cores/core_no_main.a(WSystem.c.o)
 .text.clearIntVector
                0x00000000       0x7c cores/core_no_main.a(WSystem.c.o)
 .text.enableInterrupts
                0x00000000        0xc cores/core_no_main.a(WSystem.c.o)
 .text.getIntFlag
                0x00000000       0x38 cores/core_no_main.a(WSystem.c.o)
 .text.clearIntEnable
                0x00000000       0x38 cores/core_no_main.a(WSystem.c.o)
 .text.restoreIntEnable
                0x00000000       0x48 cores/core_no_main.a(WSystem.c.o)
 .text.getIntPriority
                0x00000000       0x60 cores/core_no_main.a(WSystem.c.o)
 .text.readCoreTimer
                0x00000000        0xc cores/core_no_main.a(WSystem.c.o)
 .text.writeCoreTimer
                0x00000000        0xc cores/core_no_main.a(WSystem.c.o)
 .text._disableSeconaryOscillator
                0x00000000       0x54 cores/core_no_main.a(WSystem.c.o)
 .text          0x00000000        0x0 cores/core_no_main.a(pins_arduino.c.o)
 .data          0x00000000        0x0 cores/core_no_main.a(pins_arduino.c.o)
 .bss           0x00000000        0x0 cores/core_no_main.a(pins_arduino.c.o)
 .reginfo       0x00000000       0x18 cores/core_no_main.a(pins_arduino.c.o)
 .rodata.external_int_to_digital_pin_PGM.external_int_to_digital_pin_PGM
                0x00000000        0x8 cores/core_no_main.a(pins_arduino.c.o)
 .rodata.output_compare_to_digital_pin_PGM.output_compare_to_digital_pin_PGM
                0x00000000        0x8 cores/core_no_main.a(pins_arduino.c.o)
 .rodata.analog_pin_to_channel_PGM.analog_pin_to_channel_PGM
                0x00000000       0x10 cores/core_no_main.a(pins_arduino.c.o)
 .rodata.digital_pin_to_analog_PGM.digital_pin_to_analog_PGM
                0x00000000       0x24 cores/core_no_main.a(pins_arduino.c.o)
 .rodata.digital_pin_to_pps_in_PGM.digital_pin_to_pps_in_PGM
                0x00000000       0x24 cores/core_no_main.a(pins_arduino.c.o)
 .rodata.ext_int_to_pps_sel_PGM.ext_int_to_pps_sel_PGM
                0x00000000        0x8 cores/core_no_main.a(pins_arduino.c.o)
 .rodata.output_compare_to_pps_sel_PGM.output_compare_to_pps_sel_PGM
                0x00000000        0x8 cores/core_no_main.a(pins_arduino.c.o)
 .text          0x00000000        0x0 cores/core_no_main.a(wiring_analog.c.o)
 .data          0x00000000        0x0 cores/core_no_main.a(wiring_analog.c.o)
 .bss           0x00000000        0x0 cores/core_no_main.a(wiring_analog.c.o)
 .reginfo       0x00000000       0x18 cores/core_no_main.a(wiring_analog.c.o)
 .text.configurePWM
                0x00000000       0xf0 cores/core_no_main.a(wiring_analog.c.o)
 .text.analogReference
                0x00000000       0x40 cores/core_no_main.a(wiring_analog.c.o)
 .text.analogReadConversionStart
                0x00000000       0xe8 cores/core_no_main.a(wiring_analog.c.o)
 .text.analogReadConversionComplete
                0x00000000       0x10 cores/core_no_main.a(wiring_analog.c.o)
 .text.analogReadConversion
                0x00000000       0x10 cores/core_no_main.a(wiring_analog.c.o)
 .text.analogRead
                0x00000000       0x40 cores/core_no_main.a(wiring_analog.c.o)
 .text.analogWrite
                0x00000000      0x18c cores/core_no_main.a(wiring_analog.c.o)
 .text.analogWriteFrequency
                0x00000000      0x114 cores/core_no_main.a(wiring_analog.c.o)
 .text.analogWriteResolution
                0x00000000      0x120 cores/core_no_main.a(wiring_analog.c.o)
 .rodata.psval.psval
                0x00000000       0x20 cores/core_no_main.a(wiring_analog.c.o)
 .text          0x00000000        0x0 cores/core_no_main.a(Print.cpp.o)
 .data          0x00000000        0x0 cores/core_no_main.a(Print.cpp.o)
 .bss           0x00000000        0x0 cores/core_no_main.a(Print.cpp.o)
 .reginfo       0x00000000       0x18 cores/core_no_main.a(Print.cpp.o)
 .gnu.linkonce.t._ZN5Print17availableForWriteEv
                0x00000000        0x8 cores/core_no_main.a(Print.cpp.o)
 .text._ZN5Print5writeEPKhm
                0x00000000       0x78 cores/core_no_main.a(Print.cpp.o)
 .text._ZN5Print5printERK6String
                0x00000000       0x18 cores/core_no_main.a(Print.cpp.o)
 .text._ZN5Print5printEPK19__FlashStringHelper
                0x00000000       0x50 cores/core_no_main.a(Print.cpp.o)
 .text._ZN5Print5printEPKc
                0x00000000       0x50 cores/core_no_main.a(Print.cpp.o)
 .text._ZN5Print5printEc
                0x00000000       0x10 cores/core_no_main.a(Print.cpp.o)
 .text._ZN5Print5printERK9Printable
                0x00000000       0x18 cores/core_no_main.a(Print.cpp.o)
 .text._ZN5Print7printlnEv
                0x00000000       0x54 cores/core_no_main.a(Print.cpp.o)
 .text._ZN5Print7printlnERK6String
                0x00000000       0x50 cores/core_no_main.a(Print.cpp.o)
 .text._ZN5Print7printlnEPKc
                0x00000000       0x84 cores/core_no_main.a(Print.cpp.o)
 .text._ZN5Print7printlnEPK19__FlashStringHelper
                0x00000000        0x8 cores/core_no_main.a(Print.cpp.o)
 .text._ZN5Print7printlnEc
                0x00000000       0x48 cores/core_no_main.a(Print.cpp.o)
 .text._ZN5Print7printlnERK9Printable
                0x00000000       0x50 cores/core_no_main.a(Print.cpp.o)
 .text._ZN5Print11printNumberEmh
                0x00000000       0xac cores/core_no_main.a(Print.cpp.o)
 .text._ZN5Print5printEli
                0x00000000       0xb0 cores/core_no_main.a(Print.cpp.o)
 .text._ZN5Print5printEii
                0x00000000        0x8 cores/core_no_main.a(Print.cpp.o)
 .text._ZN5Print7printlnEii
                0x00000000       0x3c cores/core_no_main.a(Print.cpp.o)
 .text._ZN5Print7printlnEli
                0x00000000       0x3c cores/core_no_main.a(Print.cpp.o)
 .text._ZN5Print5printEmi
                0x00000000       0x1c cores/core_no_main.a(Print.cpp.o)
 .text._ZN5Print5printEhi
                0x00000000        0x8 cores/core_no_main.a(Print.cpp.o)
 .text._ZN5Print7printlnEhi
                0x00000000       0x3c cores/core_no_main.a(Print.cpp.o)
 .text._ZN5Print5printEji
                0x00000000        0x8 cores/core_no_main.a(Print.cpp.o)
 .text._ZN5Print7printlnEji
                0x00000000       0x3c cores/core_no_main.a(Print.cpp.o)
 .text._ZN5Print7printlnEmi
                0x00000000       0x3c cores/core_no_main.a(Print.cpp.o)
 .rodata        0x00000000       0x30 cores/core_no_main.a(Print.cpp.o)
 .text._ZN5Print10printFloatEdh
                0x00000000      0x31c cores/core_no_main.a(Print.cpp.o)
 .text._ZN5Print5printEdi
                0x00000000        0xc cores/core_no_main.a(Print.cpp.o)
 .text._ZN5Print7printlnEdi
                0x00000000       0x44 cores/core_no_main.a(Print.cpp.o)
 .text._ZN5Print6printfEPKcz
                0x00000000       0x38 cores/core_no_main.a(Print.cpp.o)
 .gnu.linkonce.r._ZTV5Print._ZTV5Print
                0x00000000       0x18 cores/core_no_main.a(Print.cpp.o)
 .text          0x00000000        0x0 cores/core_no_main.a(doprnt.cpp.o)
 .data          0x00000000        0x0 cores/core_no_main.a(doprnt.cpp.o)
 .bss           0x00000000        0x0 cores/core_no_main.a(doprnt.cpp.o)
 .reginfo       0x00000000       0x18 cores/core_no_main.a(doprnt.cpp.o)
 .text._ZL8cvtrounddPiPhS0_hS0_
                0x00000000      0x1b4 cores/core_no_main.a(doprnt.cpp.o)
 .rodata        0x00000000       0x40 cores/core_no_main.a(doprnt.cpp.o)
 .text._Z7_doprntPKcPvP5Print
                0x00000000     0x1dd8 cores/core_no_main.a(doprnt.cpp.o)
 .text          0x00000000        0x0 /home/ishyro/.arduino15/packages/chipKIT/tools/pic32-tools/1.43-pic32gcc/bin/bin/../../lib/gcc/pic32mx/4.8.3/../../../../pic32mx/lib/size/libm.a(lib_a-s_fpclassify.o)
 .data          0x00000000        0x0 /home/ishyro/.arduino15/packages/chipKIT/tools/pic32-tools/1.43-pic32gcc/bin/bin/../../lib/gcc/pic32mx/4.8.3/../../../../pic32mx/lib/size/libm.a(lib_a-s_fpclassify.o)
 .bss           0x00000000        0x0 /home/ishyro/.arduino15/packages/chipKIT/tools/pic32-tools/1.43-pic32gcc/bin/bin/../../lib/gcc/pic32mx/4.8.3/../../../../pic32mx/lib/size/libm.a(lib_a-s_fpclassify.o)
 .reginfo       0x00000000       0x18 /home/ishyro/.arduino15/packages/chipKIT/tools/pic32-tools/1.43-pic32gcc/bin/bin/../../lib/gcc/pic32mx/4.8.3/../../../../pic32mx/lib/size/libm.a(lib_a-s_fpclassify.o)
 .text.__fpclassifyd
                0x00000000       0x64 /home/ishyro/.arduino15/packages/chipKIT/tools/pic32-tools/1.43-pic32gcc/bin/bin/../../lib/gcc/pic32mx/4.8.3/../../../../pic32mx/lib/size/libm.a(lib_a-s_fpclassify.o)
 .text          0x00000000        0x0 /home/ishyro/.arduino15/packages/chipKIT/tools/pic32-tools/1.43-pic32gcc/bin/bin/../../lib/gcc/pic32mx/4.8.3/../../../../pic32mx/lib/size/libm.a(lib_a-s_modf.o)
 .data          0x00000000        0x0 /home/ishyro/.arduino15/packages/chipKIT/tools/pic32-tools/1.43-pic32gcc/bin/bin/../../lib/gcc/pic32mx/4.8.3/../../../../pic32mx/lib/size/libm.a(lib_a-s_modf.o)
 .bss           0x00000000        0x0 /home/ishyro/.arduino15/packages/chipKIT/tools/pic32-tools/1.43-pic32gcc/bin/bin/../../lib/gcc/pic32mx/4.8.3/../../../../pic32mx/lib/size/libm.a(lib_a-s_modf.o)
 .reginfo       0x00000000       0x18 /home/ishyro/.arduino15/packages/chipKIT/tools/pic32-tools/1.43-pic32gcc/bin/bin/../../lib/gcc/pic32mx/4.8.3/../../../../pic32mx/lib/size/libm.a(lib_a-s_modf.o)
 .rodata.one.one
                0x00000000        0x8 /home/ishyro/.arduino15/packages/chipKIT/tools/pic32-tools/1.43-pic32gcc/bin/bin/../../lib/gcc/pic32mx/4.8.3/../../../../pic32mx/lib/size/libm.a(lib_a-s_modf.o)
 .text.modf     0x00000000       0xe4 /home/ishyro/.arduino15/packages/chipKIT/tools/pic32-tools/1.43-pic32gcc/bin/bin/../../lib/gcc/pic32mx/4.8.3/../../../../pic32mx/lib/size/libm.a(lib_a-s_modf.o)
 .text          0x00000000        0x0 /home/ishyro/.arduino15/packages/chipKIT/tools/pic32-tools/1.43-pic32gcc/bin/bin/../../lib/gcc/pic32mx/4.8.3/../../../../pic32mx/lib/./proc/32MX250F128D/processor.o
 .data          0x00000000        0x0 /home/ishyro/.arduino15/packages/chipKIT/tools/pic32-tools/1.43-pic32gcc/bin/bin/../../lib/gcc/pic32mx/4.8.3/../../../../pic32mx/lib/./proc/32MX250F128D/processor.o
 .bss           0x00000000        0x0 /home/ishyro/.arduino15/packages/chipKIT/tools/pic32-tools/1.43-pic32gcc/bin/bin/../../lib/gcc/pic32mx/4.8.3/../../../../pic32mx/lib/./proc/32MX250F128D/processor.o
 .reginfo       0x00000000       0x18 /home/ishyro/.arduino15/packages/chipKIT/tools/pic32-tools/1.43-pic32gcc/bin/bin/../../lib/gcc/pic32mx/4.8.3/../../../../pic32mx/lib/./proc/32MX250F128D/processor.o
 .data          0x00000000        0x4 /home/ishyro/.arduino15/packages/chipKIT/tools/pic32-tools/1.43-pic32gcc/bin/bin/../../lib/gcc/pic32mx/4.8.3/size/crtbegin.o
 .reginfo       0x00000000       0x18 /home/ishyro/.arduino15/packages/chipKIT/tools/pic32-tools/1.43-pic32gcc/bin/bin/../../lib/gcc/pic32mx/4.8.3/size/crtbegin.o
 .data          0x00000000        0x4 /home/ishyro/.arduino15/packages/chipKIT/tools/pic32-tools/1.43-pic32gcc/bin/bin/../../lib/gcc/pic32mx/4.8.3/size/crtend.o
 .bss           0x00000000        0x0 /home/ishyro/.arduino15/packages/chipKIT/tools/pic32-tools/1.43-pic32gcc/bin/bin/../../lib/gcc/pic32mx/4.8.3/size/crtend.o
 .reginfo       0x00000000       0x18 /home/ishyro/.arduino15/packages/chipKIT/tools/pic32-tools/1.43-pic32gcc/bin/bin/../../lib/gcc/pic32mx/4.8.3/size/crtend.o
 .eh_frame      0x00000000        0x4 /home/ishyro/.arduino15/packages/chipKIT/tools/pic32-tools/1.43-pic32gcc/bin/bin/../../lib/gcc/pic32mx/4.8.3/size/crtend.o
 .jcr           0x00000000        0x4 /home/ishyro/.arduino15/packages/chipKIT/tools/pic32-tools/1.43-pic32gcc/bin/bin/../../lib/gcc/pic32mx/4.8.3/size/crtend.o
 .text          0x00000000        0x0 /home/ishyro/.arduino15/packages/chipKIT/tools/pic32-tools/1.43-pic32gcc/bin/bin/../../lib/gcc/pic32mx/4.8.3/size/crtn.o
 .data          0x00000000        0x0 /home/ishyro/.arduino15/packages/chipKIT/tools/pic32-tools/1.43-pic32gcc/bin/bin/../../lib/gcc/pic32mx/4.8.3/size/crtn.o
 .bss           0x00000000        0x0 /home/ishyro/.arduino15/packages/chipKIT/tools/pic32-tools/1.43-pic32gcc/bin/bin/../../lib/gcc/pic32mx/4.8.3/size/crtn.o
 .reginfo       0x00000000       0x18 /home/ishyro/.arduino15/packages/chipKIT/tools/pic32-tools/1.43-pic32gcc/bin/bin/../../lib/gcc/pic32mx/4.8.3/size/crtn.o
 .text          0x00000000      0x7c8 /home/ishyro/.arduino15/packages/chipKIT/tools/pic32-tools/1.43-pic32gcc/bin/bin/../../lib/gcc/pic32mx/4.8.3/size/libgcc.a(adddf3.o)
 .data          0x00000000        0x0 /home/ishyro/.arduino15/packages/chipKIT/tools/pic32-tools/1.43-pic32gcc/bin/bin/../../lib/gcc/pic32mx/4.8.3/size/libgcc.a(adddf3.o)
 .bss           0x00000000        0x0 /home/ishyro/.arduino15/packages/chipKIT/tools/pic32-tools/1.43-pic32gcc/bin/bin/../../lib/gcc/pic32mx/4.8.3/size/libgcc.a(adddf3.o)
 .reginfo       0x00000000       0x18 /home/ishyro/.arduino15/packages/chipKIT/tools/pic32-tools/1.43-pic32gcc/bin/bin/../../lib/gcc/pic32mx/4.8.3/size/libgcc.a(adddf3.o)
 .text          0x00000000      0x6e4 /home/ishyro/.arduino15/packages/chipKIT/tools/pic32-tools/1.43-pic32gcc/bin/bin/../../lib/gcc/pic32mx/4.8.3/size/libgcc.a(divdf3.o)
 .data          0x00000000        0x0 /home/ishyro/.arduino15/packages/chipKIT/tools/pic32-tools/1.43-pic32gcc/bin/bin/../../lib/gcc/pic32mx/4.8.3/size/libgcc.a(divdf3.o)
 .bss           0x00000000        0x0 /home/ishyro/.arduino15/packages/chipKIT/tools/pic32-tools/1.43-pic32gcc/bin/bin/../../lib/gcc/pic32mx/4.8.3/size/libgcc.a(divdf3.o)
 .reginfo       0x00000000       0x18 /home/ishyro/.arduino15/packages/chipKIT/tools/pic32-tools/1.43-pic32gcc/bin/bin/../../lib/gcc/pic32mx/4.8.3/size/libgcc.a(divdf3.o)
 .text          0x00000000       0x80 /home/ishyro/.arduino15/packages/chipKIT/tools/pic32-tools/1.43-pic32gcc/bin/bin/../../lib/gcc/pic32mx/4.8.3/size/libgcc.a(eqdf2.o)
 .data          0x00000000        0x0 /home/ishyro/.arduino15/packages/chipKIT/tools/pic32-tools/1.43-pic32gcc/bin/bin/../../lib/gcc/pic32mx/4.8.3/size/libgcc.a(eqdf2.o)
 .bss           0x00000000        0x0 /home/ishyro/.arduino15/packages/chipKIT/tools/pic32-tools/1.43-pic32gcc/bin/bin/../../lib/gcc/pic32mx/4.8.3/size/libgcc.a(eqdf2.o)
 .reginfo       0x00000000       0x18 /home/ishyro/.arduino15/packages/chipKIT/tools/pic32-tools/1.43-pic32gcc/bin/bin/../../lib/gcc/pic32mx/4.8.3/size/libgcc.a(eqdf2.o)
 .text          0x00000000      0x11c /home/ishyro/.arduino15/packages/chipKIT/tools/pic32-tools/1.43-pic32gcc/bin/bin/../../lib/gcc/pic32mx/4.8.3/size/libgcc.a(gedf2.o)
 .data          0x00000000        0x0 /home/ishyro/.arduino15/packages/chipKIT/tools/pic32-tools/1.43-pic32gcc/bin/bin/../../lib/gcc/pic32mx/4.8.3/size/libgcc.a(gedf2.o)
 .bss           0x00000000        0x0 /home/ishyro/.arduino15/packages/chipKIT/tools/pic32-tools/1.43-pic32gcc/bin/bin/../../lib/gcc/pic32mx/4.8.3/size/libgcc.a(gedf2.o)
 .reginfo       0x00000000       0x18 /home/ishyro/.arduino15/packages/chipKIT/tools/pic32-tools/1.43-pic32gcc/bin/bin/../../lib/gcc/pic32mx/4.8.3/size/libgcc.a(gedf2.o)
 .text          0x00000000      0x10c /home/ishyro/.arduino15/packages/chipKIT/tools/pic32-tools/1.43-pic32gcc/bin/bin/../../lib/gcc/pic32mx/4.8.3/size/libgcc.a(ledf2.o)
 .data          0x00000000        0x0 /home/ishyro/.arduino15/packages/chipKIT/tools/pic32-tools/1.43-pic32gcc/bin/bin/../../lib/gcc/pic32mx/4.8.3/size/libgcc.a(ledf2.o)
 .bss           0x00000000        0x0 /home/ishyro/.arduino15/packages/chipKIT/tools/pic32-tools/1.43-pic32gcc/bin/bin/../../lib/gcc/pic32mx/4.8.3/size/libgcc.a(ledf2.o)
 .reginfo       0x00000000       0x18 /home/ishyro/.arduino15/packages/chipKIT/tools/pic32-tools/1.43-pic32gcc/bin/bin/../../lib/gcc/pic32mx/4.8.3/size/libgcc.a(ledf2.o)
 .text          0x00000000      0x49c /home/ishyro/.arduino15/packages/chipKIT/tools/pic32-tools/1.43-pic32gcc/bin/bin/../../lib/gcc/pic32mx/4.8.3/size/libgcc.a(muldf3.o)
 .data          0x00000000        0x0 /home/ishyro/.arduino15/packages/chipKIT/tools/pic32-tools/1.43-pic32gcc/bin/bin/../../lib/gcc/pic32mx/4.8.3/size/libgcc.a(muldf3.o)
 .bss           0x00000000        0x0 /home/ishyro/.arduino15/packages/chipKIT/tools/pic32-tools/1.43-pic32gcc/bin/bin/../../lib/gcc/pic32mx/4.8.3/size/libgcc.a(muldf3.o)
 .reginfo       0x00000000       0x18 /home/ishyro/.arduino15/packages/chipKIT/tools/pic32-tools/1.43-pic32gcc/bin/bin/../../lib/gcc/pic32mx/4.8.3/size/libgcc.a(muldf3.o)
 .text          0x00000000      0x7e0 /home/ishyro/.arduino15/packages/chipKIT/tools/pic32-tools/1.43-pic32gcc/bin/bin/../../lib/gcc/pic32mx/4.8.3/size/libgcc.a(subdf3.o)
 .data          0x00000000        0x0 /home/ishyro/.arduino15/packages/chipKIT/tools/pic32-tools/1.43-pic32gcc/bin/bin/../../lib/gcc/pic32mx/4.8.3/size/libgcc.a(subdf3.o)
 .bss           0x00000000        0x0 /home/ishyro/.arduino15/packages/chipKIT/tools/pic32-tools/1.43-pic32gcc/bin/bin/../../lib/gcc/pic32mx/4.8.3/size/libgcc.a(subdf3.o)
 .reginfo       0x00000000       0x18 /home/ishyro/.arduino15/packages/chipKIT/tools/pic32-tools/1.43-pic32gcc/bin/bin/../../lib/gcc/pic32mx/4.8.3/size/libgcc.a(subdf3.o)
 .text          0x00000000       0x78 /home/ishyro/.arduino15/packages/chipKIT/tools/pic32-tools/1.43-pic32gcc/bin/bin/../../lib/gcc/pic32mx/4.8.3/size/libgcc.a(fixdfsi.o)
 .data          0x00000000        0x0 /home/ishyro/.arduino15/packages/chipKIT/tools/pic32-tools/1.43-pic32gcc/bin/bin/../../lib/gcc/pic32mx/4.8.3/size/libgcc.a(fixdfsi.o)
 .bss           0x00000000        0x0 /home/ishyro/.arduino15/packages/chipKIT/tools/pic32-tools/1.43-pic32gcc/bin/bin/../../lib/gcc/pic32mx/4.8.3/size/libgcc.a(fixdfsi.o)
 .reginfo       0x00000000       0x18 /home/ishyro/.arduino15/packages/chipKIT/tools/pic32-tools/1.43-pic32gcc/bin/bin/../../lib/gcc/pic32mx/4.8.3/size/libgcc.a(fixdfsi.o)
 .text          0x00000000       0x6c /home/ishyro/.arduino15/packages/chipKIT/tools/pic32-tools/1.43-pic32gcc/bin/bin/../../lib/gcc/pic32mx/4.8.3/size/libgcc.a(fixunsdfsi.o)
 .data          0x00000000        0x0 /home/ishyro/.arduino15/packages/chipKIT/tools/pic32-tools/1.43-pic32gcc/bin/bin/../../lib/gcc/pic32mx/4.8.3/size/libgcc.a(fixunsdfsi.o)
 .bss           0x00000000        0x0 /home/ishyro/.arduino15/packages/chipKIT/tools/pic32-tools/1.43-pic32gcc/bin/bin/../../lib/gcc/pic32mx/4.8.3/size/libgcc.a(fixunsdfsi.o)
 .reginfo       0x00000000       0x18 /home/ishyro/.arduino15/packages/chipKIT/tools/pic32-tools/1.43-pic32gcc/bin/bin/../../lib/gcc/pic32mx/4.8.3/size/libgcc.a(fixunsdfsi.o)
 .text          0x00000000       0x74 /home/ishyro/.arduino15/packages/chipKIT/tools/pic32-tools/1.43-pic32gcc/bin/bin/../../lib/gcc/pic32mx/4.8.3/size/libgcc.a(floatsidf.o)
 .data          0x00000000        0x0 /home/ishyro/.arduino15/packages/chipKIT/tools/pic32-tools/1.43-pic32gcc/bin/bin/../../lib/gcc/pic32mx/4.8.3/size/libgcc.a(floatsidf.o)
 .bss           0x00000000        0x0 /home/ishyro/.arduino15/packages/chipKIT/tools/pic32-tools/1.43-pic32gcc/bin/bin/../../lib/gcc/pic32mx/4.8.3/size/libgcc.a(floatsidf.o)
 .reginfo       0x00000000       0x18 /home/ishyro/.arduino15/packages/chipKIT/tools/pic32-tools/1.43-pic32gcc/bin/bin/../../lib/gcc/pic32mx/4.8.3/size/libgcc.a(floatsidf.o)
 .text          0x00000000       0x44 /home/ishyro/.arduino15/packages/chipKIT/tools/pic32-tools/1.43-pic32gcc/bin/bin/../../lib/gcc/pic32mx/4.8.3/size/libgcc.a(floatunsidf.o)
 .data          0x00000000        0x0 /home/ishyro/.arduino15/packages/chipKIT/tools/pic32-tools/1.43-pic32gcc/bin/bin/../../lib/gcc/pic32mx/4.8.3/size/libgcc.a(floatunsidf.o)
 .bss           0x00000000        0x0 /home/ishyro/.arduino15/packages/chipKIT/tools/pic32-tools/1.43-pic32gcc/bin/bin/../../lib/gcc/pic32mx/4.8.3/size/libgcc.a(floatunsidf.o)
 .reginfo       0x00000000       0x18 /home/ishyro/.arduino15/packages/chipKIT/tools/pic32-tools/1.43-pic32gcc/bin/bin/../../lib/gcc/pic32mx/4.8.3/size/libgcc.a(floatunsidf.o)
 .rodata        0x00000000        0x8 /home/ishyro/.arduino15/packages/chipKIT/tools/pic32-tools/1.43-pic32gcc/bin/bin/../../lib/gcc/pic32mx/4.8.3/size/libgcc.a(floatunsidf.o)
 .text          0x00000000        0x0 /home/ishyro/.arduino15/packages/chipKIT/tools/pic32-tools/1.43-pic32gcc/bin/bin/../../lib/gcc/pic32mx/4.8.3/../../../../pic32mx/lib/size/libc.a(lib_a-errno.o)
 .data          0x00000000        0x0 /home/ishyro/.arduino15/packages/chipKIT/tools/pic32-tools/1.43-pic32gcc/bin/bin/../../lib/gcc/pic32mx/4.8.3/../../../../pic32mx/lib/size/libc.a(lib_a-errno.o)
 .bss           0x00000000        0x0 /home/ishyro/.arduino15/packages/chipKIT/tools/pic32-tools/1.43-pic32gcc/bin/bin/../../lib/gcc/pic32mx/4.8.3/../../../../pic32mx/lib/size/libc.a(lib_a-errno.o)
 .reginfo       0x00000000       0x18 /home/ishyro/.arduino15/packages/chipKIT/tools/pic32-tools/1.43-pic32gcc/bin/bin/../../lib/gcc/pic32mx/4.8.3/../../../../pic32mx/lib/size/libc.a(lib_a-errno.o)
 .text          0x00000000        0x0 /home/ishyro/.arduino15/packages/chipKIT/tools/pic32-tools/1.43-pic32gcc/bin/bin/../../lib/gcc/pic32mx/4.8.3/../../../../pic32mx/lib/size/libc.a(lib_a-impure.o)
 .data          0x00000000        0x0 /home/ishyro/.arduino15/packages/chipKIT/tools/pic32-tools/1.43-pic32gcc/bin/bin/../../lib/gcc/pic32mx/4.8.3/../../../../pic32mx/lib/size/libc.a(lib_a-impure.o)
 .bss           0x00000000        0x0 /home/ishyro/.arduino15/packages/chipKIT/tools/pic32-tools/1.43-pic32gcc/bin/bin/../../lib/gcc/pic32mx/4.8.3/../../../../pic32mx/lib/size/libc.a(lib_a-impure.o)
 .reginfo       0x00000000       0x18 /home/ishyro/.arduino15/packages/chipKIT/tools/pic32-tools/1.43-pic32gcc/bin/bin/../../lib/gcc/pic32mx/4.8.3/../../../../pic32mx/lib/size/libc.a(lib_a-impure.o)
 .libc.data._global_impure_ptr
                0x00000000        0x4 /home/ishyro/.arduino15/packages/chipKIT/tools/pic32-tools/1.43-pic32gcc/bin/bin/../../lib/gcc/pic32mx/4.8.3/../../../../pic32mx/lib/size/libc.a(lib_a-impure.o)
 .text          0x00000000        0x0 /home/ishyro/.arduino15/packages/chipKIT/tools/pic32-tools/1.43-pic32gcc/bin/bin/../../lib/gcc/pic32mx/4.8.3/../../../../pic32mx/lib/size/libc.a(lib_a-malloc.o)
 .data          0x00000000        0x0 /home/ishyro/.arduino15/packages/chipKIT/tools/pic32-tools/1.43-pic32gcc/bin/bin/../../lib/gcc/pic32mx/4.8.3/../../../../pic32mx/lib/size/libc.a(lib_a-malloc.o)
 .bss           0x00000000        0x0 /home/ishyro/.arduino15/packages/chipKIT/tools/pic32-tools/1.43-pic32gcc/bin/bin/../../lib/gcc/pic32mx/4.8.3/../../../../pic32mx/lib/size/libc.a(lib_a-malloc.o)
 .reginfo       0x00000000       0x18 /home/ishyro/.arduino15/packages/chipKIT/tools/pic32-tools/1.43-pic32gcc/bin/bin/../../lib/gcc/pic32mx/4.8.3/../../../../pic32mx/lib/size/libc.a(lib_a-malloc.o)
 .text          0x00000000        0x0 /home/ishyro/.arduino15/packages/chipKIT/tools/pic32-tools/1.43-pic32gcc/bin/bin/../../lib/gcc/pic32mx/4.8.3/../../../../pic32mx/lib/size/libc.a(lib_a-mallocr.o)
 .data          0x00000000        0x0 /home/ishyro/.arduino15/packages/chipKIT/tools/pic32-tools/1.43-pic32gcc/bin/bin/../../lib/gcc/pic32mx/4.8.3/../../../../pic32mx/lib/size/libc.a(lib_a-mallocr.o)
 .bss           0x00000000        0x0 /home/ishyro/.arduino15/packages/chipKIT/tools/pic32-tools/1.43-pic32gcc/bin/bin/../../lib/gcc/pic32mx/4.8.3/../../../../pic32mx/lib/size/libc.a(lib_a-mallocr.o)
 .reginfo       0x00000000       0x18 /home/ishyro/.arduino15/packages/chipKIT/tools/pic32-tools/1.43-pic32gcc/bin/bin/../../lib/gcc/pic32mx/4.8.3/../../../../pic32mx/lib/size/libc.a(lib_a-mallocr.o)
 .text          0x00000000        0x0 /home/ishyro/.arduino15/packages/chipKIT/tools/pic32-tools/1.43-pic32gcc/bin/bin/../../lib/gcc/pic32mx/4.8.3/../../../../pic32mx/lib/size/libc.a(lib_a-memcpy.o)
 .data          0x00000000        0x0 /home/ishyro/.arduino15/packages/chipKIT/tools/pic32-tools/1.43-pic32gcc/bin/bin/../../lib/gcc/pic32mx/4.8.3/../../../../pic32mx/lib/size/libc.a(lib_a-memcpy.o)
 .bss           0x00000000        0x0 /home/ishyro/.arduino15/packages/chipKIT/tools/pic32-tools/1.43-pic32gcc/bin/bin/../../lib/gcc/pic32mx/4.8.3/../../../../pic32mx/lib/size/libc.a(lib_a-memcpy.o)
 .reginfo       0x00000000       0x18 /home/ishyro/.arduino15/packages/chipKIT/tools/pic32-tools/1.43-pic32gcc/bin/bin/../../lib/gcc/pic32mx/4.8.3/../../../../pic32mx/lib/size/libc.a(lib_a-memcpy.o)
 .text          0x00000000        0x0 /home/ishyro/.arduino15/packages/chipKIT/tools/pic32-tools/1.43-pic32gcc/bin/bin/../../lib/gcc/pic32mx/4.8.3/../../../../pic32mx/lib/size/libc.a(lib_a-mlock.o)
 .data          0x00000000        0x0 /home/ishyro/.arduino15/packages/chipKIT/tools/pic32-tools/1.43-pic32gcc/bin/bin/../../lib/gcc/pic32mx/4.8.3/../../../../pic32mx/lib/size/libc.a(lib_a-mlock.o)
 .bss           0x00000000        0x0 /home/ishyro/.arduino15/packages/chipKIT/tools/pic32-tools/1.43-pic32gcc/bin/bin/../../lib/gcc/pic32mx/4.8.3/../../../../pic32mx/lib/size/libc.a(lib_a-mlock.o)
 .reginfo       0x00000000       0x18 /home/ishyro/.arduino15/packages/chipKIT/tools/pic32-tools/1.43-pic32gcc/bin/bin/../../lib/gcc/pic32mx/4.8.3/../../../../pic32mx/lib/size/libc.a(lib_a-mlock.o)
 .text          0x00000000        0x0 /home/ishyro/.arduino15/packages/chipKIT/tools/pic32-tools/1.43-pic32gcc/bin/bin/../../lib/gcc/pic32mx/4.8.3/../../../../pic32mx/lib/size/libc.a(lib_a-sbrkr.o)
 .data          0x00000000        0x0 /home/ishyro/.arduino15/packages/chipKIT/tools/pic32-tools/1.43-pic32gcc/bin/bin/../../lib/gcc/pic32mx/4.8.3/../../../../pic32mx/lib/size/libc.a(lib_a-sbrkr.o)
 .bss           0x00000000        0x0 /home/ishyro/.arduino15/packages/chipKIT/tools/pic32-tools/1.43-pic32gcc/bin/bin/../../lib/gcc/pic32mx/4.8.3/../../../../pic32mx/lib/size/libc.a(lib_a-sbrkr.o)
 .reginfo       0x00000000       0x18 /home/ishyro/.arduino15/packages/chipKIT/tools/pic32-tools/1.43-pic32gcc/bin/bin/../../lib/gcc/pic32mx/4.8.3/../../../../pic32mx/lib/size/libc.a(lib_a-sbrkr.o)
 .data          0x00000000        0x0 /home/ishyro/.arduino15/packages/chipKIT/tools/pic32-tools/1.43-pic32gcc/bin/bin/../../lib/gcc/pic32mx/4.8.3/../../../../pic32mx/lib/size/libc.a(lib_a-strlen.o)
 .bss           0x00000000        0x0 /home/ishyro/.arduino15/packages/chipKIT/tools/pic32-tools/1.43-pic32gcc/bin/bin/../../lib/gcc/pic32mx/4.8.3/../../../../pic32mx/lib/size/libc.a(lib_a-strlen.o)
 .reginfo       0x00000000       0x18 /home/ishyro/.arduino15/packages/chipKIT/tools/pic32-tools/1.43-pic32gcc/bin/bin/../../lib/gcc/pic32mx/4.8.3/../../../../pic32mx/lib/size/libc.a(lib_a-strlen.o)
 .text          0x00000000        0x0 /home/ishyro/.arduino15/packages/chipKIT/tools/pic32-tools/1.43-pic32gcc/bin/bin/../../lib/gcc/pic32mx/4.8.3/../../../../pic32mx/lib/size/libc.a(lib_a-freer.o)
 .data          0x00000000        0x0 /home/ishyro/.arduino15/packages/chipKIT/tools/pic32-tools/1.43-pic32gcc/bin/bin/../../lib/gcc/pic32mx/4.8.3/../../../../pic32mx/lib/size/libc.a(lib_a-freer.o)
 .bss           0x00000000        0x0 /home/ishyro/.arduino15/packages/chipKIT/tools/pic32-tools/1.43-pic32gcc/bin/bin/../../lib/gcc/pic32mx/4.8.3/../../../../pic32mx/lib/size/libc.a(lib_a-freer.o)
 .reginfo       0x00000000       0x18 /home/ishyro/.arduino15/packages/chipKIT/tools/pic32-tools/1.43-pic32gcc/bin/bin/../../lib/gcc/pic32mx/4.8.3/../../../../pic32mx/lib/size/libc.a(lib_a-freer.o)
 .text          0x00000000        0x0 /home/ishyro/.arduino15/packages/chipKIT/tools/pic32-tools/1.43-pic32gcc/bin/bin/../../lib/gcc/pic32mx/4.8.3/../../../../pic32mx/lib/size/libc.a(lib_a-reent.o)
 .data          0x00000000        0x0 /home/ishyro/.arduino15/packages/chipKIT/tools/pic32-tools/1.43-pic32gcc/bin/bin/../../lib/gcc/pic32mx/4.8.3/../../../../pic32mx/lib/size/libc.a(lib_a-reent.o)
 .bss           0x00000000        0x0 /home/ishyro/.arduino15/packages/chipKIT/tools/pic32-tools/1.43-pic32gcc/bin/bin/../../lib/gcc/pic32mx/4.8.3/../../../../pic32mx/lib/size/libc.a(lib_a-reent.o)
 .reginfo       0x00000000       0x18 /home/ishyro/.arduino15/packages/chipKIT/tools/pic32-tools/1.43-pic32gcc/bin/bin/../../lib/gcc/pic32mx/4.8.3/../../../../pic32mx/lib/size/libc.a(lib_a-reent.o)
 .text.cleanup_glue
                0x00000000       0x48 /home/ishyro/.arduino15/packages/chipKIT/tools/pic32-tools/1.43-pic32gcc/bin/bin/../../lib/gcc/pic32mx/4.8.3/../../../../pic32mx/lib/size/libc.a(lib_a-reent.o)
 .text._reclaim_reent
                0x00000000      0x118 /home/ishyro/.arduino15/packages/chipKIT/tools/pic32-tools/1.43-pic32gcc/bin/bin/../../lib/gcc/pic32mx/4.8.3/../../../../pic32mx/lib/size/libc.a(lib_a-reent.o)
 .text._wrapup_reent
                0x00000000       0x7c /home/ishyro/.arduino15/packages/chipKIT/tools/pic32-tools/1.43-pic32gcc/bin/bin/../../lib/gcc/pic32mx/4.8.3/../../../../pic32mx/lib/size/libc.a(lib_a-reent.o)
 .text          0x00000000        0x0 /home/ishyro/.arduino15/packages/chipKIT/tools/pic32-tools/1.43-pic32gcc/bin/bin/../../lib/gcc/pic32mx/4.8.3/../../../../pic32mx/lib/size/libsupc++.a(class_type_info.o)
 .data          0x00000000        0x0 /home/ishyro/.arduino15/packages/chipKIT/tools/pic32-tools/1.43-pic32gcc/bin/bin/../../lib/gcc/pic32mx/4.8.3/../../../../pic32mx/lib/size/libsupc++.a(class_type_info.o)
 .bss           0x00000000        0x0 /home/ishyro/.arduino15/packages/chipKIT/tools/pic32-tools/1.43-pic32gcc/bin/bin/../../lib/gcc/pic32mx/4.8.3/../../../../pic32mx/lib/size/libsupc++.a(class_type_info.o)
 .reginfo       0x00000000       0x18 /home/ishyro/.arduino15/packages/chipKIT/tools/pic32-tools/1.43-pic32gcc/bin/bin/../../lib/gcc/pic32mx/4.8.3/../../../../pic32mx/lib/size/libsupc++.a(class_type_info.o)
 .rodata._ZN10__cxxabiv112_GLOBAL__N_1L20nonvirtual_base_typeE.nonvirtual_base_type
                0x00000000        0x4 /home/ishyro/.arduino15/packages/chipKIT/tools/pic32-tools/1.43-pic32gcc/bin/bin/../../lib/gcc/pic32mx/4.8.3/../../../../pic32mx/lib/size/libsupc++.a(class_type_info.o)
 .text          0x00000000        0x0 /home/ishyro/.arduino15/packages/chipKIT/tools/pic32-tools/1.43-pic32gcc/bin/bin/../../lib/gcc/pic32mx/4.8.3/../../../../pic32mx/lib/size/libsupc++.a(del_op.o)
 .data          0x00000000        0x0 /home/ishyro/.arduino15/packages/chipKIT/tools/pic32-tools/1.43-pic32gcc/bin/bin/../../lib/gcc/pic32mx/4.8.3/../../../../pic32mx/lib/size/libsupc++.a(del_op.o)
 .bss           0x00000000        0x0 /home/ishyro/.arduino15/packages/chipKIT/tools/pic32-tools/1.43-pic32gcc/bin/bin/../../lib/gcc/pic32mx/4.8.3/../../../../pic32mx/lib/size/libsupc++.a(del_op.o)
 .reginfo       0x00000000       0x18 /home/ishyro/.arduino15/packages/chipKIT/tools/pic32-tools/1.43-pic32gcc/bin/bin/../../lib/gcc/pic32mx/4.8.3/../../../../pic32mx/lib/size/libsupc++.a(del_op.o)
 .text          0x00000000        0x0 /home/ishyro/.arduino15/packages/chipKIT/tools/pic32-tools/1.43-pic32gcc/bin/bin/../../lib/gcc/pic32mx/4.8.3/../../../../pic32mx/lib/size/libsupc++.a(si_class_type_info.o)
 .data          0x00000000        0x0 /home/ishyro/.arduino15/packages/chipKIT/tools/pic32-tools/1.43-pic32gcc/bin/bin/../../lib/gcc/pic32mx/4.8.3/../../../../pic32mx/lib/size/libsupc++.a(si_class_type_info.o)
 .bss           0x00000000        0x0 /home/ishyro/.arduino15/packages/chipKIT/tools/pic32-tools/1.43-pic32gcc/bin/bin/../../lib/gcc/pic32mx/4.8.3/../../../../pic32mx/lib/size/libsupc++.a(si_class_type_info.o)
 .reginfo       0x00000000       0x18 /home/ishyro/.arduino15/packages/chipKIT/tools/pic32-tools/1.43-pic32gcc/bin/bin/../../lib/gcc/pic32mx/4.8.3/../../../../pic32mx/lib/size/libsupc++.a(si_class_type_info.o)
 .text          0x00000000        0x0 /home/ishyro/.arduino15/packages/chipKIT/tools/pic32-tools/1.43-pic32gcc/bin/bin/../../lib/gcc/pic32mx/4.8.3/../../../../pic32mx/lib/size/libsupc++.a(tinfo.o)
 .data          0x00000000        0x0 /home/ishyro/.arduino15/packages/chipKIT/tools/pic32-tools/1.43-pic32gcc/bin/bin/../../lib/gcc/pic32mx/4.8.3/../../../../pic32mx/lib/size/libsupc++.a(tinfo.o)
 .bss           0x00000000        0x0 /home/ishyro/.arduino15/packages/chipKIT/tools/pic32-tools/1.43-pic32gcc/bin/bin/../../lib/gcc/pic32mx/4.8.3/../../../../pic32mx/lib/size/libsupc++.a(tinfo.o)
 .reginfo       0x00000000       0x18 /home/ishyro/.arduino15/packages/chipKIT/tools/pic32-tools/1.43-pic32gcc/bin/bin/../../lib/gcc/pic32mx/4.8.3/../../../../pic32mx/lib/size/libsupc++.a(tinfo.o)
 .text          0x00000000        0x0 /home/ishyro/.arduino15/packages/chipKIT/tools/pic32-tools/1.43-pic32gcc/bin/bin/../../lib/gcc/pic32mx/4.8.3/../../../../pic32mx/lib/size/libsupc++.a(vmi_class_type_info.o)
 .data          0x00000000        0x0 /home/ishyro/.arduino15/packages/chipKIT/tools/pic32-tools/1.43-pic32gcc/bin/bin/../../lib/gcc/pic32mx/4.8.3/../../../../pic32mx/lib/size/libsupc++.a(vmi_class_type_info.o)
 .bss           0x00000000        0x0 /home/ishyro/.arduino15/packages/chipKIT/tools/pic32-tools/1.43-pic32gcc/bin/bin/../../lib/gcc/pic32mx/4.8.3/../../../../pic32mx/lib/size/libsupc++.a(vmi_class_type_info.o)
 .reginfo       0x00000000       0x18 /home/ishyro/.arduino15/packages/chipKIT/tools/pic32-tools/1.43-pic32gcc/bin/bin/../../lib/gcc/pic32mx/4.8.3/../../../../pic32mx/lib/size/libsupc++.a(vmi_class_type_info.o)
 .rodata._ZN10__cxxabiv112_GLOBAL__N_1L20nonvirtual_base_typeE.nonvirtual_base_type
                0x00000000        0x4 /home/ishyro/.arduino15/packages/chipKIT/tools/pic32-tools/1.43-pic32gcc/bin/bin/../../lib/gcc/pic32mx/4.8.3/../../../../pic32mx/lib/size/libsupc++.a(vmi_class_type_info.o)
 .text          0x00000000        0x0 /home/ishyro/.arduino15/packages/chipKIT/tools/pic32-tools/1.43-pic32gcc/bin/bin/../../lib/gcc/pic32mx/4.8.3/../../../../pic32mx/lib/size/libsupc++.a(pure.o)
 .data          0x00000000        0x0 /home/ishyro/.arduino15/packages/chipKIT/tools/pic32-tools/1.43-pic32gcc/bin/bin/../../lib/gcc/pic32mx/4.8.3/../../../../pic32mx/lib/size/libsupc++.a(pure.o)
 .bss           0x00000000        0x0 /home/ishyro/.arduino15/packages/chipKIT/tools/pic32-tools/1.43-pic32gcc/bin/bin/../../lib/gcc/pic32mx/4.8.3/../../../../pic32mx/lib/size/libsupc++.a(pure.o)
 .reginfo       0x00000000       0x18 /home/ishyro/.arduino15/packages/chipKIT/tools/pic32-tools/1.43-pic32gcc/bin/bin/../../lib/gcc/pic32mx/4.8.3/../../../../pic32mx/lib/size/libsupc++.a(pure.o)
 .text.__cxa_pure_virtual
                0x00000000       0x10 /home/ishyro/.arduino15/packages/chipKIT/tools/pic32-tools/1.43-pic32gcc/bin/bin/../../lib/gcc/pic32mx/4.8.3/../../../../pic32mx/lib/size/libsupc++.a(pure.o)
 .text.__cxa_deleted_virtual
                0x00000000       0x10 /home/ishyro/.arduino15/packages/chipKIT/tools/pic32-tools/1.43-pic32gcc/bin/bin/../../lib/gcc/pic32mx/4.8.3/../../../../pic32mx/lib/size/libsupc++.a(pure.o)
 .rodata._ZN10__cxxabiv1L29__gxx_primary_exception_classE.__gxx_primary_exception_class
                0x00000000        0x8 /home/ishyro/.arduino15/packages/chipKIT/tools/pic32-tools/1.43-pic32gcc/bin/bin/../../lib/gcc/pic32mx/4.8.3/../../../../pic32mx/lib/size/libsupc++.a(pure.o)
 .rodata._ZN10__cxxabiv1L31__gxx_dependent_exception_classE.__gxx_dependent_exception_class
                0x00000000        0x8 /home/ishyro/.arduino15/packages/chipKIT/tools/pic32-tools/1.43-pic32gcc/bin/bin/../../lib/gcc/pic32mx/4.8.3/../../../../pic32mx/lib/size/libsupc++.a(pure.o)
 .text          0x00000000        0x0 /home/ishyro/.arduino15/packages/chipKIT/tools/pic32-tools/1.43-pic32gcc/bin/bin/../../lib/gcc/pic32mx/4.8.3/../../../../pic32mx/lib/size/libsupc++.a(eh_terminate.o)
 .data          0x00000000        0x0 /home/ishyro/.arduino15/packages/chipKIT/tools/pic32-tools/1.43-pic32gcc/bin/bin/../../lib/gcc/pic32mx/4.8.3/../../../../pic32mx/lib/size/libsupc++.a(eh_terminate.o)
 .bss           0x00000000        0x0 /home/ishyro/.arduino15/packages/chipKIT/tools/pic32-tools/1.43-pic32gcc/bin/bin/../../lib/gcc/pic32mx/4.8.3/../../../../pic32mx/lib/size/libsupc++.a(eh_terminate.o)
 .reginfo       0x00000000       0x18 /home/ishyro/.arduino15/packages/chipKIT/tools/pic32-tools/1.43-pic32gcc/bin/bin/../../lib/gcc/pic32mx/4.8.3/../../../../pic32mx/lib/size/libsupc++.a(eh_terminate.o)
 .text._ZN10__cxxabiv111__terminateEPFvvE
                0x00000000       0x18 /home/ishyro/.arduino15/packages/chipKIT/tools/pic32-tools/1.43-pic32gcc/bin/bin/../../lib/gcc/pic32mx/4.8.3/../../../../pic32mx/lib/size/libsupc++.a(eh_terminate.o)
 .text._ZSt9terminatev
                0x00000000       0x14 /home/ishyro/.arduino15/packages/chipKIT/tools/pic32-tools/1.43-pic32gcc/bin/bin/../../lib/gcc/pic32mx/4.8.3/../../../../pic32mx/lib/size/libsupc++.a(eh_terminate.o)
 .text._ZN10__cxxabiv112__unexpectedEPFvvE
                0x00000000       0x18 /home/ishyro/.arduino15/packages/chipKIT/tools/pic32-tools/1.43-pic32gcc/bin/bin/../../lib/gcc/pic32mx/4.8.3/../../../../pic32mx/lib/size/libsupc++.a(eh_terminate.o)
 .text._ZSt10unexpectedv
                0x00000000       0x14 /home/ishyro/.arduino15/packages/chipKIT/tools/pic32-tools/1.43-pic32gcc/bin/bin/../../lib/gcc/pic32mx/4.8.3/../../../../pic32mx/lib/size/libsupc++.a(eh_terminate.o)
 .text._ZSt13set_terminatePFvvE
                0x00000000       0x10 /home/ishyro/.arduino15/packages/chipKIT/tools/pic32-tools/1.43-pic32gcc/bin/bin/../../lib/gcc/pic32mx/4.8.3/../../../../pic32mx/lib/size/libsupc++.a(eh_terminate.o)
 .text._ZSt14set_unexpectedPFvvE
                0x00000000       0x10 /home/ishyro/.arduino15/packages/chipKIT/tools/pic32-tools/1.43-pic32gcc/bin/bin/../../lib/gcc/pic32mx/4.8.3/../../../../pic32mx/lib/size/libsupc++.a(eh_terminate.o)
 .rodata._ZN10__cxxabiv1L29__gxx_primary_exception_classE.__gxx_primary_exception_class
                0x00000000        0x8 /home/ishyro/.arduino15/packages/chipKIT/tools/pic32-tools/1.43-pic32gcc/bin/bin/../../lib/gcc/pic32mx/4.8.3/../../../../pic32mx/lib/size/libsupc++.a(eh_terminate.o)
 .rodata._ZN10__cxxabiv1L31__gxx_dependent_exception_classE.__gxx_dependent_exception_class
                0x00000000        0x8 /home/ishyro/.arduino15/packages/chipKIT/tools/pic32-tools/1.43-pic32gcc/bin/bin/../../lib/gcc/pic32mx/4.8.3/../../../../pic32mx/lib/size/libsupc++.a(eh_terminate.o)
 .text          0x00000000        0x0 /home/ishyro/.arduino15/packages/chipKIT/tools/pic32-tools/1.43-pic32gcc/bin/bin/../../lib/gcc/pic32mx/4.8.3/../../../../pic32mx/lib/size/libsupc++.a(eh_unex_handler.o)
 .data          0x00000000        0x0 /home/ishyro/.arduino15/packages/chipKIT/tools/pic32-tools/1.43-pic32gcc/bin/bin/../../lib/gcc/pic32mx/4.8.3/../../../../pic32mx/lib/size/libsupc++.a(eh_unex_handler.o)
 .bss           0x00000000        0x0 /home/ishyro/.arduino15/packages/chipKIT/tools/pic32-tools/1.43-pic32gcc/bin/bin/../../lib/gcc/pic32mx/4.8.3/../../../../pic32mx/lib/size/libsupc++.a(eh_unex_handler.o)
 .reginfo       0x00000000       0x18 /home/ishyro/.arduino15/packages/chipKIT/tools/pic32-tools/1.43-pic32gcc/bin/bin/../../lib/gcc/pic32mx/4.8.3/../../../../pic32mx/lib/size/libsupc++.a(eh_unex_handler.o)
 .data._ZN10__cxxabiv120__unexpected_handlerE.__unexpected_handler
                0x00000000        0x4 /home/ishyro/.arduino15/packages/chipKIT/tools/pic32-tools/1.43-pic32gcc/bin/bin/../../lib/gcc/pic32mx/4.8.3/../../../../pic32mx/lib/size/libsupc++.a(eh_unex_handler.o)
 .rodata._ZN10__cxxabiv1L29__gxx_primary_exception_classE.__gxx_primary_exception_class
                0x00000000        0x8 /home/ishyro/.arduino15/packages/chipKIT/tools/pic32-tools/1.43-pic32gcc/bin/bin/../../lib/gcc/pic32mx/4.8.3/../../../../pic32mx/lib/size/libsupc++.a(eh_unex_handler.o)
 .rodata._ZN10__cxxabiv1L31__gxx_dependent_exception_classE.__gxx_dependent_exception_class
                0x00000000        0x8 /home/ishyro/.arduino15/packages/chipKIT/tools/pic32-tools/1.43-pic32gcc/bin/bin/../../lib/gcc/pic32mx/4.8.3/../../../../pic32mx/lib/size/libsupc++.a(eh_unex_handler.o)
 .text          0x00000000        0x0 /home/ishyro/.arduino15/packages/chipKIT/tools/pic32-tools/1.43-pic32gcc/bin/bin/../../lib/gcc/pic32mx/4.8.3/../../../../pic32mx/lib/size/libsupc++.a(eh_term_handler.o)
 .data          0x00000000        0x0 /home/ishyro/.arduino15/packages/chipKIT/tools/pic32-tools/1.43-pic32gcc/bin/bin/../../lib/gcc/pic32mx/4.8.3/../../../../pic32mx/lib/size/libsupc++.a(eh_term_handler.o)
 .bss           0x00000000        0x0 /home/ishyro/.arduino15/packages/chipKIT/tools/pic32-tools/1.43-pic32gcc/bin/bin/../../lib/gcc/pic32mx/4.8.3/../../../../pic32mx/lib/size/libsupc++.a(eh_term_handler.o)
 .reginfo       0x00000000       0x18 /home/ishyro/.arduino15/packages/chipKIT/tools/pic32-tools/1.43-pic32gcc/bin/bin/../../lib/gcc/pic32mx/4.8.3/../../../../pic32mx/lib/size/libsupc++.a(eh_term_handler.o)
 .data._ZN10__cxxabiv119__terminate_handlerE.__terminate_handler
                0x00000000        0x4 /home/ishyro/.arduino15/packages/chipKIT/tools/pic32-tools/1.43-pic32gcc/bin/bin/../../lib/gcc/pic32mx/4.8.3/../../../../pic32mx/lib/size/libsupc++.a(eh_term_handler.o)
 .rodata._ZN10__cxxabiv1L29__gxx_primary_exception_classE.__gxx_primary_exception_class
                0x00000000        0x8 /home/ishyro/.arduino15/packages/chipKIT/tools/pic32-tools/1.43-pic32gcc/bin/bin/../../lib/gcc/pic32mx/4.8.3/../../../../pic32mx/lib/size/libsupc++.a(eh_term_handler.o)
 .rodata._ZN10__cxxabiv1L31__gxx_dependent_exception_classE.__gxx_dependent_exception_class
                0x00000000        0x8 /home/ishyro/.arduino15/packages/chipKIT/tools/pic32-tools/1.43-pic32gcc/bin/bin/../../lib/gcc/pic32mx/4.8.3/../../../../pic32mx/lib/size/libsupc++.a(eh_term_handler.o)
 .text          0x00000000        0x0 /home/ishyro/.arduino15/packages/chipKIT/tools/pic32-tools/1.43-pic32gcc/bin/bin/../../lib/gcc/pic32mx/4.8.3/../../../../pic32mx/lib/size/libpic32.a(sbrk.o)
 .data          0x00000000        0x0 /home/ishyro/.arduino15/packages/chipKIT/tools/pic32-tools/1.43-pic32gcc/bin/bin/../../lib/gcc/pic32mx/4.8.3/../../../../pic32mx/lib/size/libpic32.a(sbrk.o)
 .bss           0x00000000        0x0 /home/ishyro/.arduino15/packages/chipKIT/tools/pic32-tools/1.43-pic32gcc/bin/bin/../../lib/gcc/pic32mx/4.8.3/../../../../pic32mx/lib/size/libpic32.a(sbrk.o)
 .reginfo       0x00000000       0x18 /home/ishyro/.arduino15/packages/chipKIT/tools/pic32-tools/1.43-pic32gcc/bin/bin/../../lib/gcc/pic32mx/4.8.3/../../../../pic32mx/lib/size/libpic32.a(sbrk.o)
 .text.getpagesize
                0x00000000        0x8 /home/ishyro/.arduino15/packages/chipKIT/tools/pic32-tools/1.43-pic32gcc/bin/bin/../../lib/gcc/pic32mx/4.8.3/../../../../pic32mx/lib/size/libpic32.a(sbrk.o)
 .text          0x00000000        0x0 /home/ishyro/.arduino15/packages/chipKIT/tools/pic32-tools/1.43-pic32gcc/bin/bin/../../lib/gcc/pic32mx/4.8.3/../../../../pic32mx/lib/size/libpic32.a(default-bootstrap-exception-handler.o)
 .data          0x00000000        0x0 /home/ishyro/.arduino15/packages/chipKIT/tools/pic32-tools/1.43-pic32gcc/bin/bin/../../lib/gcc/pic32mx/4.8.3/../../../../pic32mx/lib/size/libpic32.a(default-bootstrap-exception-handler.o)
 .bss           0x00000000        0x0 /home/ishyro/.arduino15/packages/chipKIT/tools/pic32-tools/1.43-pic32gcc/bin/bin/../../lib/gcc/pic32mx/4.8.3/../../../../pic32mx/lib/size/libpic32.a(default-bootstrap-exception-handler.o)
 .reginfo       0x00000000       0x18 /home/ishyro/.arduino15/packages/chipKIT/tools/pic32-tools/1.43-pic32gcc/bin/bin/../../lib/gcc/pic32mx/4.8.3/../../../../pic32mx/lib/size/libpic32.a(default-bootstrap-exception-handler.o)
 .text          0x00000000        0x0 /home/ishyro/.arduino15/packages/chipKIT/tools/pic32-tools/1.43-pic32gcc/bin/bin/../../lib/gcc/pic32mx/4.8.3/../../../../pic32mx/lib/size/libpic32.a(default-on-reset.o)
 .data          0x00000000        0x0 /home/ishyro/.arduino15/packages/chipKIT/tools/pic32-tools/1.43-pic32gcc/bin/bin/../../lib/gcc/pic32mx/4.8.3/../../../../pic32mx/lib/size/libpic32.a(default-on-reset.o)
 .bss           0x00000000        0x0 /home/ishyro/.arduino15/packages/chipKIT/tools/pic32-tools/1.43-pic32gcc/bin/bin/../../lib/gcc/pic32mx/4.8.3/../../../../pic32mx/lib/size/libpic32.a(default-on-reset.o)
 .reginfo       0x00000000       0x18 /home/ishyro/.arduino15/packages/chipKIT/tools/pic32-tools/1.43-pic32gcc/bin/bin/../../lib/gcc/pic32mx/4.8.3/../../../../pic32mx/lib/size/libpic32.a(default-on-reset.o)
 .text          0x00000000        0x0 /home/ishyro/.arduino15/packages/chipKIT/tools/pic32-tools/1.43-pic32gcc/bin/bin/../../lib/gcc/pic32mx/4.8.3/../../../../pic32mx/lib/size/libpic32.a(default-on-bootstrap.o)
 .data          0x00000000        0x0 /home/ishyro/.arduino15/packages/chipKIT/tools/pic32-tools/1.43-pic32gcc/bin/bin/../../lib/gcc/pic32mx/4.8.3/../../../../pic32mx/lib/size/libpic32.a(default-on-bootstrap.o)
 .bss           0x00000000        0x0 /home/ishyro/.arduino15/packages/chipKIT/tools/pic32-tools/1.43-pic32gcc/bin/bin/../../lib/gcc/pic32mx/4.8.3/../../../../pic32mx/lib/size/libpic32.a(default-on-bootstrap.o)
 .reginfo       0x00000000       0x18 /home/ishyro/.arduino15/packages/chipKIT/tools/pic32-tools/1.43-pic32gcc/bin/bin/../../lib/gcc/pic32mx/4.8.3/../../../../pic32mx/lib/size/libpic32.a(default-on-bootstrap.o)
 .data          0x00000000        0x0 /home/ishyro/.arduino15/packages/chipKIT/tools/pic32-tools/1.43-pic32gcc/bin/bin/../../lib/gcc/pic32mx/4.8.3/../../../../pic32mx/lib/size/libpic32.a(default-nmi-handler.o)
 .bss           0x00000000        0x0 /home/ishyro/.arduino15/packages/chipKIT/tools/pic32-tools/1.43-pic32gcc/bin/bin/../../lib/gcc/pic32mx/4.8.3/../../../../pic32mx/lib/size/libpic32.a(default-nmi-handler.o)
 .reginfo       0x00000000       0x18 /home/ishyro/.arduino15/packages/chipKIT/tools/pic32-tools/1.43-pic32gcc/bin/bin/../../lib/gcc/pic32mx/4.8.3/../../../../pic32mx/lib/size/libpic32.a(default-nmi-handler.o)
 .text          0x00000000        0x0 /home/ishyro/.arduino15/packages/chipKIT/tools/pic32-tools/1.43-pic32gcc/bin/bin/../../lib/gcc/pic32mx/4.8.3/../../../../pic32mx/lib/size/libc.a(lib_a-abort.o)
 .data          0x00000000        0x0 /home/ishyro/.arduino15/packages/chipKIT/tools/pic32-tools/1.43-pic32gcc/bin/bin/../../lib/gcc/pic32mx/4.8.3/../../../../pic32mx/lib/size/libc.a(lib_a-abort.o)
 .bss           0x00000000        0x0 /home/ishyro/.arduino15/packages/chipKIT/tools/pic32-tools/1.43-pic32gcc/bin/bin/../../lib/gcc/pic32mx/4.8.3/../../../../pic32mx/lib/size/libc.a(lib_a-abort.o)
 .reginfo       0x00000000       0x18 /home/ishyro/.arduino15/packages/chipKIT/tools/pic32-tools/1.43-pic32gcc/bin/bin/../../lib/gcc/pic32mx/4.8.3/../../../../pic32mx/lib/size/libc.a(lib_a-abort.o)
 .text.abort    0x00000000       0x18 /home/ishyro/.arduino15/packages/chipKIT/tools/pic32-tools/1.43-pic32gcc/bin/bin/../../lib/gcc/pic32mx/4.8.3/../../../../pic32mx/lib/size/libc.a(lib_a-abort.o)
 .text          0x00000000        0x0 /home/ishyro/.arduino15/packages/chipKIT/tools/pic32-tools/1.43-pic32gcc/bin/bin/../../lib/gcc/pic32mx/4.8.3/../../../../pic32mx/lib/size/libc.a(lib_a-memset.o)
 .data          0x00000000        0x0 /home/ishyro/.arduino15/packages/chipKIT/tools/pic32-tools/1.43-pic32gcc/bin/bin/../../lib/gcc/pic32mx/4.8.3/../../../../pic32mx/lib/size/libc.a(lib_a-memset.o)
 .bss           0x00000000        0x0 /home/ishyro/.arduino15/packages/chipKIT/tools/pic32-tools/1.43-pic32gcc/bin/bin/../../lib/gcc/pic32mx/4.8.3/../../../../pic32mx/lib/size/libc.a(lib_a-memset.o)
 .reginfo       0x00000000       0x18 /home/ishyro/.arduino15/packages/chipKIT/tools/pic32-tools/1.43-pic32gcc/bin/bin/../../lib/gcc/pic32mx/4.8.3/../../../../pic32mx/lib/size/libc.a(lib_a-memset.o)
 .text          0x00000000        0x0 /home/ishyro/.arduino15/packages/chipKIT/tools/pic32-tools/1.43-pic32gcc/bin/bin/../../lib/gcc/pic32mx/4.8.3/../../../../pic32mx/lib/size/libc.a(lib_a-signal.o)
 .data          0x00000000        0x0 /home/ishyro/.arduino15/packages/chipKIT/tools/pic32-tools/1.43-pic32gcc/bin/bin/../../lib/gcc/pic32mx/4.8.3/../../../../pic32mx/lib/size/libc.a(lib_a-signal.o)
 .bss           0x00000000        0x0 /home/ishyro/.arduino15/packages/chipKIT/tools/pic32-tools/1.43-pic32gcc/bin/bin/../../lib/gcc/pic32mx/4.8.3/../../../../pic32mx/lib/size/libc.a(lib_a-signal.o)
 .reginfo       0x00000000       0x18 /home/ishyro/.arduino15/packages/chipKIT/tools/pic32-tools/1.43-pic32gcc/bin/bin/../../lib/gcc/pic32mx/4.8.3/../../../../pic32mx/lib/size/libc.a(lib_a-signal.o)
 .text._init_signal_r
                0x00000000       0x68 /home/ishyro/.arduino15/packages/chipKIT/tools/pic32-tools/1.43-pic32gcc/bin/bin/../../lib/gcc/pic32mx/4.8.3/../../../../pic32mx/lib/size/libc.a(lib_a-signal.o)
 .text._signal_r
                0x00000000       0x80 /home/ishyro/.arduino15/packages/chipKIT/tools/pic32-tools/1.43-pic32gcc/bin/bin/../../lib/gcc/pic32mx/4.8.3/../../../../pic32mx/lib/size/libc.a(lib_a-signal.o)
 .text._raise_r
                0x00000000       0xb0 /home/ishyro/.arduino15/packages/chipKIT/tools/pic32-tools/1.43-pic32gcc/bin/bin/../../lib/gcc/pic32mx/4.8.3/../../../../pic32mx/lib/size/libc.a(lib_a-signal.o)
 .text.__sigtramp_r
                0x00000000       0xac /home/ishyro/.arduino15/packages/chipKIT/tools/pic32-tools/1.43-pic32gcc/bin/bin/../../lib/gcc/pic32mx/4.8.3/../../../../pic32mx/lib/size/libc.a(lib_a-signal.o)
 .text.raise    0x00000000       0x24 /home/ishyro/.arduino15/packages/chipKIT/tools/pic32-tools/1.43-pic32gcc/bin/bin/../../lib/gcc/pic32mx/4.8.3/../../../../pic32mx/lib/size/libc.a(lib_a-signal.o)
 .text.signal   0x00000000       0x2c /home/ishyro/.arduino15/packages/chipKIT/tools/pic32-tools/1.43-pic32gcc/bin/bin/../../lib/gcc/pic32mx/4.8.3/../../../../pic32mx/lib/size/libc.a(lib_a-signal.o)
 .text._init_signal
                0x00000000       0x20 /home/ishyro/.arduino15/packages/chipKIT/tools/pic32-tools/1.43-pic32gcc/bin/bin/../../lib/gcc/pic32mx/4.8.3/../../../../pic32mx/lib/size/libc.a(lib_a-signal.o)
 .text.__sigtramp
                0x00000000       0x24 /home/ishyro/.arduino15/packages/chipKIT/tools/pic32-tools/1.43-pic32gcc/bin/bin/../../lib/gcc/pic32mx/4.8.3/../../../../pic32mx/lib/size/libc.a(lib_a-signal.o)
 .text          0x00000000        0x0 /home/ishyro/.arduino15/packages/chipKIT/tools/pic32-tools/1.43-pic32gcc/bin/bin/../../lib/gcc/pic32mx/4.8.3/../../../../pic32mx/lib/size/libc.a(lib_a-signalr.o)
 .data          0x00000000        0x0 /home/ishyro/.arduino15/packages/chipKIT/tools/pic32-tools/1.43-pic32gcc/bin/bin/../../lib/gcc/pic32mx/4.8.3/../../../../pic32mx/lib/size/libc.a(lib_a-signalr.o)
 .bss           0x00000000        0x0 /home/ishyro/.arduino15/packages/chipKIT/tools/pic32-tools/1.43-pic32gcc/bin/bin/../../lib/gcc/pic32mx/4.8.3/../../../../pic32mx/lib/size/libc.a(lib_a-signalr.o)
 .reginfo       0x00000000       0x18 /home/ishyro/.arduino15/packages/chipKIT/tools/pic32-tools/1.43-pic32gcc/bin/bin/../../lib/gcc/pic32mx/4.8.3/../../../../pic32mx/lib/size/libc.a(lib_a-signalr.o)
 .text._kill_r  0x00000000       0x54 /home/ishyro/.arduino15/packages/chipKIT/tools/pic32-tools/1.43-pic32gcc/bin/bin/../../lib/gcc/pic32mx/4.8.3/../../../../pic32mx/lib/size/libc.a(lib_a-signalr.o)
 .text._getpid_r
                0x00000000       0x1c /home/ishyro/.arduino15/packages/chipKIT/tools/pic32-tools/1.43-pic32gcc/bin/bin/../../lib/gcc/pic32mx/4.8.3/../../../../pic32mx/lib/size/libc.a(lib_a-signalr.o)
 .text          0x00000000        0x0 /home/ishyro/.arduino15/packages/chipKIT/tools/pic32-tools/1.43-pic32gcc/bin/bin/../../lib/gcc/pic32mx/4.8.3/../../../../pic32mx/lib/size/libc.a(lib_a-strcmp.o)
 .data          0x00000000        0x0 /home/ishyro/.arduino15/packages/chipKIT/tools/pic32-tools/1.43-pic32gcc/bin/bin/../../lib/gcc/pic32mx/4.8.3/../../../../pic32mx/lib/size/libc.a(lib_a-strcmp.o)
 .bss           0x00000000        0x0 /home/ishyro/.arduino15/packages/chipKIT/tools/pic32-tools/1.43-pic32gcc/bin/bin/../../lib/gcc/pic32mx/4.8.3/../../../../pic32mx/lib/size/libc.a(lib_a-strcmp.o)
 .reginfo       0x00000000       0x18 /home/ishyro/.arduino15/packages/chipKIT/tools/pic32-tools/1.43-pic32gcc/bin/bin/../../lib/gcc/pic32mx/4.8.3/../../../../pic32mx/lib/size/libc.a(lib_a-strcmp.o)
 .text          0x00000000        0x0 /home/ishyro/.arduino15/packages/chipKIT/tools/pic32-tools/1.43-pic32gcc/bin/bin/../../lib/gcc/pic32mx/4.8.3/../../../../pic32mx/lib/size/libpic32.a(_exit.o)
 .data          0x00000000        0x0 /home/ishyro/.arduino15/packages/chipKIT/tools/pic32-tools/1.43-pic32gcc/bin/bin/../../lib/gcc/pic32mx/4.8.3/../../../../pic32mx/lib/size/libpic32.a(_exit.o)
 .bss           0x00000000        0x0 /home/ishyro/.arduino15/packages/chipKIT/tools/pic32-tools/1.43-pic32gcc/bin/bin/../../lib/gcc/pic32mx/4.8.3/../../../../pic32mx/lib/size/libpic32.a(_exit.o)
 .reginfo       0x00000000       0x18 /home/ishyro/.arduino15/packages/chipKIT/tools/pic32-tools/1.43-pic32gcc/bin/bin/../../lib/gcc/pic32mx/4.8.3/../../../../pic32mx/lib/size/libpic32.a(_exit.o)
 .text._exit    0x00000000        0x8 /home/ishyro/.arduino15/packages/chipKIT/tools/pic32-tools/1.43-pic32gcc/bin/bin/../../lib/gcc/pic32mx/4.8.3/../../../../pic32mx/lib/size/libpic32.a(_exit.o)
 .text          0x00000000        0x0 /home/ishyro/.arduino15/packages/chipKIT/tools/pic32-tools/1.43-pic32gcc/bin/bin/../../lib/gcc/pic32mx/4.8.3/../../../../pic32mx/lib/size/libpic32.a(kill.o)
 .data          0x00000000        0x0 /home/ishyro/.arduino15/packages/chipKIT/tools/pic32-tools/1.43-pic32gcc/bin/bin/../../lib/gcc/pic32mx/4.8.3/../../../../pic32mx/lib/size/libpic32.a(kill.o)
 .bss           0x00000000        0x0 /home/ishyro/.arduino15/packages/chipKIT/tools/pic32-tools/1.43-pic32gcc/bin/bin/../../lib/gcc/pic32mx/4.8.3/../../../../pic32mx/lib/size/libpic32.a(kill.o)
 .reginfo       0x00000000       0x18 /home/ishyro/.arduino15/packages/chipKIT/tools/pic32-tools/1.43-pic32gcc/bin/bin/../../lib/gcc/pic32mx/4.8.3/../../../../pic32mx/lib/size/libpic32.a(kill.o)
 .text.kill     0x00000000        0x8 /home/ishyro/.arduino15/packages/chipKIT/tools/pic32-tools/1.43-pic32gcc/bin/bin/../../lib/gcc/pic32mx/4.8.3/../../../../pic32mx/lib/size/libpic32.a(kill.o)
 .text          0x00000000        0x0 /home/ishyro/.arduino15/packages/chipKIT/tools/pic32-tools/1.43-pic32gcc/bin/bin/../../lib/gcc/pic32mx/4.8.3/../../../../pic32mx/lib/size/libpic32.a(getpid.o)
 .data          0x00000000        0x0 /home/ishyro/.arduino15/packages/chipKIT/tools/pic32-tools/1.43-pic32gcc/bin/bin/../../lib/gcc/pic32mx/4.8.3/../../../../pic32mx/lib/size/libpic32.a(getpid.o)
 .bss           0x00000000        0x0 /home/ishyro/.arduino15/packages/chipKIT/tools/pic32-tools/1.43-pic32gcc/bin/bin/../../lib/gcc/pic32mx/4.8.3/../../../../pic32mx/lib/size/libpic32.a(getpid.o)
 .reginfo       0x00000000       0x18 /home/ishyro/.arduino15/packages/chipKIT/tools/pic32-tools/1.43-pic32gcc/bin/bin/../../lib/gcc/pic32mx/4.8.3/../../../../pic32mx/lib/size/libpic32.a(getpid.o)
 .text.getpid   0x00000000        0x8 /home/ishyro/.arduino15/packages/chipKIT/tools/pic32-tools/1.43-pic32gcc/bin/bin/../../lib/gcc/pic32mx/4.8.3/../../../../pic32mx/lib/size/libpic32.a(getpid.o)

Memory Configuration

Name             Origin             Length             Attributes
exception_mem    0x9d000000         0x00001000
kseg0_program_mem 0x9d001000         0x0001d000         xr
kseg0_eeprom_mem 0x9d01e000         0x00001000
kseg0_splitflash_mem 0x9d01f000         0x00001000
kseg0_boot_mem   0x9fc00200         0x00000000
kseg1_boot_mem   0xbfc00000         0x00000000
debug_exec_mem   0xbfc00490         0x00000000
config3          0xbfc00bf0         0x00000004
config2          0xbfc00bf4         0x00000004
config1          0xbfc00bf8         0x00000004
config0          0xbfc00bfc         0x00000004
kseg1_data_mem   0xa0000000         0x00008000         w !x
sfrs             0xbf800000         0x00100000
configsfrs       0xbfc00bf0         0x00000010
*default*        0x00000000         0xffffffff

Linker script and memory map

                0x00000001                _DEBUGGER = 0x1
LOAD /tmp/ccmZprsd.o
LOAD /tmp/ccV8lcgl.o
LOAD /tmp/ccDSgI4s.o
LOAD /tmp/cc86yoVA.o
LOAD /tmp/ccIZmcRI.o
LOAD Board_Data.o
LOAD cores/core_no_main.a
LOAD /home/ishyro/.arduino15/packages/chipKIT/tools/pic32-tools/1.43-pic32gcc/bin/bin/../../lib/gcc/pic32mx/4.8.3/../../../../pic32mx/lib/size/libm.a
                0x00000800                PROVIDE (_min_stack_size, 0x800)
                0x00000800                PROVIDE (_min_heap_size, 0x800)
LOAD /home/ishyro/.arduino15/packages/chipKIT/tools/pic32-tools/1.43-pic32gcc/bin/bin/../../lib/gcc/pic32mx/4.8.3/../../../../pic32mx/lib/./proc/32MX250F128D/processor.o
START GROUP
LOAD libmchp_peripheral_32MX250F128D.a
END GROUP
                0x9d000000                _ebase_address = ORIGIN (exception_mem)
                0x9d0000f8                _IMAGE_PTR_TABLE = (_ebase_address + 0xf8)
                0x9d0000fc                _IMAGE_HEADER_ADDR = (_ebase_address + 0xfc)
                0x9d000180                _GEN_EXCPT_ADDR = (_ebase_address + 0x180)
                0x9d001000                _RESET_ADDR = ORIGIN (kseg0_program_mem)
                0x9d01e000                _EEPROM_ADDR = ORIGIN (kseg0_eeprom_mem)
                0xbfc00380                _BEV_EXCPT_ADDR = 0xbfc00380
                0xbfc00480                _DBG_EXCPT_ADDR = 0xbfc00480
                0xbfc00490                _DBG_CODE_ADDR = ORIGIN (debug_exec_mem)
                0x00000000                _imageReserved = 0x0
                0x00000001                _imageMPIDE = 0x1
                0x00000002                _imageBootFlashBootloader = 0x2
                0x00000004                _imageProgramFlashBootloader = 0x4
                0x00000008                _imageSplitFlashBootloader = 0x8
                0x00010000                _imageFullFlashEraseLess4KEEProm = 0x10000
                0x00020000                _imageJustInTimeFlashErase = 0x20000
                0x00040000                _imageLinkerSpecifiedFlashErase = 0x40000
                0x00080000                _imageFullFlashErase = 0x80000
                0x01000000                _imageExecutionJumpAddress = 0x1000000
                0x02000000                _imageExecutionJumpToFirstInFlash = 0x2000000
                0x01020001                _IMAGE_TYPE = ((_imageMPIDE | _imageJustInTimeFlashErase) | _imageExecutionJumpAddress)
                0x0001e000                _IMAGE_FLASH_SIZE = 0x1e000
                0x9d001000                _JUMP_ADDR = _RESET_ADDR

.reset          0x9d001000        0x8
 *(.reset)
 .reset         0x9d001000        0x8 /tmp/cc86yoVA.o
                0x9d001000                _reset
                0x00000001                PROVIDE (_vector_spacing, 0x1)
LOAD /home/ishyro/.arduino15/packages/chipKIT/tools/pic32-tools/1.43-pic32gcc/bin/bin/../../lib/gcc/pic32mx/4.8.3/size/crtbegin.o
LOAD /home/ishyro/.arduino15/packages/chipKIT/tools/pic32-tools/1.43-pic32gcc/bin/bin/../../lib/gcc/pic32mx/4.8.3/size/crtend.o
LOAD /home/ishyro/.arduino15/packages/chipKIT/tools/pic32-tools/1.43-pic32gcc/bin/bin/../../lib/gcc/pic32mx/4.8.3/size/crtn.o
START GROUP
LOAD libmchp_peripheral.a
END GROUP

/DISCARD/
 *(.config_*)
 *(.bev_handler)
 *(.pdr)
 *(.reginfo)
 *(.rel.dyn)
 *(.note.GNU-stack)
 *(.note.GNU-stack)
 *(.gnu_debuglink)
 *(.gnu.lto_*)
 *(.discard)

.eeprom_pic32
 *(.eeprom_pic32 .eeprom_pic32.*)

.image_ptr_table
                0x9d0000f8        0x8
                0x9d0000f8        0x4 LONG 0x9d000000 _ebase_address
                0x9d0000fc        0x4 LONG 0x9d001430 _image_header_info

.app_excpt      0x9d000180       0x10
 *(.gen_handler)
 .gen_handler   0x9d000180       0x10 /tmp/cc86yoVA.o

.vector_0       0x9d000200       0x14
                0x9d000200                _new_vector_0 = .
 *(.vector_new_0)
 .vector_new_0  0x9d000200       0x14 cores/core_no_main.a(vector_table.S.o)
                0x9d000200                __vector_0
                0x9d000214                _original_vector_0 = .
 *(.vector_0)
                0x00000001                ASSERT (((_vector_spacing == 0x0) || (SIZEOF (.vector_0) <= (_vector_spacing << 0x5))), function at exception vector 0 too large)

.vector_1       0x9d000220       0x14
 *(.vector_new_1)
 .vector_new_1  0x9d000220       0x14 cores/core_no_main.a(vector_table.S.o)
                0x9d000220                __vector_1
 *(.vector_1)
                0x00000001                ASSERT (((_vector_spacing == 0x0) || (SIZEOF (.vector_1) <= (_vector_spacing << 0x5))), function at exception vector 1 too large)

.vector_2       0x9d000240       0x14
 *(.vector_new_2)
 .vector_new_2  0x9d000240       0x14 cores/core_no_main.a(vector_table.S.o)
                0x9d000240                __vector_2
 *(.vector_2)
                0x00000001                ASSERT (((_vector_spacing == 0x0) || (SIZEOF (.vector_2) <= (_vector_spacing << 0x5))), function at exception vector 2 too large)

.vector_3       0x9d000260       0x14
 *(.vector_new_3)
 .vector_new_3  0x9d000260       0x14 cores/core_no_main.a(vector_table.S.o)
                0x9d000260                __vector_3
 *(.vector_3)
                0x00000001                ASSERT (((_vector_spacing == 0x0) || (SIZEOF (.vector_3) <= (_vector_spacing << 0x5))), function at exception vector 3 too large)

.vector_4       0x9d000280       0x14
 *(.vector_new_4)
 .vector_new_4  0x9d000280       0x14 cores/core_no_main.a(vector_table.S.o)
                0x9d000280                __vector_4
 *(.vector_4)
                0x00000001                ASSERT (((_vector_spacing == 0x0) || (SIZEOF (.vector_4) <= (_vector_spacing << 0x5))), function at exception vector 4 too large)

.vector_5       0x9d0002a0       0x14
 *(.vector_new_5)
 .vector_new_5  0x9d0002a0       0x14 cores/core_no_main.a(vector_table.S.o)
                0x9d0002a0                __vector_5
 *(.vector_5)
                0x00000001                ASSERT (((_vector_spacing == 0x0) || (SIZEOF (.vector_5) <= (_vector_spacing << 0x5))), function at exception vector 5 too large)

.vector_6       0x9d0002c0       0x14
 *(.vector_new_6)
 .vector_new_6  0x9d0002c0       0x14 cores/core_no_main.a(vector_table.S.o)
                0x9d0002c0                __vector_6
 *(.vector_6)
                0x00000001                ASSERT (((_vector_spacing == 0x0) || (SIZEOF (.vector_6) <= (_vector_spacing << 0x5))), function at exception vector 6 too large)

.vector_7       0x9d0002e0       0x14
 *(.vector_new_7)
 .vector_new_7  0x9d0002e0       0x14 cores/core_no_main.a(vector_table.S.o)
                0x9d0002e0                __vector_7
 *(.vector_7)
                0x00000001                ASSERT (((_vector_spacing == 0x0) || (SIZEOF (.vector_7) <= (_vector_spacing << 0x5))), function at exception vector 7 too large)

.vector_8       0x9d000300       0x14
 *(.vector_new_8)
 .vector_new_8  0x9d000300       0x14 cores/core_no_main.a(vector_table.S.o)
                0x9d000300                __vector_8
 *(.vector_8)
                0x00000001                ASSERT (((_vector_spacing == 0x0) || (SIZEOF (.vector_8) <= (_vector_spacing << 0x5))), function at exception vector 8 too large)

.vector_9       0x9d000320       0x14
 *(.vector_new_9)
 .vector_new_9  0x9d000320       0x14 cores/core_no_main.a(vector_table.S.o)
                0x9d000320                __vector_9
 *(.vector_9)
                0x00000001                ASSERT (((_vector_spacing == 0x0) || (SIZEOF (.vector_9) <= (_vector_spacing << 0x5))), function at exception vector 9 too large)

.vector_10      0x9d000340       0x14
 *(.vector_new_10)
 .vector_new_10
                0x9d000340       0x14 cores/core_no_main.a(vector_table.S.o)
                0x9d000340                __vector_10
 *(.vector_10)
                0x00000001                ASSERT (((_vector_spacing == 0x0) || (SIZEOF (.vector_10) <= (_vector_spacing << 0x5))), function at exception vector 10 too large)

.vector_11      0x9d000360       0x14
 *(.vector_new_11)
 .vector_new_11
                0x9d000360       0x14 cores/core_no_main.a(vector_table.S.o)
                0x9d000360                __vector_11
 *(.vector_11)
                0x00000001                ASSERT (((_vector_spacing == 0x0) || (SIZEOF (.vector_11) <= (_vector_spacing << 0x5))), function at exception vector 11 too large)

.vector_12      0x9d000380       0x14
 *(.vector_new_12)
 .vector_new_12
                0x9d000380       0x14 cores/core_no_main.a(vector_table.S.o)
                0x9d000380                __vector_12
 *(.vector_12)
                0x00000001                ASSERT (((_vector_spacing == 0x0) || (SIZEOF (.vector_12) <= (_vector_spacing << 0x5))), function at exception vector 12 too large)

.vector_13      0x9d0003a0       0x14
 *(.vector_new_13)
 .vector_new_13
                0x9d0003a0       0x14 cores/core_no_main.a(vector_table.S.o)
                0x9d0003a0                __vector_13
 *(.vector_13)
                0x00000001                ASSERT (((_vector_spacing == 0x0) || (SIZEOF (.vector_13) <= (_vector_spacing << 0x5))), function at exception vector 13 too large)

.vector_14      0x9d0003c0       0x14
 *(.vector_new_14)
 .vector_new_14
                0x9d0003c0       0x14 cores/core_no_main.a(vector_table.S.o)
                0x9d0003c0                __vector_14
 *(.vector_14)
                0x00000001                ASSERT (((_vector_spacing == 0x0) || (SIZEOF (.vector_14) <= (_vector_spacing << 0x5))), function at exception vector 14 too large)

.vector_15      0x9d0003e0       0x14
 *(.vector_new_15)
 .vector_new_15
                0x9d0003e0       0x14 cores/core_no_main.a(vector_table.S.o)
                0x9d0003e0                __vector_15
 *(.vector_15)
                0x00000001                ASSERT (((_vector_spacing == 0x0) || (SIZEOF (.vector_15) <= (_vector_spacing << 0x5))), function at exception vector 15 too large)

.vector_16      0x9d000400       0x14
 *(.vector_new_16)
 .vector_new_16
                0x9d000400       0x14 cores/core_no_main.a(vector_table.S.o)
                0x9d000400                __vector_16
 *(.vector_16)
                0x00000001                ASSERT (((_vector_spacing == 0x0) || (SIZEOF (.vector_16) <= (_vector_spacing << 0x5))), function at exception vector 16 too large)

.vector_17      0x9d000420       0x14
 *(.vector_new_17)
 .vector_new_17
                0x9d000420       0x14 cores/core_no_main.a(vector_table.S.o)
                0x9d000420                __vector_17
 *(.vector_17)
                0x00000001                ASSERT (((_vector_spacing == 0x0) || (SIZEOF (.vector_17) <= (_vector_spacing << 0x5))), function at exception vector 17 too large)

.vector_18      0x9d000440       0x14
 *(.vector_new_18)
 .vector_new_18
                0x9d000440       0x14 cores/core_no_main.a(vector_table.S.o)
                0x9d000440                __vector_18
 *(.vector_18)
                0x00000001                ASSERT (((_vector_spacing == 0x0) || (SIZEOF (.vector_18) <= (_vector_spacing << 0x5))), function at exception vector 18 too large)

.vector_19      0x9d000460       0x14
 *(.vector_new_19)
 .vector_new_19
                0x9d000460       0x14 cores/core_no_main.a(vector_table.S.o)
                0x9d000460                __vector_19
 *(.vector_19)
                0x00000001                ASSERT (((_vector_spacing == 0x0) || (SIZEOF (.vector_19) <= (_vector_spacing << 0x5))), function at exception vector 19 too large)

.vector_20      0x9d000480       0x14
 *(.vector_new_20)
 .vector_new_20
                0x9d000480       0x14 cores/core_no_main.a(vector_table.S.o)
                0x9d000480                __vector_20
 *(.vector_20)
                0x00000001                ASSERT (((_vector_spacing == 0x0) || (SIZEOF (.vector_20) <= (_vector_spacing << 0x5))), function at exception vector 20 too large)

.vector_21      0x9d0004a0       0x14
 *(.vector_new_21)
 .vector_new_21
                0x9d0004a0       0x14 cores/core_no_main.a(vector_table.S.o)
                0x9d0004a0                __vector_21
 *(.vector_21)
                0x00000001                ASSERT (((_vector_spacing == 0x0) || (SIZEOF (.vector_21) <= (_vector_spacing << 0x5))), function at exception vector 21 too large)

.vector_22      0x9d0004c0       0x14
 *(.vector_new_22)
 .vector_new_22
                0x9d0004c0       0x14 cores/core_no_main.a(vector_table.S.o)
                0x9d0004c0                __vector_22
 *(.vector_22)
                0x00000001                ASSERT (((_vector_spacing == 0x0) || (SIZEOF (.vector_22) <= (_vector_spacing << 0x5))), function at exception vector 22 too large)

.vector_23      0x9d0004e0       0x14
 *(.vector_new_23)
 .vector_new_23
                0x9d0004e0       0x14 cores/core_no_main.a(vector_table.S.o)
                0x9d0004e0                __vector_23
 *(.vector_23)
                0x00000001                ASSERT (((_vector_spacing == 0x0) || (SIZEOF (.vector_23) <= (_vector_spacing << 0x5))), function at exception vector 23 too large)

.vector_24      0x9d000500       0x14
 *(.vector_new_24)
 .vector_new_24
                0x9d000500       0x14 cores/core_no_main.a(vector_table.S.o)
                0x9d000500                __vector_24
 *(.vector_24)
                0x00000001                ASSERT (((_vector_spacing == 0x0) || (SIZEOF (.vector_24) <= (_vector_spacing << 0x5))), function at exception vector 24 too large)

.vector_25      0x9d000520       0x14
 *(.vector_new_25)
 .vector_new_25
                0x9d000520       0x14 cores/core_no_main.a(vector_table.S.o)
                0x9d000520                __vector_25
 *(.vector_25)
                0x00000001                ASSERT (((_vector_spacing == 0x0) || (SIZEOF (.vector_25) <= (_vector_spacing << 0x5))), function at exception vector 25 too large)

.vector_26      0x9d000540       0x14
 *(.vector_new_26)
 .vector_new_26
                0x9d000540       0x14 cores/core_no_main.a(vector_table.S.o)
                0x9d000540                __vector_26
 *(.vector_26)
                0x00000001                ASSERT (((_vector_spacing == 0x0) || (SIZEOF (.vector_26) <= (_vector_spacing << 0x5))), function at exception vector 26 too large)

.vector_27      0x9d000560       0x14
 *(.vector_new_27)
 .vector_new_27
                0x9d000560       0x14 cores/core_no_main.a(vector_table.S.o)
                0x9d000560                __vector_27
 *(.vector_27)
                0x00000001                ASSERT (((_vector_spacing == 0x0) || (SIZEOF (.vector_27) <= (_vector_spacing << 0x5))), function at exception vector 27 too large)

.vector_28      0x9d000580       0x14
 *(.vector_new_28)
 .vector_new_28
                0x9d000580       0x14 cores/core_no_main.a(vector_table.S.o)
                0x9d000580                __vector_28
 *(.vector_28)
                0x00000001                ASSERT (((_vector_spacing == 0x0) || (SIZEOF (.vector_28) <= (_vector_spacing << 0x5))), function at exception vector 28 too large)

.vector_29      0x9d0005a0       0x14
 *(.vector_new_29)
 .vector_new_29
                0x9d0005a0       0x14 cores/core_no_main.a(vector_table.S.o)
                0x9d0005a0                __vector_29
 *(.vector_29)
                0x00000001                ASSERT (((_vector_spacing == 0x0) || (SIZEOF (.vector_29) <= (_vector_spacing << 0x5))), function at exception vector 29 too large)

.vector_30      0x9d0005c0       0x14
 *(.vector_new_30)
 .vector_new_30
                0x9d0005c0       0x14 cores/core_no_main.a(vector_table.S.o)
                0x9d0005c0                __vector_30
 *(.vector_30)
                0x00000001                ASSERT (((_vector_spacing == 0x0) || (SIZEOF (.vector_30) <= (_vector_spacing << 0x5))), function at exception vector 30 too large)

.vector_31      0x9d0005e0       0x14
 *(.vector_new_31)
 .vector_new_31
                0x9d0005e0       0x14 cores/core_no_main.a(vector_table.S.o)
                0x9d0005e0                __vector_31
 *(.vector_31)
                0x00000001                ASSERT (((_vector_spacing == 0x0) || (SIZEOF (.vector_31) <= (_vector_spacing << 0x5))), function at exception vector 31 too large)

.vector_32      0x9d000600       0x14
 *(.vector_new_32)
 .vector_new_32
                0x9d000600       0x14 cores/core_no_main.a(vector_table.S.o)
                0x9d000600                __vector_32
 *(.vector_32)
                0x00000001                ASSERT (((_vector_spacing == 0x0) || (SIZEOF (.vector_32) <= (_vector_spacing << 0x5))), function at exception vector 32 too large)

.vector_33      0x9d000620       0x14
 *(.vector_new_33)
 .vector_new_33
                0x9d000620       0x14 cores/core_no_main.a(vector_table.S.o)
                0x9d000620                __vector_33
 *(.vector_33)
                0x00000001                ASSERT (((_vector_spacing == 0x0) || (SIZEOF (.vector_33) <= (_vector_spacing << 0x5))), function at exception vector 33 too large)

.vector_34      0x9d000640       0x14
 *(.vector_new_34)
 .vector_new_34
                0x9d000640       0x14 cores/core_no_main.a(vector_table.S.o)
                0x9d000640                __vector_34
 *(.vector_34)
                0x00000001                ASSERT (((_vector_spacing == 0x0) || (SIZEOF (.vector_34) <= (_vector_spacing << 0x5))), function at exception vector 34 too large)

.vector_35      0x9d000660       0x14
 *(.vector_new_35)
 .vector_new_35
                0x9d000660       0x14 cores/core_no_main.a(vector_table.S.o)
                0x9d000660                __vector_35
 *(.vector_35)
                0x00000001                ASSERT (((_vector_spacing == 0x0) || (SIZEOF (.vector_35) <= (_vector_spacing << 0x5))), function at exception vector 35 too large)

.vector_36      0x9d000680       0x14
 *(.vector_new_36)
 .vector_new_36
                0x9d000680       0x14 cores/core_no_main.a(vector_table.S.o)
                0x9d000680                __vector_36
 *(.vector_36)
                0x00000001                ASSERT (((_vector_spacing == 0x0) || (SIZEOF (.vector_36) <= (_vector_spacing << 0x5))), function at exception vector 36 too large)

.vector_37      0x9d0006a0       0x14
 *(.vector_new_37)
 .vector_new_37
                0x9d0006a0       0x14 cores/core_no_main.a(vector_table.S.o)
                0x9d0006a0                __vector_37
 *(.vector_37)
                0x00000001                ASSERT (((_vector_spacing == 0x0) || (SIZEOF (.vector_37) <= (_vector_spacing << 0x5))), function at exception vector 37 too large)

.vector_38      0x9d0006c0       0x14
 *(.vector_new_38)
 .vector_new_38
                0x9d0006c0       0x14 cores/core_no_main.a(vector_table.S.o)
                0x9d0006c0                __vector_38
 *(.vector_38)
                0x00000001                ASSERT (((_vector_spacing == 0x0) || (SIZEOF (.vector_38) <= (_vector_spacing << 0x5))), function at exception vector 38 too large)

.vector_39      0x9d0006e0       0x14
 *(.vector_new_39)
 .vector_new_39
                0x9d0006e0       0x14 cores/core_no_main.a(vector_table.S.o)
                0x9d0006e0                __vector_39
 *(.vector_39)
                0x00000001                ASSERT (((_vector_spacing == 0x0) || (SIZEOF (.vector_39) <= (_vector_spacing << 0x5))), function at exception vector 39 too large)

.vector_40      0x9d000700       0x14
 *(.vector_new_40)
 .vector_new_40
                0x9d000700       0x14 cores/core_no_main.a(vector_table.S.o)
                0x9d000700                __vector_40
 *(.vector_40)
                0x00000001                ASSERT (((_vector_spacing == 0x0) || (SIZEOF (.vector_40) <= (_vector_spacing << 0x5))), function at exception vector 40 too large)

.vector_41      0x9d000720       0x14
 *(.vector_new_41)
 .vector_new_41
                0x9d000720       0x14 cores/core_no_main.a(vector_table.S.o)
                0x9d000720                __vector_41
 *(.vector_41)
                0x00000001                ASSERT (((_vector_spacing == 0x0) || (SIZEOF (.vector_41) <= (_vector_spacing << 0x5))), function at exception vector 41 too large)

.vector_42      0x9d000740       0x14
 *(.vector_new_42)
 .vector_new_42
                0x9d000740       0x14 cores/core_no_main.a(vector_table.S.o)
                0x9d000740                __vector_42
 *(.vector_42)
                0x00000001                ASSERT (((_vector_spacing == 0x0) || (SIZEOF (.vector_42) <= (_vector_spacing << 0x5))), function at exception vector 42 too large)

.vector_43      0x9d000760       0x14
 *(.vector_new_43)
 .vector_new_43
                0x9d000760       0x14 cores/core_no_main.a(vector_table.S.o)
                0x9d000760                __vector_43
 *(.vector_43)
                0x00000001                ASSERT (((_vector_spacing == 0x0) || (SIZEOF (.vector_43) <= (_vector_spacing << 0x5))), function at exception vector 43 too large)

.vector_44      0x9d000780       0x14
 *(.vector_new_44)
 .vector_new_44
                0x9d000780       0x14 cores/core_no_main.a(vector_table.S.o)
                0x9d000780                __vector_44
 *(.vector_44)
                0x00000001                ASSERT (((_vector_spacing == 0x0) || (SIZEOF (.vector_44) <= (_vector_spacing << 0x5))), function at exception vector 44 too large)

.vector_45      0x9d0007a0       0x14
 *(.vector_new_45)
 .vector_new_45
                0x9d0007a0       0x14 cores/core_no_main.a(vector_table.S.o)
                0x9d0007a0                __vector_45
 *(.vector_45)
                0x00000001                ASSERT (((_vector_spacing == 0x0) || (SIZEOF (.vector_45) <= (_vector_spacing << 0x5))), function at exception vector 45 too large)

.vector_46      0x9d0007c0       0x14
 *(.vector_new_46)
 .vector_new_46
                0x9d0007c0       0x14 cores/core_no_main.a(vector_table.S.o)
                0x9d0007c0                __vector_46
 *(.vector_46)
                0x00000001                ASSERT (((_vector_spacing == 0x0) || (SIZEOF (.vector_46) <= (_vector_spacing << 0x5))), function at exception vector 46 too large)

.vector_47      0x9d0007e0       0x14
 *(.vector_new_47)
 .vector_new_47
                0x9d0007e0       0x14 cores/core_no_main.a(vector_table.S.o)
                0x9d0007e0                __vector_47
 *(.vector_47)
                0x00000001                ASSERT (((_vector_spacing == 0x0) || (SIZEOF (.vector_47) <= (_vector_spacing << 0x5))), function at exception vector 47 too large)

.vector_48      0x9d000800       0x14
 *(.vector_new_48)
 .vector_new_48
                0x9d000800       0x14 cores/core_no_main.a(vector_table.S.o)
                0x9d000800                __vector_48
 *(.vector_48)
                0x00000001                ASSERT (((_vector_spacing == 0x0) || (SIZEOF (.vector_48) <= (_vector_spacing << 0x5))), function at exception vector 48 too large)

.vector_49      0x9d000820       0x14
 *(.vector_new_49)
 .vector_new_49
                0x9d000820       0x14 cores/core_no_main.a(vector_table.S.o)
                0x9d000820                __vector_49
 *(.vector_49)
                0x00000001                ASSERT (((_vector_spacing == 0x0) || (SIZEOF (.vector_49) <= (_vector_spacing << 0x5))), function at exception vector 49 too large)

.vector_50      0x9d000840       0x14
 *(.vector_new_50)
 .vector_new_50
                0x9d000840       0x14 cores/core_no_main.a(vector_table.S.o)
                0x9d000840                __vector_50
 *(.vector_50)
                0x00000001                ASSERT (((_vector_spacing == 0x0) || (SIZEOF (.vector_50) <= (_vector_spacing << 0x5))), function at exception vector 50 too large)

.vector_51      0x9d000860       0x14
 *(.vector_new_51)
 .vector_new_51
                0x9d000860       0x14 cores/core_no_main.a(vector_table.S.o)
                0x9d000860                __vector_51
 *(.vector_51)
                0x00000001                ASSERT (((_vector_spacing == 0x0) || (SIZEOF (.vector_51) <= (_vector_spacing << 0x5))), function at exception vector 51 too large)

.vector_52      0x9d000880       0x14
 *(.vector_new_52)
 .vector_new_52
                0x9d000880       0x14 cores/core_no_main.a(vector_table.S.o)
                0x9d000880                __vector_52
 *(.vector_52)
                0x00000001                ASSERT (((_vector_spacing == 0x0) || (SIZEOF (.vector_52) <= (_vector_spacing << 0x5))), function at exception vector 52 too large)

.vector_53      0x9d0008a0       0x14
 *(.vector_new_53)
 .vector_new_53
                0x9d0008a0       0x14 cores/core_no_main.a(vector_table.S.o)
                0x9d0008a0                __vector_53
 *(.vector_53)
                0x00000001                ASSERT (((_vector_spacing == 0x0) || (SIZEOF (.vector_53) <= (_vector_spacing << 0x5))), function at exception vector 53 too large)

.vector_54      0x9d0008c0       0x14
 *(.vector_new_54)
 .vector_new_54
                0x9d0008c0       0x14 cores/core_no_main.a(vector_table.S.o)
                0x9d0008c0                __vector_54
 *(.vector_54)
                0x00000001                ASSERT (((_vector_spacing == 0x0) || (SIZEOF (.vector_54) <= (_vector_spacing << 0x5))), function at exception vector 54 too large)

.vector_55      0x9d0008e0       0x14
 *(.vector_new_55)
 .vector_new_55
                0x9d0008e0       0x14 cores/core_no_main.a(vector_table.S.o)
                0x9d0008e0                __vector_55
 *(.vector_55)
                0x00000001                ASSERT (((_vector_spacing == 0x0) || (SIZEOF (.vector_55) <= (_vector_spacing << 0x5))), function at exception vector 55 too large)

.vector_56      0x9d000900       0x14
 *(.vector_new_56)
 .vector_new_56
                0x9d000900       0x14 cores/core_no_main.a(vector_table.S.o)
                0x9d000900                __vector_56
 *(.vector_56)
                0x00000001                ASSERT (((_vector_spacing == 0x0) || (SIZEOF (.vector_56) <= (_vector_spacing << 0x5))), function at exception vector 56 too large)

.vector_57      0x9d000920       0x14
 *(.vector_new_57)
 .vector_new_57
                0x9d000920       0x14 cores/core_no_main.a(vector_table.S.o)
                0x9d000920                __vector_57
 *(.vector_57)
                0x00000001                ASSERT (((_vector_spacing == 0x0) || (SIZEOF (.vector_57) <= (_vector_spacing << 0x5))), function at exception vector 57 too large)

.vector_58      0x9d000940       0x14
 *(.vector_new_58)
 .vector_new_58
                0x9d000940       0x14 cores/core_no_main.a(vector_table.S.o)
                0x9d000940                __vector_58
 *(.vector_58)
                0x00000001                ASSERT (((_vector_spacing == 0x0) || (SIZEOF (.vector_58) <= (_vector_spacing << 0x5))), function at exception vector 58 too large)

.vector_59      0x9d000960       0x14
 *(.vector_new_59)
 .vector_new_59
                0x9d000960       0x14 cores/core_no_main.a(vector_table.S.o)
                0x9d000960                __vector_59
 *(.vector_59)
                0x00000001                ASSERT (((_vector_spacing == 0x0) || (SIZEOF (.vector_59) <= (_vector_spacing << 0x5))), function at exception vector 59 too large)

.vector_60      0x9d000980       0x14
 *(.vector_new_60)
 .vector_new_60
                0x9d000980       0x14 cores/core_no_main.a(vector_table.S.o)
                0x9d000980                __vector_60
 *(.vector_60)
                0x00000001                ASSERT (((_vector_spacing == 0x0) || (SIZEOF (.vector_60) <= (_vector_spacing << 0x5))), function at exception vector 60 too large)

.vector_61      0x9d0009a0       0x14
 *(.vector_new_61)
 .vector_new_61
                0x9d0009a0       0x14 cores/core_no_main.a(vector_table.S.o)
                0x9d0009a0                __vector_61
 *(.vector_61)
                0x00000001                ASSERT (((_vector_spacing == 0x0) || (SIZEOF (.vector_61) <= (_vector_spacing << 0x5))), function at exception vector 61 too large)

.vector_62      0x9d0009c0       0x14
 *(.vector_new_62)
 .vector_new_62
                0x9d0009c0       0x14 cores/core_no_main.a(vector_table.S.o)
                0x9d0009c0                __vector_62
 *(.vector_62)
                0x00000001                ASSERT (((_vector_spacing == 0x0) || (SIZEOF (.vector_62) <= (_vector_spacing << 0x5))), function at exception vector 62 too large)

.vector_63      0x9d0009e0       0x14
 *(.vector_new_63)
 .vector_new_63
                0x9d0009e0       0x14 cores/core_no_main.a(vector_table.S.o)
                0x9d0009e0                __vector_63
 *(.vector_63)
                0x00000001                ASSERT (((_vector_spacing == 0x0) || (SIZEOF (.vector_63) <= (_vector_spacing << 0x5))), function at exception vector 63 too large)

.startup        0x9d001008      0x200
 *(.startup)
 .startup       0x9d001008      0x200 /tmp/cc86yoVA.o

.text           0x9d001208      0x1bc
                0x9d001208                _text_begin = .
 *(.stub .gnu.linkonce.t.*)
 .gnu.linkonce.t._ZN9USBDriver10setManagerEP10USBManager
                0x9d001208        0x8 cores/core_no_main.a(USB.cpp.o)
                0x9d001208                USBDriver::setManager(USBManager*)
 .gnu.linkonce.t._ZN6CDCACM19getReportDescriptorEhhhh
                0x9d001210        0x8 cores/core_no_main.a(USB_CDCACM.cpp.o)
                0x9d001210                CDCACM::getReportDescriptor(unsigned char, unsigned char, unsigned char, unsigned char)
 .gnu.linkonce.t._ZN6CDCACM19getStringDescriptorEht
                0x9d001218        0x8 cores/core_no_main.a(USB_CDCACM.cpp.o)
                0x9d001218                CDCACM::getStringDescriptor(unsigned char, unsigned short)
 .gnu.linkonce.t._ZN5USBFS11isHighSpeedEv
                0x9d001220        0x8 cores/core_no_main.a(USB_FS.cpp.o)
                0x9d001220                USBFS::isHighSpeed()
 .gnu.linkonce.t._ZN5USBFS12haltEndpointEh
                0x9d001228        0x8 cores/core_no_main.a(USB_FS.cpp.o)
                0x9d001228                USBFS::haltEndpoint(unsigned char)
 .gnu.linkonce.t._ZN5USBFS14resumeEndpointEh
                0x9d001230        0x8 cores/core_no_main.a(USB_FS.cpp.o)
                0x9d001230                USBFS::resumeEndpoint(unsigned char)
 .gnu.linkonce.t._ZN5USBFS13_usbInterruptEv
                0x9d001238      0x138 cores/core_no_main.a(USB_FS.cpp.o)
                0x9d001238                USBFS::_usbInterrupt()
 .gnu.linkonce.t._ZNK10__cxxabiv117__class_type_info17__find_public_srcElPKvPKS0_S2_
                0x9d001370       0x54 /home/ishyro/.arduino15/packages/chipKIT/tools/pic32-tools/1.43-pic32gcc/bin/bin/../../lib/gcc/pic32mx/4.8.3/../../../../pic32mx/lib/size/libsupc++.a(vmi_class_type_info.o)
                0x9d001370                __cxxabiv1::__class_type_info::__find_public_src(long, void const*, __cxxabiv1::__class_type_info const*, void const*) const
 *(.text.*personality*)
 *(.mips16.fn.*)
 *(.mips16.call.*)
 *(.gnu.warning)
                0x9d0013c4                . = ALIGN (0x4)

.init           0x9d0013c4       0x30
 *crti.o(.init)
 *crtbegin.o(.init)
 .init          0x9d0013c4        0x8 /home/ishyro/.arduino15/packages/chipKIT/tools/pic32-tools/1.43-pic32gcc/bin/bin/../../lib/gcc/pic32mx/4.8.3/size/crtbegin.o
 *(EXCLUDE_FILE(*crtn.o *crtend?.o *crtend.o) .init)
 .init          0x9d0013cc        0xc /tmp/ccV8lcgl.o
 .init          0x9d0013d8        0x8 /tmp/ccIZmcRI.o
                0x9d0013d8                _init
 *crtend.o(.init)
 .init          0x9d0013e0        0x8 /home/ishyro/.arduino15/packages/chipKIT/tools/pic32-tools/1.43-pic32gcc/bin/bin/../../lib/gcc/pic32mx/4.8.3/size/crtend.o
 *crtn.o(.init)
 .init          0x9d0013e8        0xc /home/ishyro/.arduino15/packages/chipKIT/tools/pic32-tools/1.43-pic32gcc/bin/bin/../../lib/gcc/pic32mx/4.8.3/size/crtn.o
                0x9d0013f4                . = ALIGN (0x4)

.fini           0x9d0013f4       0x28
 *(.fini)
 .fini          0x9d0013f4        0xc /tmp/ccV8lcgl.o
 .fini          0x9d001400        0x8 /tmp/ccIZmcRI.o
                0x9d001400                _fini
 .fini          0x9d001408        0x8 /home/ishyro/.arduino15/packages/chipKIT/tools/pic32-tools/1.43-pic32gcc/bin/bin/../../lib/gcc/pic32mx/4.8.3/size/crtbegin.o
 .fini          0x9d001410        0xc /home/ishyro/.arduino15/packages/chipKIT/tools/pic32-tools/1.43-pic32gcc/bin/bin/../../lib/gcc/pic32mx/4.8.3/size/crtn.o
                0x9d00141c                . = ALIGN (0x4)

.preinit_array  0x9d00141c        0x0
                0x9d00141c                PROVIDE (__preinit_array_start, .)
 *(.preinit_array)
                0x9d00141c                . = ALIGN (0x4)
                0x9d00141c                PROVIDE (__preinit_array_end, .)
 *(.preinit_array)
                0x9d00141c                . = ALIGN (0x4)

.init_array     0x9d00141c        0x0
                0x9d00141c                PROVIDE (__init_array_start, .)
 *(SORT(.init_array.*))
 *(.init_array)
                0x9d00141c                . = ALIGN (0x4)
                0x9d00141c                PROVIDE (__init_array_end, .)

.fini_array     0x9d00141c        0x0
                0x9d00141c                PROVIDE (__fini_array_start, .)
 *(SORT(.fini_array.*))
 *(.fini_array)
                0x9d00141c                . = ALIGN (0x4)
                0x9d00141c                PROVIDE (__fini_array_end, .)

.ctors          0x9d00141c        0xc
 *crtbegin.o(.ctors)
 .ctors         0x9d00141c        0x4 /home/ishyro/.arduino15/packages/chipKIT/tools/pic32-tools/1.43-pic32gcc/bin/bin/../../lib/gcc/pic32mx/4.8.3/size/crtbegin.o
 *crtbegin?.o(.ctors)
 *(EXCLUDE_FILE(*crtend?.o *crtend.o) .ctors)
 .ctors         0x9d001420        0x4 cores/core_no_main.a(USB.cpp.o)
 *(SORT(.ctors.*))
 *(.ctors)
 .ctors         0x9d001424        0x4 /home/ishyro/.arduino15/packages/chipKIT/tools/pic32-tools/1.43-pic32gcc/bin/bin/../../lib/gcc/pic32mx/4.8.3/size/crtend.o
                0x9d001428                . = ALIGN (0x4)

.dtors          0x9d001428        0x8
 *crtbegin.o(.dtors)
 .dtors         0x9d001428        0x4 /home/ishyro/.arduino15/packages/chipKIT/tools/pic32-tools/1.43-pic32gcc/bin/bin/../../lib/gcc/pic32mx/4.8.3/size/crtbegin.o
 *crtbegin?.o(.dtors)
 *(EXCLUDE_FILE(*crtend?.o *crtend.o) .dtors)
 *(SORT(.dtors.*))
 *(.dtors)
 .dtors         0x9d00142c        0x4 /home/ishyro/.arduino15/packages/chipKIT/tools/pic32-tools/1.43-pic32gcc/bin/bin/../../lib/gcc/pic32mx/4.8.3/size/crtend.o
                0x9d00142c                __DTOR_END__
                0x9d001430                . = ALIGN (0x4)

.header_info    0x9d001430       0x4c
                0x9d001430                _image_header_info = .
                0x9d001430        0x4 LONG 0x4c SIZEOF (.header_info)
                0x9d001434        0x4 LONG 0xffffffff
 *(.mpide_version *.mpide_version.*)
 .mpide_version._verMPIDE_Stub
                0x9d001438        0x4 cores/core_no_main.a(wiring.c.o)
                0x9d001438                _verMPIDE_Stub
                0x9d00143c        0x4 LONG 0xffffffff
                0x9d001440        0x4 LONG 0xffffffff
                0x9d001444        0x4 LONG 0x1020001 _IMAGE_TYPE
                0x9d001448        0x4 LONG 0x9d001000 _JUMP_ADDR
                0x9d00144c        0x4 LONG 0x9d000000 _ebase_address
                0x9d001450        0x4 LONG 0x1e000 _IMAGE_FLASH_SIZE
                0x9d001454        0x4 LONG 0x9d01e000 ORIGIN (kseg0_eeprom_mem)
                0x9d001458        0x4 LONG 0x1000
                0x9d00145c        0x4 LONG 0xbfc00bf0 ORIGIN (configsfrs)
                0x9d001460        0x4 LONG 0x10
                0x9d001464        0x4 LONG 0xa0000200 _ram_header_addr
                0x9d001468        0x4 LONG 0x8 SIZEOF (.ram_exchange_data)
                0x9d00146c        0x4 LONG 0xffffffff
                0x9d001470        0x4 LONG 0x9d000214 _original_vector_0
                0x9d001474        0x4 LONG 0x9d000200 _new_vector_0
                0x9d001478        0x4 LONG 0x20 (_vector_spacing << 0x5)
                0x9d00147c                _image_header_info_end = .

.rodata         0x9d00147c      0x1f4
 *(.gnu.linkonce.r.*)
 .gnu.linkonce.r._ZTI6Stream._ZTI6Stream
                0x9d00147c        0xc cores/core_no_main.a(USB_CDCACM.cpp.o)
                0x9d00147c                typeinfo for Stream
 .gnu.linkonce.r._ZTS6Stream._ZTS6Stream
                0x9d001488        0x8 cores/core_no_main.a(USB_CDCACM.cpp.o)
                0x9d001488                typeinfo name for Stream
 .gnu.linkonce.r._ZTI9USBDevice._ZTI9USBDevice
                0x9d001490        0x8 cores/core_no_main.a(USB_CDCACM.cpp.o)
                0x9d001490                typeinfo for USBDevice
 .gnu.linkonce.r._ZTS9USBDevice._ZTS9USBDevice
                0x9d001498        0xc cores/core_no_main.a(USB_CDCACM.cpp.o)
                0x9d001498                typeinfo name for USBDevice
 .gnu.linkonce.r._ZTS6CDCACM._ZTS6CDCACM
                0x9d0014a4        0x8 cores/core_no_main.a(USB_CDCACM.cpp.o)
                0x9d0014a4                typeinfo name for CDCACM
 .gnu.linkonce.r._ZTI6CDCACM._ZTI6CDCACM
                0x9d0014ac       0x20 cores/core_no_main.a(USB_CDCACM.cpp.o)
                0x9d0014ac                typeinfo for CDCACM
 *fill*         0x9d0014cc        0x4 
 .gnu.linkonce.r._ZTV6CDCACM._ZTV6CDCACM
                0x9d0014d0       0x78 cores/core_no_main.a(USB_CDCACM.cpp.o)
                0x9d0014d0                vtable for CDCACM
 .gnu.linkonce.r._ZTI9USBDriver._ZTI9USBDriver
                0x9d001548        0x8 cores/core_no_main.a(USB_FS.cpp.o)
                0x9d001548                typeinfo for USBDriver
 .gnu.linkonce.r._ZTS9USBDriver._ZTS9USBDriver
                0x9d001550        0xc cores/core_no_main.a(USB_FS.cpp.o)
                0x9d001550                typeinfo name for USBDriver
 .gnu.linkonce.r._ZTS5USBFS._ZTS5USBFS
                0x9d00155c        0x8 cores/core_no_main.a(USB_FS.cpp.o)
                0x9d00155c                typeinfo name for USBFS
 .gnu.linkonce.r._ZTI5USBFS._ZTI5USBFS
                0x9d001564        0xc cores/core_no_main.a(USB_FS.cpp.o)
                0x9d001564                typeinfo for USBFS
 .gnu.linkonce.r._ZTV5USBFS._ZTV5USBFS
                0x9d001570       0x40 cores/core_no_main.a(USB_FS.cpp.o)
                0x9d001570                vtable for USBFS
 .gnu.linkonce.r._ZTS5Print._ZTS5Print
                0x9d0015b0        0x8 cores/core_no_main.a(Print.cpp.o)
                0x9d0015b0                typeinfo name for Print
 .gnu.linkonce.r._ZTI5Print._ZTI5Print
                0x9d0015b8        0x8 cores/core_no_main.a(Print.cpp.o)
                0x9d0015b8                typeinfo for Print
 .gnu.linkonce.r._ZTVN10__cxxabiv117__class_type_infoE._ZTVN10__cxxabiv117__class_type_infoE
                0x9d0015c0       0x30 /home/ishyro/.arduino15/packages/chipKIT/tools/pic32-tools/1.43-pic32gcc/bin/bin/../../lib/gcc/pic32mx/4.8.3/../../../../pic32mx/lib/size/libsupc++.a(class_type_info.o)
                0x9d0015c0                vtable for __cxxabiv1::__class_type_info
 .gnu.linkonce.r._ZTVN10__cxxabiv120__si_class_type_infoE._ZTVN10__cxxabiv120__si_class_type_infoE
                0x9d0015f0       0x30 /home/ishyro/.arduino15/packages/chipKIT/tools/pic32-tools/1.43-pic32gcc/bin/bin/../../lib/gcc/pic32mx/4.8.3/../../../../pic32mx/lib/size/libsupc++.a(si_class_type_info.o)
                0x9d0015f0                vtable for __cxxabiv1::__si_class_type_info
 .gnu.linkonce.r._ZTVSt9type_info._ZTVSt9type_info
                0x9d001620       0x20 /home/ishyro/.arduino15/packages/chipKIT/tools/pic32-tools/1.43-pic32gcc/bin/bin/../../lib/gcc/pic32mx/4.8.3/../../../../pic32mx/lib/size/libsupc++.a(tinfo.o)
                0x9d001620                vtable for std::type_info
 .gnu.linkonce.r._ZTVN10__cxxabiv121__vmi_class_type_infoE._ZTVN10__cxxabiv121__vmi_class_type_infoE
                0x9d001640       0x30 /home/ishyro/.arduino15/packages/chipKIT/tools/pic32-tools/1.43-pic32gcc/bin/bin/../../lib/gcc/pic32mx/4.8.3/../../../../pic32mx/lib/size/libsupc++.a(vmi_class_type_info.o)
                0x9d001640                vtable for __cxxabiv1::__vmi_class_type_info
 *(.rodata1)
                0x9d001670                . = ALIGN (0x4)

.romdata        0x9d001670        0x0
 *(.romdata .romdata.*)
                0x9d001670                . = ALIGN (0x4)

.sdata2         0x9d001670        0x0
 *(.sdata2 .sdata2.* .gnu.linkonce.s2.*)
                0x9d001670                . = ALIGN (0x4)

.sbss2          0x9d001670        0x0
 *(.sbss2 .sbss2.* .gnu.linkonce.sb2.*)
                0x9d001670                . = ALIGN (0x4)

.dbg_data       0xa0000000      0x200
                0xa0000000                . = (. + DEFINED (_DEBUGGER)?0x200:0x0)
 *fill*         0xa0000000      0x200 

.ram_exchange_data
                0xa0000200        0x8
                0xa0000200                _ram_header_addr = .
                0xa0000208                . = (. + 0x8)
 *fill*         0xa0000200        0x8 

.persist        0xa0000208        0x0
                0xa0000208                _persist_begin = .
 *(.persist .persist.*)
                0xa0000208                . = ALIGN (0x4)
                0xa0000208                _persist_end = .
                0x00000001                ASSERT ((_persist_end <= (ORIGIN (kseg1_data_mem) + 0x600)), Bootloader does not preserve debug, RAM Header, or persistent data beyond the first 1.5K)
                0xa0000208                _protected_end = ((_IMAGE_TYPE & ((_imageSplitFlashBootloader | _imageProgramFlashBootloader) | _imageBootFlashBootloader)) != 0x0)?(ORIGIN (kseg1_data_mem) + 0x600):.

.protected_bootloader
                0xa0000000        0x0
                0xa0000000                . = (. + ((_IMAGE_TYPE & ((_imageSplitFlashBootloader | _imageProgramFlashBootloader) | _imageBootFlashBootloader)) != 0x0)?(ORIGIN (kseg1_data_mem) + 0x600):0x0)

.data           0xa0000208        0x0
                0xa0000208                _data_begin = .
 *(.gnu.linkonce.d.*)
 *(.gnu.linkonce.d.*personality*)
 *(.data1)
                0xa0000208                . = ALIGN (0x4)
                0xa0000208                _data_image_begin = LOADADDR (.data)
                0xa0000208                . = .
                0xa0008200                _gp = (ALIGN (0x10) + 0x7ff0)

.got
 *(.got.plt)
 *(.got)

.sdata          0xa0000208       0xd8
                0xa0000208                _sdata_begin = .
 *(.sdata .sdata.* .gnu.linkonce.s.*)
 .sdata.gCoreTimerInfo.gCoreTimerInfo
                0xa0000208       0x18 cores/core_no_main.a(wiring.c.o)
                0xa0000208                gCoreTimerInfo
 .sdata._isr_primary_install._isr_primary_install
                0xa0000220       0xb0 cores/core_no_main.a(WSystem.c.o)
                0xa0000220                _isr_primary_install
 .sdata._pwmPeriod._pwmPeriod
                0xa00002d0        0x4 cores/core_no_main.a(wiring_analog.c.o)
 .sdata._pwmResolution._pwmResolution
                0xa00002d4        0x4 cores/core_no_main.a(wiring_analog.c.o)
 .sdata._pwmFrequency._pwmFrequency
                0xa00002d8        0x4 cores/core_no_main.a(wiring_analog.c.o)
 .sdata         0xa00002dc        0x4 /home/ishyro/.arduino15/packages/chipKIT/tools/pic32-tools/1.43-pic32gcc/bin/bin/../../lib/gcc/pic32mx/4.8.3/size/crtbegin.o
                0xa00002dc                __dso_handle
                0xa00002e0                . = ALIGN (0x4)
                0xa00002e0                _sdata_end = .

.lit8           0xa00002e0        0x0
 *(.lit8)
                0xa00002e0                . = ALIGN (0x4)

.lit4
 *(.lit4)
                0xa00002e0                . = ALIGN (0x4)
                0xa00002e0                _data_end = .
                0xa00002e0                _bss_begin = .

.sbss           0xa00002e0      0x478
                0xa00002e0                _sbss_begin = .
 *(.dynsbss)
 *(.sbss .sbss.* .gnu.linkonce.sb.*)
 .sbss._excep_addr._excep_addr
                0xa00002e0        0x4 cores/core_no_main.a(exceptions.c.o)
 .sbss._epc_code._epc_code
                0xa00002e4        0x4 cores/core_no_main.a(exceptions.c.o)
 .sbss._excep_code._excep_code
                0xa00002e8        0x4 cores/core_no_main.a(exceptions.c.o)
 .sbss.tmsLastEvent.tmsLastEvent
                0xa00002ec        0x4 cores/core_no_main.a(task_manager.c.o)
 .sbss.tmsNextEvent.tmsNextEvent
                0xa00002f0        0x4 cores/core_no_main.a(task_manager.c.o)
 .sbss.cntActiveTask.cntActiveTask
                0xa00002f4        0x4 cores/core_no_main.a(task_manager.c.o)
 .sbss.rgtaskTable.rgtaskTable
                0xa00002f8       0xa0 cores/core_no_main.a(task_manager.c.o)
 .sbss.nextInt.9019.nextInt
                0xa0000398        0x4 cores/core_no_main.a(wiring.c.o)
 .sbss.gLastBaseCount.gLastBaseCount
                0xa000039c        0x4 cores/core_no_main.a(wiring.c.o)
 .sbss.ppsGlobalLock.ppsGlobalLock
                0xa00003a0        0x1 cores/core_no_main.a(wiring.c.o)
                0xa00003a0                ppsGlobalLock
 *fill*         0xa00003a1        0x3 
 .sbss.gSoftPWMServoUpdate.gSoftPWMServoUpdate
                0xa00003a4        0x4 cores/core_no_main.a(wiring.c.o)
                0xa00003a4                gSoftPWMServoUpdate
 .sbss.gMicros_calculating.gMicros_calculating
                0xa00003a8        0x4 cores/core_no_main.a(wiring.c.o)
                0xa00003a8                gMicros_calculating
 .sbss.gCore_timer_first_val.gCore_timer_first_val
                0xa00003ac        0x4 cores/core_no_main.a(wiring.c.o)
                0xa00003ac                gCore_timer_first_val
 .sbss.gMicros_overflows.gMicros_overflows
                0xa00003b0        0x4 cores/core_no_main.a(wiring.c.o)
                0xa00003b0                gMicros_overflows
 .sbss.gCore_timer_micros.gCore_timer_micros
                0xa00003b4        0x4 cores/core_no_main.a(wiring.c.o)
                0xa00003b4                gCore_timer_micros
 .sbss.gCore_timer_last_val.gCore_timer_last_val
                0xa00003b8        0x4 cores/core_no_main.a(wiring.c.o)
                0xa00003b8                gCore_timer_last_val
 .sbss.gTimer0_millis.gTimer0_millis
                0xa00003bc        0x4 cores/core_no_main.a(wiring.c.o)
                0xa00003bc                gTimer0_millis
 .sbss.Serial.Serial
                0xa00003c0      0x34c cores/core_no_main.a(USB.cpp.o)
                0xa00003c0                Serial
 .sbss.USB.USB  0xa000070c       0x38 cores/core_no_main.a(USB.cpp.o)
                0xa000070c                USB
 .sbss._ZN5USBFS5_thisE._this
                0xa0000744        0x4 cores/core_no_main.a(USB_FS.cpp.o)
                0xa0000744                USBFS::_this
 .sbss.pwm_active.pwm_active
                0xa0000748        0x2 cores/core_no_main.a(wiring_analog.c.o)
                0xa0000748                pwm_active
 *fill*         0xa000074a        0x2 
 .sbss.analog_reference.analog_reference
                0xa000074c        0x4 cores/core_no_main.a(wiring_analog.c.o)
                0xa000074c                analog_reference
 *(.scommon)
 .scommon       0xa0000750        0x4 cores/core_no_main.a(wiring.c.o)
                0xa0000750                __PIC32_pbClk
 .scommon       0xa0000754        0x1 cores/core_no_main.a(wiring_analog.c.o)
                0xa0000754                _analogRead_channelNumber
                0xa0000758                . = ALIGN (0x4)
 *fill*         0xa0000755        0x3 
                0xa0000758                _sbss_end = .

.bss            0xa0000758        0x0
 *(.dynbss)
 *(.gnu.linkonce.b.*)
 *(COMMON)
                0xa0000758                . = ALIGN (0x4)
                0xa0000758                . = ALIGN (0x4)
                0xa0000758                _end = .
                0xa0000758                _bss_end = .
                0x00008000                _bmxdudba_address = 0x8000
                0x00008000                _bmxdupba_address = 0x8000

.gcc_compiled_long32
 *(.gcc_compiled_long32)

.gcc_compiled_long64
 *(.gcc_compiled_long64)

.stab
 *(.stab)

.stabstr
 *(.stabstr)

.stab.excl
 *(.stab.excl)

.stab.exclstr
 *(.stab.exclstr)

.stab.index
 *(.stab.index)

.stab.indexstr
 *(.stab.indexstr)

.comment        0x00000000       0x86
 *(.comment)
 .comment       0x00000000       0x3b Board_Data.o
                                 0x3c (size before relaxing)
 .comment       0x00000000       0x3c cores/core_no_main.a(exceptions.c.o)
 .comment       0x00000000       0x3c cores/core_no_main.a(task_manager.c.o)
 .comment       0x00000000       0x3c cores/core_no_main.a(wiring.c.o)
 .comment       0x00000000       0x3c cores/core_no_main.a(wiring_digital.c.o)
 .comment       0x00000000       0x3c cores/core_no_main.a(USB.cpp.o)
 .comment       0x00000000       0x3c cores/core_no_main.a(USB_CDCACM.cpp.o)
 .comment       0x00000000       0x3c cores/core_no_main.a(USB_FS.cpp.o)
 .comment       0x00000000       0x3c cores/core_no_main.a(WSystem.c.o)
 .comment       0x00000000       0x3c cores/core_no_main.a(pins_arduino.c.o)
 .comment       0x00000000       0x3c cores/core_no_main.a(wiring_analog.c.o)
 .comment       0x00000000       0x3c cores/core_no_main.a(Print.cpp.o)
 .comment       0x00000000       0x3c cores/core_no_main.a(doprnt.cpp.o)
 .comment       0x00000000       0x3c /home/ishyro/.arduino15/packages/chipKIT/tools/pic32-tools/1.43-pic32gcc/bin/bin/../../lib/gcc/pic32mx/4.8.3/../../../../pic32mx/lib/size/libm.a(lib_a-s_fpclassify.o)
 .comment       0x00000000       0x3c /home/ishyro/.arduino15/packages/chipKIT/tools/pic32-tools/1.43-pic32gcc/bin/bin/../../lib/gcc/pic32mx/4.8.3/../../../../pic32mx/lib/size/libm.a(lib_a-s_modf.o)
 .comment       0x00000000       0x3c /home/ishyro/.arduino15/packages/chipKIT/tools/pic32-tools/1.43-pic32gcc/bin/bin/../../lib/gcc/pic32mx/4.8.3/size/crtbegin.o
 .comment       0x00000000       0x3c /home/ishyro/.arduino15/packages/chipKIT/tools/pic32-tools/1.43-pic32gcc/bin/bin/../../lib/gcc/pic32mx/4.8.3/size/crtend.o
 .comment       0x00000000       0x3c /home/ishyro/.arduino15/packages/chipKIT/tools/pic32-tools/1.43-pic32gcc/bin/bin/../../lib/gcc/pic32mx/4.8.3/size/libgcc.a(adddf3.o)
 .comment       0x00000000       0x3c /home/ishyro/.arduino15/packages/chipKIT/tools/pic32-tools/1.43-pic32gcc/bin/bin/../../lib/gcc/pic32mx/4.8.3/size/libgcc.a(divdf3.o)
 .comment       0x00000000       0x3c /home/ishyro/.arduino15/packages/chipKIT/tools/pic32-tools/1.43-pic32gcc/bin/bin/../../lib/gcc/pic32mx/4.8.3/size/libgcc.a(eqdf2.o)
 .comment       0x00000000       0x3c /home/ishyro/.arduino15/packages/chipKIT/tools/pic32-tools/1.43-pic32gcc/bin/bin/../../lib/gcc/pic32mx/4.8.3/size/libgcc.a(gedf2.o)
 .comment       0x00000000       0x3c /home/ishyro/.arduino15/packages/chipKIT/tools/pic32-tools/1.43-pic32gcc/bin/bin/../../lib/gcc/pic32mx/4.8.3/size/libgcc.a(ledf2.o)
 .comment       0x00000000       0x3c /home/ishyro/.arduino15/packages/chipKIT/tools/pic32-tools/1.43-pic32gcc/bin/bin/../../lib/gcc/pic32mx/4.8.3/size/libgcc.a(muldf3.o)
 .comment       0x00000000       0x3c /home/ishyro/.arduino15/packages/chipKIT/tools/pic32-tools/1.43-pic32gcc/bin/bin/../../lib/gcc/pic32mx/4.8.3/size/libgcc.a(subdf3.o)
 .comment       0x00000000       0x3c /home/ishyro/.arduino15/packages/chipKIT/tools/pic32-tools/1.43-pic32gcc/bin/bin/../../lib/gcc/pic32mx/4.8.3/size/libgcc.a(fixdfsi.o)
 .comment       0x00000000       0x3c /home/ishyro/.arduino15/packages/chipKIT/tools/pic32-tools/1.43-pic32gcc/bin/bin/../../lib/gcc/pic32mx/4.8.3/size/libgcc.a(fixunsdfsi.o)
 .comment       0x00000000       0x3c /home/ishyro/.arduino15/packages/chipKIT/tools/pic32-tools/1.43-pic32gcc/bin/bin/../../lib/gcc/pic32mx/4.8.3/size/libgcc.a(floatsidf.o)
 .comment       0x00000000       0x3c /home/ishyro/.arduino15/packages/chipKIT/tools/pic32-tools/1.43-pic32gcc/bin/bin/../../lib/gcc/pic32mx/4.8.3/size/libgcc.a(floatunsidf.o)
 .comment       0x00000000       0x3c /home/ishyro/.arduino15/packages/chipKIT/tools/pic32-tools/1.43-pic32gcc/bin/bin/../../lib/gcc/pic32mx/4.8.3/../../../../pic32mx/lib/size/libc.a(lib_a-errno.o)
 .comment       0x00000000       0x3c /home/ishyro/.arduino15/packages/chipKIT/tools/pic32-tools/1.43-pic32gcc/bin/bin/../../lib/gcc/pic32mx/4.8.3/../../../../pic32mx/lib/size/libc.a(lib_a-impure.o)
 .comment       0x00000000       0x3c /home/ishyro/.arduino15/packages/chipKIT/tools/pic32-tools/1.43-pic32gcc/bin/bin/../../lib/gcc/pic32mx/4.8.3/../../../../pic32mx/lib/size/libc.a(lib_a-malloc.o)
 .comment       0x00000000       0x3c /home/ishyro/.arduino15/packages/chipKIT/tools/pic32-tools/1.43-pic32gcc/bin/bin/../../lib/gcc/pic32mx/4.8.3/../../../../pic32mx/lib/size/libc.a(lib_a-mallocr.o)
 .comment       0x00000000       0x3c /home/ishyro/.arduino15/packages/chipKIT/tools/pic32-tools/1.43-pic32gcc/bin/bin/../../lib/gcc/pic32mx/4.8.3/../../../../pic32mx/lib/size/libc.a(lib_a-memcpy.o)
 .comment       0x00000000       0x3c /home/ishyro/.arduino15/packages/chipKIT/tools/pic32-tools/1.43-pic32gcc/bin/bin/../../lib/gcc/pic32mx/4.8.3/../../../../pic32mx/lib/size/libc.a(lib_a-mlock.o)
 .comment       0x00000000       0x3c /home/ishyro/.arduino15/packages/chipKIT/tools/pic32-tools/1.43-pic32gcc/bin/bin/../../lib/gcc/pic32mx/4.8.3/../../../../pic32mx/lib/size/libc.a(lib_a-sbrkr.o)
 .comment       0x00000000       0x3c /home/ishyro/.arduino15/packages/chipKIT/tools/pic32-tools/1.43-pic32gcc/bin/bin/../../lib/gcc/pic32mx/4.8.3/../../../../pic32mx/lib/size/libc.a(lib_a-strlen.o)
 .comment       0x00000000       0x3c /home/ishyro/.arduino15/packages/chipKIT/tools/pic32-tools/1.43-pic32gcc/bin/bin/../../lib/gcc/pic32mx/4.8.3/../../../../pic32mx/lib/size/libc.a(lib_a-freer.o)
 .comment       0x00000000       0x3c /home/ishyro/.arduino15/packages/chipKIT/tools/pic32-tools/1.43-pic32gcc/bin/bin/../../lib/gcc/pic32mx/4.8.3/../../../../pic32mx/lib/size/libc.a(lib_a-reent.o)
 .comment       0x00000000       0x3c /home/ishyro/.arduino15/packages/chipKIT/tools/pic32-tools/1.43-pic32gcc/bin/bin/../../lib/gcc/pic32mx/4.8.3/../../../../pic32mx/lib/size/libsupc++.a(class_type_info.o)
 .comment       0x00000000       0x3c /home/ishyro/.arduino15/packages/chipKIT/tools/pic32-tools/1.43-pic32gcc/bin/bin/../../lib/gcc/pic32mx/4.8.3/../../../../pic32mx/lib/size/libsupc++.a(del_op.o)
 .comment       0x00000000       0x3c /home/ishyro/.arduino15/packages/chipKIT/tools/pic32-tools/1.43-pic32gcc/bin/bin/../../lib/gcc/pic32mx/4.8.3/../../../../pic32mx/lib/size/libsupc++.a(si_class_type_info.o)
 .comment       0x00000000       0x3c /home/ishyro/.arduino15/packages/chipKIT/tools/pic32-tools/1.43-pic32gcc/bin/bin/../../lib/gcc/pic32mx/4.8.3/../../../../pic32mx/lib/size/libsupc++.a(tinfo.o)
 .comment       0x00000000       0x3c /home/ishyro/.arduino15/packages/chipKIT/tools/pic32-tools/1.43-pic32gcc/bin/bin/../../lib/gcc/pic32mx/4.8.3/../../../../pic32mx/lib/size/libsupc++.a(vmi_class_type_info.o)
 .comment       0x00000000       0x3c /home/ishyro/.arduino15/packages/chipKIT/tools/pic32-tools/1.43-pic32gcc/bin/bin/../../lib/gcc/pic32mx/4.8.3/../../../../pic32mx/lib/size/libsupc++.a(pure.o)
 .comment       0x00000000       0x3c /home/ishyro/.arduino15/packages/chipKIT/tools/pic32-tools/1.43-pic32gcc/bin/bin/../../lib/gcc/pic32mx/4.8.3/../../../../pic32mx/lib/size/libsupc++.a(eh_terminate.o)
 .comment       0x00000000       0x3c /home/ishyro/.arduino15/packages/chipKIT/tools/pic32-tools/1.43-pic32gcc/bin/bin/../../lib/gcc/pic32mx/4.8.3/../../../../pic32mx/lib/size/libsupc++.a(eh_unex_handler.o)
 .comment       0x00000000       0x3c /home/ishyro/.arduino15/packages/chipKIT/tools/pic32-tools/1.43-pic32gcc/bin/bin/../../lib/gcc/pic32mx/4.8.3/../../../../pic32mx/lib/size/libsupc++.a(eh_term_handler.o)
 .comment       0x0000003b       0x4b /home/ishyro/.arduino15/packages/chipKIT/tools/pic32-tools/1.43-pic32gcc/bin/bin/../../lib/gcc/pic32mx/4.8.3/../../../../pic32mx/lib/size/libpic32.a(sbrk.o)
                                 0x87 (size before relaxing)
 .comment       0x00000000       0x3c /home/ishyro/.arduino15/packages/chipKIT/tools/pic32-tools/1.43-pic32gcc/bin/bin/../../lib/gcc/pic32mx/4.8.3/../../../../pic32mx/lib/size/libpic32.a(default-bootstrap-exception-handler.o)
 .comment       0x00000000       0x3c /home/ishyro/.arduino15/packages/chipKIT/tools/pic32-tools/1.43-pic32gcc/bin/bin/../../lib/gcc/pic32mx/4.8.3/../../../../pic32mx/lib/size/libpic32.a(default-on-reset.o)
 .comment       0x00000000       0x3c /home/ishyro/.arduino15/packages/chipKIT/tools/pic32-tools/1.43-pic32gcc/bin/bin/../../lib/gcc/pic32mx/4.8.3/../../../../pic32mx/lib/size/libpic32.a(default-on-bootstrap.o)
 .comment       0x00000000       0x3c /home/ishyro/.arduino15/packages/chipKIT/tools/pic32-tools/1.43-pic32gcc/bin/bin/../../lib/gcc/pic32mx/4.8.3/../../../../pic32mx/lib/size/libc.a(lib_a-abort.o)
 .comment       0x00000000       0x3c /home/ishyro/.arduino15/packages/chipKIT/tools/pic32-tools/1.43-pic32gcc/bin/bin/../../lib/gcc/pic32mx/4.8.3/../../../../pic32mx/lib/size/libc.a(lib_a-memset.o)
 .comment       0x00000000       0x3c /home/ishyro/.arduino15/packages/chipKIT/tools/pic32-tools/1.43-pic32gcc/bin/bin/../../lib/gcc/pic32mx/4.8.3/../../../../pic32mx/lib/size/libc.a(lib_a-signal.o)
 .comment       0x00000000       0x3c /home/ishyro/.arduino15/packages/chipKIT/tools/pic32-tools/1.43-pic32gcc/bin/bin/../../lib/gcc/pic32mx/4.8.3/../../../../pic32mx/lib/size/libc.a(lib_a-signalr.o)
 .comment       0x00000000       0x3c /home/ishyro/.arduino15/packages/chipKIT/tools/pic32-tools/1.43-pic32gcc/bin/bin/../../lib/gcc/pic32mx/4.8.3/../../../../pic32mx/lib/size/libc.a(lib_a-strcmp.o)
 .comment       0x00000000       0x3c /home/ishyro/.arduino15/packages/chipKIT/tools/pic32-tools/1.43-pic32gcc/bin/bin/../../lib/gcc/pic32mx/4.8.3/../../../../pic32mx/lib/size/libpic32.a(_exit.o)
 .comment       0x00000000       0x3c /home/ishyro/.arduino15/packages/chipKIT/tools/pic32-tools/1.43-pic32gcc/bin/bin/../../lib/gcc/pic32mx/4.8.3/../../../../pic32mx/lib/size/libpic32.a(kill.o)
 .comment       0x00000000       0x3c /home/ishyro/.arduino15/packages/chipKIT/tools/pic32-tools/1.43-pic32gcc/bin/bin/../../lib/gcc/pic32mx/4.8.3/../../../../pic32mx/lib/size/libpic32.a(getpid.o)

.debug
 *(.debug)

.line
 *(.line)

.debug_srcinfo
 *(.debug_srcinfo)

.debug_sfnames
 *(.debug_sfnames)

.debug_aranges  0x00000000      0xb80
 *(.debug_aranges)
 .debug_aranges
                0x00000000       0x18 Board_Data.o
 .debug_aranges
                0x00000018       0x28 cores/core_no_main.a(exceptions.c.o)
 .debug_aranges
                0x00000040       0x88 cores/core_no_main.a(task_manager.c.o)
 .debug_aranges
                0x000000c8      0x218 cores/core_no_main.a(vector_table.S.o)
 .debug_aranges
                0x000002e0       0x88 cores/core_no_main.a(wiring.c.o)
 .debug_aranges
                0x00000368       0x38 cores/core_no_main.a(wiring_digital.c.o)
 .debug_aranges
                0x000003a0       0x90 cores/core_no_main.a(USB.cpp.o)
 .debug_aranges
                0x00000430       0xf0 cores/core_no_main.a(USB_CDCACM.cpp.o)
 .debug_aranges
                0x00000520       0x98 cores/core_no_main.a(USB_FS.cpp.o)
 .debug_aranges
                0x000005b8       0xc8 cores/core_no_main.a(WSystem.c.o)
 .debug_aranges
                0x00000680       0x20 cores/core_no_main.a(pins_arduino.c.o)
 .debug_aranges
                0x000006a0       0x68 cores/core_no_main.a(wiring_analog.c.o)
 .debug_aranges
                0x00000708       0xf8 cores/core_no_main.a(Print.cpp.o)
 .debug_aranges
                0x00000800       0x28 cores/core_no_main.a(doprnt.cpp.o)
 .debug_aranges
                0x00000828       0x20 /home/ishyro/.arduino15/packages/chipKIT/tools/pic32-tools/1.43-pic32gcc/bin/bin/../../lib/gcc/pic32mx/4.8.3/size/libgcc.a(adddf3.o)
 .debug_aranges
                0x00000848       0x20 /home/ishyro/.arduino15/packages/chipKIT/tools/pic32-tools/1.43-pic32gcc/bin/bin/../../lib/gcc/pic32mx/4.8.3/size/libgcc.a(divdf3.o)
 .debug_aranges
                0x00000868       0x20 /home/ishyro/.arduino15/packages/chipKIT/tools/pic32-tools/1.43-pic32gcc/bin/bin/../../lib/gcc/pic32mx/4.8.3/size/libgcc.a(eqdf2.o)
 .debug_aranges
                0x00000888       0x20 /home/ishyro/.arduino15/packages/chipKIT/tools/pic32-tools/1.43-pic32gcc/bin/bin/../../lib/gcc/pic32mx/4.8.3/size/libgcc.a(gedf2.o)
 .debug_aranges
                0x000008a8       0x20 /home/ishyro/.arduino15/packages/chipKIT/tools/pic32-tools/1.43-pic32gcc/bin/bin/../../lib/gcc/pic32mx/4.8.3/size/libgcc.a(ledf2.o)
 .debug_aranges
                0x000008c8       0x20 /home/ishyro/.arduino15/packages/chipKIT/tools/pic32-tools/1.43-pic32gcc/bin/bin/../../lib/gcc/pic32mx/4.8.3/size/libgcc.a(muldf3.o)
 .debug_aranges
                0x000008e8       0x20 /home/ishyro/.arduino15/packages/chipKIT/tools/pic32-tools/1.43-pic32gcc/bin/bin/../../lib/gcc/pic32mx/4.8.3/size/libgcc.a(subdf3.o)
 .debug_aranges
                0x00000908       0x20 /home/ishyro/.arduino15/packages/chipKIT/tools/pic32-tools/1.43-pic32gcc/bin/bin/../../lib/gcc/pic32mx/4.8.3/size/libgcc.a(fixdfsi.o)
 .debug_aranges
                0x00000928       0x20 /home/ishyro/.arduino15/packages/chipKIT/tools/pic32-tools/1.43-pic32gcc/bin/bin/../../lib/gcc/pic32mx/4.8.3/size/libgcc.a(fixunsdfsi.o)
 .debug_aranges
                0x00000948       0x20 /home/ishyro/.arduino15/packages/chipKIT/tools/pic32-tools/1.43-pic32gcc/bin/bin/../../lib/gcc/pic32mx/4.8.3/size/libgcc.a(floatsidf.o)
 .debug_aranges
                0x00000968       0x20 /home/ishyro/.arduino15/packages/chipKIT/tools/pic32-tools/1.43-pic32gcc/bin/bin/../../lib/gcc/pic32mx/4.8.3/size/libgcc.a(floatunsidf.o)
 .debug_aranges
                0x00000988       0x58 /home/ishyro/.arduino15/packages/chipKIT/tools/pic32-tools/1.43-pic32gcc/bin/bin/../../lib/gcc/pic32mx/4.8.3/../../../../pic32mx/lib/size/libsupc++.a(class_type_info.o)
 .debug_aranges
                0x000009e0       0x20 /home/ishyro/.arduino15/packages/chipKIT/tools/pic32-tools/1.43-pic32gcc/bin/bin/../../lib/gcc/pic32mx/4.8.3/../../../../pic32mx/lib/size/libsupc++.a(del_op.o)
 .debug_aranges
                0x00000a00       0x48 /home/ishyro/.arduino15/packages/chipKIT/tools/pic32-tools/1.43-pic32gcc/bin/bin/../../lib/gcc/pic32mx/4.8.3/../../../../pic32mx/lib/size/libsupc++.a(si_class_type_info.o)
 .debug_aranges
                0x00000a48       0x48 /home/ishyro/.arduino15/packages/chipKIT/tools/pic32-tools/1.43-pic32gcc/bin/bin/../../lib/gcc/pic32mx/4.8.3/../../../../pic32mx/lib/size/libsupc++.a(tinfo.o)
 .debug_aranges
                0x00000a90       0x50 /home/ishyro/.arduino15/packages/chipKIT/tools/pic32-tools/1.43-pic32gcc/bin/bin/../../lib/gcc/pic32mx/4.8.3/../../../../pic32mx/lib/size/libsupc++.a(vmi_class_type_info.o)
 .debug_aranges
                0x00000ae0       0x28 /home/ishyro/.arduino15/packages/chipKIT/tools/pic32-tools/1.43-pic32gcc/bin/bin/../../lib/gcc/pic32mx/4.8.3/../../../../pic32mx/lib/size/libsupc++.a(pure.o)
 .debug_aranges
                0x00000b08       0x48 /home/ishyro/.arduino15/packages/chipKIT/tools/pic32-tools/1.43-pic32gcc/bin/bin/../../lib/gcc/pic32mx/4.8.3/../../../../pic32mx/lib/size/libsupc++.a(eh_terminate.o)
 .debug_aranges
                0x00000b50       0x18 /home/ishyro/.arduino15/packages/chipKIT/tools/pic32-tools/1.43-pic32gcc/bin/bin/../../lib/gcc/pic32mx/4.8.3/../../../../pic32mx/lib/size/libsupc++.a(eh_unex_handler.o)
 .debug_aranges
                0x00000b68       0x18 /home/ishyro/.arduino15/packages/chipKIT/tools/pic32-tools/1.43-pic32gcc/bin/bin/../../lib/gcc/pic32mx/4.8.3/../../../../pic32mx/lib/size/libsupc++.a(eh_term_handler.o)

.debug_pubnames
 *(.debug_pubnames)

.debug_info     0x00000000    0x20e8b
 *(.debug_info .gnu.linkonce.wi.*)
 .debug_info    0x00000000      0x133 Board_Data.o
 .debug_info    0x00000133      0x2ff cores/core_no_main.a(exceptions.c.o)
 .debug_info    0x00000432      0x84f cores/core_no_main.a(task_manager.c.o)
 .debug_info    0x00000c81       0xa7 cores/core_no_main.a(vector_table.S.o)
 .debug_info    0x00000d28     0x1b0c cores/core_no_main.a(wiring.c.o)
 .debug_info    0x00002834      0xe1b cores/core_no_main.a(wiring_digital.c.o)
 .debug_info    0x0000364f     0x410a cores/core_no_main.a(USB.cpp.o)
 .debug_info    0x00007759     0x49de cores/core_no_main.a(USB_CDCACM.cpp.o)
 .debug_info    0x0000c137     0x3841 cores/core_no_main.a(USB_FS.cpp.o)
 .debug_info    0x0000f978     0x1074 cores/core_no_main.a(WSystem.c.o)
 .debug_info    0x000109ec      0x74c cores/core_no_main.a(pins_arduino.c.o)
 .debug_info    0x00011138     0x11c1 cores/core_no_main.a(wiring_analog.c.o)
 .debug_info    0x000122f9     0x343e cores/core_no_main.a(Print.cpp.o)
 .debug_info    0x00015737      0xebb cores/core_no_main.a(doprnt.cpp.o)
 .debug_info    0x000165f2      0x626 /home/ishyro/.arduino15/packages/chipKIT/tools/pic32-tools/1.43-pic32gcc/bin/bin/../../lib/gcc/pic32mx/4.8.3/size/libgcc.a(adddf3.o)
 .debug_info    0x00016c18      0x697 /home/ishyro/.arduino15/packages/chipKIT/tools/pic32-tools/1.43-pic32gcc/bin/bin/../../lib/gcc/pic32mx/4.8.3/size/libgcc.a(divdf3.o)
 .debug_info    0x000172af      0x331 /home/ishyro/.arduino15/packages/chipKIT/tools/pic32-tools/1.43-pic32gcc/bin/bin/../../lib/gcc/pic32mx/4.8.3/size/libgcc.a(eqdf2.o)
 .debug_info    0x000175e0      0x375 /home/ishyro/.arduino15/packages/chipKIT/tools/pic32-tools/1.43-pic32gcc/bin/bin/../../lib/gcc/pic32mx/4.8.3/size/libgcc.a(gedf2.o)
 .debug_info    0x00017955      0x36d /home/ishyro/.arduino15/packages/chipKIT/tools/pic32-tools/1.43-pic32gcc/bin/bin/../../lib/gcc/pic32mx/4.8.3/size/libgcc.a(ledf2.o)
 .debug_info    0x00017cc2      0x5ff /home/ishyro/.arduino15/packages/chipKIT/tools/pic32-tools/1.43-pic32gcc/bin/bin/../../lib/gcc/pic32mx/4.8.3/size/libgcc.a(muldf3.o)
 .debug_info    0x000182c1      0x62a /home/ishyro/.arduino15/packages/chipKIT/tools/pic32-tools/1.43-pic32gcc/bin/bin/../../lib/gcc/pic32mx/4.8.3/size/libgcc.a(subdf3.o)
 .debug_info    0x000188eb      0x2fe /home/ishyro/.arduino15/packages/chipKIT/tools/pic32-tools/1.43-pic32gcc/bin/bin/../../lib/gcc/pic32mx/4.8.3/size/libgcc.a(fixdfsi.o)
 .debug_info    0x00018be9      0x2f2 /home/ishyro/.arduino15/packages/chipKIT/tools/pic32-tools/1.43-pic32gcc/bin/bin/../../lib/gcc/pic32mx/4.8.3/size/libgcc.a(fixunsdfsi.o)
 .debug_info    0x00018edb      0x320 /home/ishyro/.arduino15/packages/chipKIT/tools/pic32-tools/1.43-pic32gcc/bin/bin/../../lib/gcc/pic32mx/4.8.3/size/libgcc.a(floatsidf.o)
 .debug_info    0x000191fb      0x17b /home/ishyro/.arduino15/packages/chipKIT/tools/pic32-tools/1.43-pic32gcc/bin/bin/../../lib/gcc/pic32mx/4.8.3/size/libgcc.a(floatunsidf.o)
 .debug_info    0x00019376     0x13c1 /home/ishyro/.arduino15/packages/chipKIT/tools/pic32-tools/1.43-pic32gcc/bin/bin/../../lib/gcc/pic32mx/4.8.3/../../../../pic32mx/lib/size/libsupc++.a(class_type_info.o)
 .debug_info    0x0001a737      0x578 /home/ishyro/.arduino15/packages/chipKIT/tools/pic32-tools/1.43-pic32gcc/bin/bin/../../lib/gcc/pic32mx/4.8.3/../../../../pic32mx/lib/size/libsupc++.a(del_op.o)
 .debug_info    0x0001acaf     0x10e9 /home/ishyro/.arduino15/packages/chipKIT/tools/pic32-tools/1.43-pic32gcc/bin/bin/../../lib/gcc/pic32mx/4.8.3/../../../../pic32mx/lib/size/libsupc++.a(si_class_type_info.o)
 .debug_info    0x0001bd98      0xbf3 /home/ishyro/.arduino15/packages/chipKIT/tools/pic32-tools/1.43-pic32gcc/bin/bin/../../lib/gcc/pic32mx/4.8.3/../../../../pic32mx/lib/size/libsupc++.a(tinfo.o)
 .debug_info    0x0001c98b     0x1ca4 /home/ishyro/.arduino15/packages/chipKIT/tools/pic32-tools/1.43-pic32gcc/bin/bin/../../lib/gcc/pic32mx/4.8.3/../../../../pic32mx/lib/size/libsupc++.a(vmi_class_type_info.o)
 .debug_info    0x0001e62f      0x97d /home/ishyro/.arduino15/packages/chipKIT/tools/pic32-tools/1.43-pic32gcc/bin/bin/../../lib/gcc/pic32mx/4.8.3/../../../../pic32mx/lib/size/libsupc++.a(pure.o)
 .debug_info    0x0001efac      0xc24 /home/ishyro/.arduino15/packages/chipKIT/tools/pic32-tools/1.43-pic32gcc/bin/bin/../../lib/gcc/pic32mx/4.8.3/../../../../pic32mx/lib/size/libsupc++.a(eh_terminate.o)
 .debug_info    0x0001fbd0      0x95f /home/ishyro/.arduino15/packages/chipKIT/tools/pic32-tools/1.43-pic32gcc/bin/bin/../../lib/gcc/pic32mx/4.8.3/../../../../pic32mx/lib/size/libsupc++.a(eh_unex_handler.o)
 .debug_info    0x0002052f      0x95c /home/ishyro/.arduino15/packages/chipKIT/tools/pic32-tools/1.43-pic32gcc/bin/bin/../../lib/gcc/pic32mx/4.8.3/../../../../pic32mx/lib/size/libsupc++.a(eh_term_handler.o)

.debug_abbrev   0x00000000     0x52f5
 *(.debug_abbrev)
 .debug_abbrev  0x00000000       0x1b Board_Data.o
 .debug_abbrev  0x0000001b       0x85 cores/core_no_main.a(exceptions.c.o)
 .debug_abbrev  0x000000a0      0x209 cores/core_no_main.a(task_manager.c.o)
 .debug_abbrev  0x000002a9       0x12 cores/core_no_main.a(vector_table.S.o)
 .debug_abbrev  0x000002bb      0x3f4 cores/core_no_main.a(wiring.c.o)
 .debug_abbrev  0x000006af      0x20e cores/core_no_main.a(wiring_digital.c.o)
 .debug_abbrev  0x000008bd      0x75c cores/core_no_main.a(USB.cpp.o)
 .debug_abbrev  0x00001019      0x778 cores/core_no_main.a(USB_CDCACM.cpp.o)
 .debug_abbrev  0x00001791      0x5eb cores/core_no_main.a(USB_FS.cpp.o)
 .debug_abbrev  0x00001d7c      0x2f8 cores/core_no_main.a(WSystem.c.o)
 .debug_abbrev  0x00002074       0xbc cores/core_no_main.a(pins_arduino.c.o)
 .debug_abbrev  0x00002130      0x36d cores/core_no_main.a(wiring_analog.c.o)
 .debug_abbrev  0x0000249d      0x4bf cores/core_no_main.a(Print.cpp.o)
 .debug_abbrev  0x0000295c      0x2a1 cores/core_no_main.a(doprnt.cpp.o)
 .debug_abbrev  0x00002bfd       0xe2 /home/ishyro/.arduino15/packages/chipKIT/tools/pic32-tools/1.43-pic32gcc/bin/bin/../../lib/gcc/pic32mx/4.8.3/size/libgcc.a(adddf3.o)
 .debug_abbrev  0x00002cdf       0xce /home/ishyro/.arduino15/packages/chipKIT/tools/pic32-tools/1.43-pic32gcc/bin/bin/../../lib/gcc/pic32mx/4.8.3/size/libgcc.a(divdf3.o)
 .debug_abbrev  0x00002dad       0xf2 /home/ishyro/.arduino15/packages/chipKIT/tools/pic32-tools/1.43-pic32gcc/bin/bin/../../lib/gcc/pic32mx/4.8.3/size/libgcc.a(eqdf2.o)
 .debug_abbrev  0x00002e9f       0xf0 /home/ishyro/.arduino15/packages/chipKIT/tools/pic32-tools/1.43-pic32gcc/bin/bin/../../lib/gcc/pic32mx/4.8.3/size/libgcc.a(gedf2.o)
 .debug_abbrev  0x00002f8f       0xf0 /home/ishyro/.arduino15/packages/chipKIT/tools/pic32-tools/1.43-pic32gcc/bin/bin/../../lib/gcc/pic32mx/4.8.3/size/libgcc.a(ledf2.o)
 .debug_abbrev  0x0000307f       0xe7 /home/ishyro/.arduino15/packages/chipKIT/tools/pic32-tools/1.43-pic32gcc/bin/bin/../../lib/gcc/pic32mx/4.8.3/size/libgcc.a(muldf3.o)
 .debug_abbrev  0x00003166       0xe2 /home/ishyro/.arduino15/packages/chipKIT/tools/pic32-tools/1.43-pic32gcc/bin/bin/../../lib/gcc/pic32mx/4.8.3/size/libgcc.a(subdf3.o)
 .debug_abbrev  0x00003248       0xd4 /home/ishyro/.arduino15/packages/chipKIT/tools/pic32-tools/1.43-pic32gcc/bin/bin/../../lib/gcc/pic32mx/4.8.3/size/libgcc.a(fixdfsi.o)
 .debug_abbrev  0x0000331c       0xd4 /home/ishyro/.arduino15/packages/chipKIT/tools/pic32-tools/1.43-pic32gcc/bin/bin/../../lib/gcc/pic32mx/4.8.3/size/libgcc.a(fixunsdfsi.o)
 .debug_abbrev  0x000033f0       0xdd /home/ishyro/.arduino15/packages/chipKIT/tools/pic32-tools/1.43-pic32gcc/bin/bin/../../lib/gcc/pic32mx/4.8.3/size/libgcc.a(floatsidf.o)
 .debug_abbrev  0x000034cd       0x64 /home/ishyro/.arduino15/packages/chipKIT/tools/pic32-tools/1.43-pic32gcc/bin/bin/../../lib/gcc/pic32mx/4.8.3/size/libgcc.a(floatunsidf.o)
 .debug_abbrev  0x00003531      0x52c /home/ishyro/.arduino15/packages/chipKIT/tools/pic32-tools/1.43-pic32gcc/bin/bin/../../lib/gcc/pic32mx/4.8.3/../../../../pic32mx/lib/size/libsupc++.a(class_type_info.o)
 .debug_abbrev  0x00003a5d      0x1bf /home/ishyro/.arduino15/packages/chipKIT/tools/pic32-tools/1.43-pic32gcc/bin/bin/../../lib/gcc/pic32mx/4.8.3/../../../../pic32mx/lib/size/libsupc++.a(del_op.o)
 .debug_abbrev  0x00003c1c      0x49a /home/ishyro/.arduino15/packages/chipKIT/tools/pic32-tools/1.43-pic32gcc/bin/bin/../../lib/gcc/pic32mx/4.8.3/../../../../pic32mx/lib/size/libsupc++.a(si_class_type_info.o)
 .debug_abbrev  0x000040b6      0x348 /home/ishyro/.arduino15/packages/chipKIT/tools/pic32-tools/1.43-pic32gcc/bin/bin/../../lib/gcc/pic32mx/4.8.3/../../../../pic32mx/lib/size/libsupc++.a(tinfo.o)
 .debug_abbrev  0x000043fe      0x575 /home/ishyro/.arduino15/packages/chipKIT/tools/pic32-tools/1.43-pic32gcc/bin/bin/../../lib/gcc/pic32mx/4.8.3/../../../../pic32mx/lib/size/libsupc++.a(vmi_class_type_info.o)
 .debug_abbrev  0x00004973      0x252 /home/ishyro/.arduino15/packages/chipKIT/tools/pic32-tools/1.43-pic32gcc/bin/bin/../../lib/gcc/pic32mx/4.8.3/../../../../pic32mx/lib/size/libsupc++.a(pure.o)
 .debug_abbrev  0x00004bc5      0x2e2 /home/ishyro/.arduino15/packages/chipKIT/tools/pic32-tools/1.43-pic32gcc/bin/bin/../../lib/gcc/pic32mx/4.8.3/../../../../pic32mx/lib/size/libsupc++.a(eh_terminate.o)
 .debug_abbrev  0x00004ea7      0x227 /home/ishyro/.arduino15/packages/chipKIT/tools/pic32-tools/1.43-pic32gcc/bin/bin/../../lib/gcc/pic32mx/4.8.3/../../../../pic32mx/lib/size/libsupc++.a(eh_unex_handler.o)
 .debug_abbrev  0x000050ce      0x227 /home/ishyro/.arduino15/packages/chipKIT/tools/pic32-tools/1.43-pic32gcc/bin/bin/../../lib/gcc/pic32mx/4.8.3/../../../../pic32mx/lib/size/libsupc++.a(eh_term_handler.o)

.debug_line     0x00000000     0x5422
 *(.debug_line)
 .debug_line    0x00000000       0x1d Board_Data.o
 .debug_line    0x0000001d      0x103 cores/core_no_main.a(exceptions.c.o)
 .debug_line    0x00000120      0x314 cores/core_no_main.a(task_manager.c.o)
 .debug_line    0x00000434      0x479 cores/core_no_main.a(vector_table.S.o)
 .debug_line    0x000008ad      0x489 cores/core_no_main.a(wiring.c.o)
 .debug_line    0x00000d36      0x32e cores/core_no_main.a(wiring_digital.c.o)
 .debug_line    0x00001064      0x437 cores/core_no_main.a(USB.cpp.o)
 .debug_line    0x0000149b      0x5b2 cores/core_no_main.a(USB_CDCACM.cpp.o)
 .debug_line    0x00001a4d      0x568 cores/core_no_main.a(USB_FS.cpp.o)
 .debug_line    0x00001fb5      0x3fb cores/core_no_main.a(WSystem.c.o)
 .debug_line    0x000023b0      0x23b cores/core_no_main.a(pins_arduino.c.o)
 .debug_line    0x000025eb      0x367 cores/core_no_main.a(wiring_analog.c.o)
 .debug_line    0x00002952      0x521 cores/core_no_main.a(Print.cpp.o)
 .debug_line    0x00002e73      0x5fb cores/core_no_main.a(doprnt.cpp.o)
 .debug_line    0x0000346e       0xd6 /home/ishyro/.arduino15/packages/chipKIT/tools/pic32-tools/1.43-pic32gcc/bin/bin/../../lib/gcc/pic32mx/4.8.3/size/libgcc.a(adddf3.o)
 .debug_line    0x00003544       0xce /home/ishyro/.arduino15/packages/chipKIT/tools/pic32-tools/1.43-pic32gcc/bin/bin/../../lib/gcc/pic32mx/4.8.3/size/libgcc.a(divdf3.o)
 .debug_line    0x00003612      0x11a /home/ishyro/.arduino15/packages/chipKIT/tools/pic32-tools/1.43-pic32gcc/bin/bin/../../lib/gcc/pic32mx/4.8.3/size/libgcc.a(eqdf2.o)
 .debug_line    0x0000372c      0x11b /home/ishyro/.arduino15/packages/chipKIT/tools/pic32-tools/1.43-pic32gcc/bin/bin/../../lib/gcc/pic32mx/4.8.3/size/libgcc.a(gedf2.o)
 .debug_line    0x00003847      0x11b /home/ishyro/.arduino15/packages/chipKIT/tools/pic32-tools/1.43-pic32gcc/bin/bin/../../lib/gcc/pic32mx/4.8.3/size/libgcc.a(ledf2.o)
 .debug_line    0x00003962       0xc7 /home/ishyro/.arduino15/packages/chipKIT/tools/pic32-tools/1.43-pic32gcc/bin/bin/../../lib/gcc/pic32mx/4.8.3/size/libgcc.a(muldf3.o)
 .debug_line    0x00003a29       0xd2 /home/ishyro/.arduino15/packages/chipKIT/tools/pic32-tools/1.43-pic32gcc/bin/bin/../../lib/gcc/pic32mx/4.8.3/size/libgcc.a(subdf3.o)
 .debug_line    0x00003afb       0xb5 /home/ishyro/.arduino15/packages/chipKIT/tools/pic32-tools/1.43-pic32gcc/bin/bin/../../lib/gcc/pic32mx/4.8.3/size/libgcc.a(fixdfsi.o)
 .debug_line    0x00003bb0       0xb8 /home/ishyro/.arduino15/packages/chipKIT/tools/pic32-tools/1.43-pic32gcc/bin/bin/../../lib/gcc/pic32mx/4.8.3/size/libgcc.a(fixunsdfsi.o)
 .debug_line    0x00003c68       0xb7 /home/ishyro/.arduino15/packages/chipKIT/tools/pic32-tools/1.43-pic32gcc/bin/bin/../../lib/gcc/pic32mx/4.8.3/size/libgcc.a(floatsidf.o)
 .debug_line    0x00003d1f       0x96 /home/ishyro/.arduino15/packages/chipKIT/tools/pic32-tools/1.43-pic32gcc/bin/bin/../../lib/gcc/pic32mx/4.8.3/size/libgcc.a(floatunsidf.o)
 .debug_line    0x00003db5      0x290 /home/ishyro/.arduino15/packages/chipKIT/tools/pic32-tools/1.43-pic32gcc/bin/bin/../../lib/gcc/pic32mx/4.8.3/../../../../pic32mx/lib/size/libsupc++.a(class_type_info.o)
 .debug_line    0x00004045      0x14c /home/ishyro/.arduino15/packages/chipKIT/tools/pic32-tools/1.43-pic32gcc/bin/bin/../../lib/gcc/pic32mx/4.8.3/../../../../pic32mx/lib/size/libsupc++.a(del_op.o)
 .debug_line    0x00004191      0x265 /home/ishyro/.arduino15/packages/chipKIT/tools/pic32-tools/1.43-pic32gcc/bin/bin/../../lib/gcc/pic32mx/4.8.3/../../../../pic32mx/lib/size/libsupc++.a(si_class_type_info.o)
 .debug_line    0x000043f6      0x1d9 /home/ishyro/.arduino15/packages/chipKIT/tools/pic32-tools/1.43-pic32gcc/bin/bin/../../lib/gcc/pic32mx/4.8.3/../../../../pic32mx/lib/size/libsupc++.a(tinfo.o)
 .debug_line    0x000045cf      0x417 /home/ishyro/.arduino15/packages/chipKIT/tools/pic32-tools/1.43-pic32gcc/bin/bin/../../lib/gcc/pic32mx/4.8.3/../../../../pic32mx/lib/size/libsupc++.a(vmi_class_type_info.o)
 .debug_line    0x000049e6      0x268 /home/ishyro/.arduino15/packages/chipKIT/tools/pic32-tools/1.43-pic32gcc/bin/bin/../../lib/gcc/pic32mx/4.8.3/../../../../pic32mx/lib/size/libsupc++.a(pure.o)
 .debug_line    0x00004c4e      0x32e /home/ishyro/.arduino15/packages/chipKIT/tools/pic32-tools/1.43-pic32gcc/bin/bin/../../lib/gcc/pic32mx/4.8.3/../../../../pic32mx/lib/size/libsupc++.a(eh_terminate.o)
 .debug_line    0x00004f7c      0x253 /home/ishyro/.arduino15/packages/chipKIT/tools/pic32-tools/1.43-pic32gcc/bin/bin/../../lib/gcc/pic32mx/4.8.3/../../../../pic32mx/lib/size/libsupc++.a(eh_unex_handler.o)
 .debug_line    0x000051cf      0x253 /home/ishyro/.arduino15/packages/chipKIT/tools/pic32-tools/1.43-pic32gcc/bin/bin/../../lib/gcc/pic32mx/4.8.3/../../../../pic32mx/lib/size/libsupc++.a(eh_term_handler.o)

.debug_frame    0x00000000     0x1460
 *(.debug_frame)
 .debug_frame   0x00000000       0x38 cores/core_no_main.a(exceptions.c.o)
 .debug_frame   0x00000038      0x160 cores/core_no_main.a(task_manager.c.o)
 .debug_frame   0x00000198      0x18c cores/core_no_main.a(wiring.c.o)
 .debug_frame   0x00000324       0x88 cores/core_no_main.a(wiring_digital.c.o)
 .debug_frame   0x000003ac      0x1a8 cores/core_no_main.a(USB.cpp.o)
 .debug_frame   0x00000554      0x254 cores/core_no_main.a(USB_CDCACM.cpp.o)
 .debug_frame   0x000007a8      0x1a8 cores/core_no_main.a(USB_FS.cpp.o)
 .debug_frame   0x00000950      0x170 cores/core_no_main.a(WSystem.c.o)
 .debug_frame   0x00000ac0       0x20 cores/core_no_main.a(pins_arduino.c.o)
 .debug_frame   0x00000ae0       0xf8 cores/core_no_main.a(wiring_analog.c.o)
 .debug_frame   0x00000bd8      0x2bc cores/core_no_main.a(Print.cpp.o)
 .debug_frame   0x00000e94       0x5c cores/core_no_main.a(doprnt.cpp.o)
 .debug_frame   0x00000ef0       0x20 /home/ishyro/.arduino15/packages/chipKIT/tools/pic32-tools/1.43-pic32gcc/bin/bin/../../lib/gcc/pic32mx/4.8.3/size/libgcc.a(adddf3.o)
 .debug_frame   0x00000f10       0x20 /home/ishyro/.arduino15/packages/chipKIT/tools/pic32-tools/1.43-pic32gcc/bin/bin/../../lib/gcc/pic32mx/4.8.3/size/libgcc.a(divdf3.o)
 .debug_frame   0x00000f30       0x20 /home/ishyro/.arduino15/packages/chipKIT/tools/pic32-tools/1.43-pic32gcc/bin/bin/../../lib/gcc/pic32mx/4.8.3/size/libgcc.a(eqdf2.o)
 .debug_frame   0x00000f50       0x20 /home/ishyro/.arduino15/packages/chipKIT/tools/pic32-tools/1.43-pic32gcc/bin/bin/../../lib/gcc/pic32mx/4.8.3/size/libgcc.a(gedf2.o)
 .debug_frame   0x00000f70       0x20 /home/ishyro/.arduino15/packages/chipKIT/tools/pic32-tools/1.43-pic32gcc/bin/bin/../../lib/gcc/pic32mx/4.8.3/size/libgcc.a(ledf2.o)
 .debug_frame   0x00000f90       0x20 /home/ishyro/.arduino15/packages/chipKIT/tools/pic32-tools/1.43-pic32gcc/bin/bin/../../lib/gcc/pic32mx/4.8.3/size/libgcc.a(muldf3.o)
 .debug_frame   0x00000fb0       0x20 /home/ishyro/.arduino15/packages/chipKIT/tools/pic32-tools/1.43-pic32gcc/bin/bin/../../lib/gcc/pic32mx/4.8.3/size/libgcc.a(subdf3.o)
 .debug_frame   0x00000fd0       0x20 /home/ishyro/.arduino15/packages/chipKIT/tools/pic32-tools/1.43-pic32gcc/bin/bin/../../lib/gcc/pic32mx/4.8.3/size/libgcc.a(fixdfsi.o)
 .debug_frame   0x00000ff0       0x20 /home/ishyro/.arduino15/packages/chipKIT/tools/pic32-tools/1.43-pic32gcc/bin/bin/../../lib/gcc/pic32mx/4.8.3/size/libgcc.a(fixunsdfsi.o)
 .debug_frame   0x00001010       0x20 /home/ishyro/.arduino15/packages/chipKIT/tools/pic32-tools/1.43-pic32gcc/bin/bin/../../lib/gcc/pic32mx/4.8.3/size/libgcc.a(floatsidf.o)
 .debug_frame   0x00001030       0x28 /home/ishyro/.arduino15/packages/chipKIT/tools/pic32-tools/1.43-pic32gcc/bin/bin/../../lib/gcc/pic32mx/4.8.3/size/libgcc.a(floatunsidf.o)
 .debug_frame   0x00001058       0xdc /home/ishyro/.arduino15/packages/chipKIT/tools/pic32-tools/1.43-pic32gcc/bin/bin/../../lib/gcc/pic32mx/4.8.3/../../../../pic32mx/lib/size/libsupc++.a(class_type_info.o)
 .debug_frame   0x00001134       0x2c /home/ishyro/.arduino15/packages/chipKIT/tools/pic32-tools/1.43-pic32gcc/bin/bin/../../lib/gcc/pic32mx/4.8.3/../../../../pic32mx/lib/size/libsupc++.a(del_op.o)
 .debug_frame   0x00001160       0xc0 /home/ishyro/.arduino15/packages/chipKIT/tools/pic32-tools/1.43-pic32gcc/bin/bin/../../lib/gcc/pic32mx/4.8.3/../../../../pic32mx/lib/size/libsupc++.a(si_class_type_info.o)
 .debug_frame   0x00001220       0x84 /home/ishyro/.arduino15/packages/chipKIT/tools/pic32-tools/1.43-pic32gcc/bin/bin/../../lib/gcc/pic32mx/4.8.3/../../../../pic32mx/lib/size/libsupc++.a(tinfo.o)
 .debug_frame   0x000012a4       0xec /home/ishyro/.arduino15/packages/chipKIT/tools/pic32-tools/1.43-pic32gcc/bin/bin/../../lib/gcc/pic32mx/4.8.3/../../../../pic32mx/lib/size/libsupc++.a(vmi_class_type_info.o)
 .debug_frame   0x00001390       0x40 /home/ishyro/.arduino15/packages/chipKIT/tools/pic32-tools/1.43-pic32gcc/bin/bin/../../lib/gcc/pic32mx/4.8.3/../../../../pic32mx/lib/size/libsupc++.a(pure.o)
 .debug_frame   0x000013d0       0x90 /home/ishyro/.arduino15/packages/chipKIT/tools/pic32-tools/1.43-pic32gcc/bin/bin/../../lib/gcc/pic32mx/4.8.3/../../../../pic32mx/lib/size/libsupc++.a(eh_terminate.o)

.debug_str      0x00000000      0xc89
 *(.debug_str)
 .debug_str     0x00000000        0x0 Board_Data.o
 .debug_str     0x00000000        0x0 cores/core_no_main.a(exceptions.c.o)
 .debug_str     0x00000000        0x7 cores/core_no_main.a(task_manager.c.o)
 .debug_str     0x00000007       0x22 cores/core_no_main.a(wiring.c.o)
 .debug_str     0x00000029        0x0 cores/core_no_main.a(wiring_digital.c.o)
 .debug_str     0x00000029      0x189 cores/core_no_main.a(USB.cpp.o)
 .debug_str     0x000001b2      0x2a4 cores/core_no_main.a(USB_CDCACM.cpp.o)
 .debug_str     0x00000456      0x154 cores/core_no_main.a(USB_FS.cpp.o)
 .debug_str     0x000005aa        0x0 cores/core_no_main.a(WSystem.c.o)
 .debug_str     0x000005aa        0x0 cores/core_no_main.a(pins_arduino.c.o)
 .debug_str     0x000005aa       0x21 cores/core_no_main.a(wiring_analog.c.o)
 .debug_str     0x000005cb      0x17e cores/core_no_main.a(Print.cpp.o)
 .debug_str     0x00000749        0xa cores/core_no_main.a(doprnt.cpp.o)
 .debug_str     0x00000753        0x0 /home/ishyro/.arduino15/packages/chipKIT/tools/pic32-tools/1.43-pic32gcc/bin/bin/../../lib/gcc/pic32mx/4.8.3/size/libgcc.a(adddf3.o)
 .debug_str     0x00000753        0x0 /home/ishyro/.arduino15/packages/chipKIT/tools/pic32-tools/1.43-pic32gcc/bin/bin/../../lib/gcc/pic32mx/4.8.3/size/libgcc.a(divdf3.o)
 .debug_str     0x00000753        0x0 /home/ishyro/.arduino15/packages/chipKIT/tools/pic32-tools/1.43-pic32gcc/bin/bin/../../lib/gcc/pic32mx/4.8.3/size/libgcc.a(eqdf2.o)
 .debug_str     0x00000753        0x0 /home/ishyro/.arduino15/packages/chipKIT/tools/pic32-tools/1.43-pic32gcc/bin/bin/../../lib/gcc/pic32mx/4.8.3/size/libgcc.a(gedf2.o)
 .debug_str     0x00000753        0x0 /home/ishyro/.arduino15/packages/chipKIT/tools/pic32-tools/1.43-pic32gcc/bin/bin/../../lib/gcc/pic32mx/4.8.3/size/libgcc.a(ledf2.o)
 .debug_str     0x00000753        0x0 /home/ishyro/.arduino15/packages/chipKIT/tools/pic32-tools/1.43-pic32gcc/bin/bin/../../lib/gcc/pic32mx/4.8.3/size/libgcc.a(muldf3.o)
 .debug_str     0x00000753        0x0 /home/ishyro/.arduino15/packages/chipKIT/tools/pic32-tools/1.43-pic32gcc/bin/bin/../../lib/gcc/pic32mx/4.8.3/size/libgcc.a(subdf3.o)
 .debug_str     0x00000753        0x0 /home/ishyro/.arduino15/packages/chipKIT/tools/pic32-tools/1.43-pic32gcc/bin/bin/../../lib/gcc/pic32mx/4.8.3/size/libgcc.a(fixdfsi.o)
 .debug_str     0x00000753        0x0 /home/ishyro/.arduino15/packages/chipKIT/tools/pic32-tools/1.43-pic32gcc/bin/bin/../../lib/gcc/pic32mx/4.8.3/size/libgcc.a(fixunsdfsi.o)
 .debug_str     0x00000753        0x0 /home/ishyro/.arduino15/packages/chipKIT/tools/pic32-tools/1.43-pic32gcc/bin/bin/../../lib/gcc/pic32mx/4.8.3/size/libgcc.a(floatsidf.o)
 .debug_str     0x00000753        0x0 /home/ishyro/.arduino15/packages/chipKIT/tools/pic32-tools/1.43-pic32gcc/bin/bin/../../lib/gcc/pic32mx/4.8.3/size/libgcc.a(floatunsidf.o)
 .debug_str     0x00000753      0x12e /home/ishyro/.arduino15/packages/chipKIT/tools/pic32-tools/1.43-pic32gcc/bin/bin/../../lib/gcc/pic32mx/4.8.3/../../../../pic32mx/lib/size/libsupc++.a(class_type_info.o)
 .debug_str     0x00000881       0x18 /home/ishyro/.arduino15/packages/chipKIT/tools/pic32-tools/1.43-pic32gcc/bin/bin/../../lib/gcc/pic32mx/4.8.3/../../../../pic32mx/lib/size/libsupc++.a(del_op.o)
 .debug_str     0x00000899      0x131 /home/ishyro/.arduino15/packages/chipKIT/tools/pic32-tools/1.43-pic32gcc/bin/bin/../../lib/gcc/pic32mx/4.8.3/../../../../pic32mx/lib/size/libsupc++.a(si_class_type_info.o)
 .debug_str     0x000009ca       0x27 /home/ishyro/.arduino15/packages/chipKIT/tools/pic32-tools/1.43-pic32gcc/bin/bin/../../lib/gcc/pic32mx/4.8.3/../../../../pic32mx/lib/size/libsupc++.a(tinfo.o)
 .debug_str     0x000009f1      0x238 /home/ishyro/.arduino15/packages/chipKIT/tools/pic32-tools/1.43-pic32gcc/bin/bin/../../lib/gcc/pic32mx/4.8.3/../../../../pic32mx/lib/size/libsupc++.a(vmi_class_type_info.o)
 .debug_str     0x00000c29       0x18 /home/ishyro/.arduino15/packages/chipKIT/tools/pic32-tools/1.43-pic32gcc/bin/bin/../../lib/gcc/pic32mx/4.8.3/../../../../pic32mx/lib/size/libsupc++.a(pure.o)
 .debug_str     0x00000c41       0x18 /home/ishyro/.arduino15/packages/chipKIT/tools/pic32-tools/1.43-pic32gcc/bin/bin/../../lib/gcc/pic32mx/4.8.3/../../../../pic32mx/lib/size/libsupc++.a(eh_terminate.o)
 .debug_str     0x00000c59       0x18 /home/ishyro/.arduino15/packages/chipKIT/tools/pic32-tools/1.43-pic32gcc/bin/bin/../../lib/gcc/pic32mx/4.8.3/../../../../pic32mx/lib/size/libsupc++.a(eh_unex_handler.o)
 .debug_str     0x00000c71       0x18 /home/ishyro/.arduino15/packages/chipKIT/tools/pic32-tools/1.43-pic32gcc/bin/bin/../../lib/gcc/pic32mx/4.8.3/../../../../pic32mx/lib/size/libsupc++.a(eh_term_handler.o)

.debug_loc      0x00000000     0xd1aa
 *(.debug_loc)
 .debug_loc     0x00000000      0x4da cores/core_no_main.a(task_manager.c.o)
 .debug_loc     0x000004da      0x554 cores/core_no_main.a(wiring.c.o)
 .debug_loc     0x00000a2e      0x2e0 cores/core_no_main.a(wiring_digital.c.o)
 .debug_loc     0x00000d0e      0xb7d cores/core_no_main.a(USB.cpp.o)
 .debug_loc     0x0000188b     0x1561 cores/core_no_main.a(USB_CDCACM.cpp.o)
 .debug_loc     0x00002dec      0x831 cores/core_no_main.a(USB_FS.cpp.o)
 .debug_loc     0x0000361d      0x4ca cores/core_no_main.a(WSystem.c.o)
 .debug_loc     0x00003ae7      0x34c cores/core_no_main.a(wiring_analog.c.o)
 .debug_loc     0x00003e33     0x17dc cores/core_no_main.a(Print.cpp.o)
 .debug_loc     0x0000560f     0x2855 cores/core_no_main.a(doprnt.cpp.o)
 .debug_loc     0x00007e64     0x1092 /home/ishyro/.arduino15/packages/chipKIT/tools/pic32-tools/1.43-pic32gcc/bin/bin/../../lib/gcc/pic32mx/4.8.3/size/libgcc.a(adddf3.o)
 .debug_loc     0x00008ef6      0xc81 /home/ishyro/.arduino15/packages/chipKIT/tools/pic32-tools/1.43-pic32gcc/bin/bin/../../lib/gcc/pic32mx/4.8.3/size/libgcc.a(divdf3.o)
 .debug_loc     0x00009b77       0x47 /home/ishyro/.arduino15/packages/chipKIT/tools/pic32-tools/1.43-pic32gcc/bin/bin/../../lib/gcc/pic32mx/4.8.3/size/libgcc.a(eqdf2.o)
 .debug_loc     0x00009bbe      0x176 /home/ishyro/.arduino15/packages/chipKIT/tools/pic32-tools/1.43-pic32gcc/bin/bin/../../lib/gcc/pic32mx/4.8.3/size/libgcc.a(gedf2.o)
 .debug_loc     0x00009d34       0xf7 /home/ishyro/.arduino15/packages/chipKIT/tools/pic32-tools/1.43-pic32gcc/bin/bin/../../lib/gcc/pic32mx/4.8.3/size/libgcc.a(ledf2.o)
 .debug_loc     0x00009e2b      0x8ad /home/ishyro/.arduino15/packages/chipKIT/tools/pic32-tools/1.43-pic32gcc/bin/bin/../../lib/gcc/pic32mx/4.8.3/size/libgcc.a(muldf3.o)
 .debug_loc     0x0000a6d8     0x10a8 /home/ishyro/.arduino15/packages/chipKIT/tools/pic32-tools/1.43-pic32gcc/bin/bin/../../lib/gcc/pic32mx/4.8.3/size/libgcc.a(subdf3.o)
 .debug_loc     0x0000b780       0xb8 /home/ishyro/.arduino15/packages/chipKIT/tools/pic32-tools/1.43-pic32gcc/bin/bin/../../lib/gcc/pic32mx/4.8.3/size/libgcc.a(fixdfsi.o)
 .debug_loc     0x0000b838       0xb8 /home/ishyro/.arduino15/packages/chipKIT/tools/pic32-tools/1.43-pic32gcc/bin/bin/../../lib/gcc/pic32mx/4.8.3/size/libgcc.a(fixunsdfsi.o)
 .debug_loc     0x0000b8f0      0x1ab /home/ishyro/.arduino15/packages/chipKIT/tools/pic32-tools/1.43-pic32gcc/bin/bin/../../lib/gcc/pic32mx/4.8.3/size/libgcc.a(floatsidf.o)
 .debug_loc     0x0000ba9b       0x80 /home/ishyro/.arduino15/packages/chipKIT/tools/pic32-tools/1.43-pic32gcc/bin/bin/../../lib/gcc/pic32mx/4.8.3/size/libgcc.a(floatunsidf.o)
 .debug_loc     0x0000bb1b      0x474 /home/ishyro/.arduino15/packages/chipKIT/tools/pic32-tools/1.43-pic32gcc/bin/bin/../../lib/gcc/pic32mx/4.8.3/../../../../pic32mx/lib/size/libsupc++.a(class_type_info.o)
 .debug_loc     0x0000bf8f       0x21 /home/ishyro/.arduino15/packages/chipKIT/tools/pic32-tools/1.43-pic32gcc/bin/bin/../../lib/gcc/pic32mx/4.8.3/../../../../pic32mx/lib/size/libsupc++.a(del_op.o)
 .debug_loc     0x0000bfb0      0x3f3 /home/ishyro/.arduino15/packages/chipKIT/tools/pic32-tools/1.43-pic32gcc/bin/bin/../../lib/gcc/pic32mx/4.8.3/../../../../pic32mx/lib/size/libsupc++.a(si_class_type_info.o)
 .debug_loc     0x0000c3a3       0x84 /home/ishyro/.arduino15/packages/chipKIT/tools/pic32-tools/1.43-pic32gcc/bin/bin/../../lib/gcc/pic32mx/4.8.3/../../../../pic32mx/lib/size/libsupc++.a(tinfo.o)
 .debug_loc     0x0000c427      0xd41 /home/ishyro/.arduino15/packages/chipKIT/tools/pic32-tools/1.43-pic32gcc/bin/bin/../../lib/gcc/pic32mx/4.8.3/../../../../pic32mx/lib/size/libsupc++.a(vmi_class_type_info.o)
 .debug_loc     0x0000d168       0x42 /home/ishyro/.arduino15/packages/chipKIT/tools/pic32-tools/1.43-pic32gcc/bin/bin/../../lib/gcc/pic32mx/4.8.3/../../../../pic32mx/lib/size/libsupc++.a(eh_terminate.o)

.debug_macinfo
 *(.debug_macinfo)

.debug_weaknames
 *(.debug_weaknames)

.debug_funcnames
 *(.debug_funcnames)

.debug_typenames
 *(.debug_typenames)

.debug_varnames
 *(.debug_varnames)

.debug_pubtypes
 *(.debug_pubtypes)

.debug_ranges   0x00000000     0x1ad8
 *(.debug_ranges)
 .debug_ranges  0x00000000       0x18 cores/core_no_main.a(exceptions.c.o)
 .debug_ranges  0x00000018       0x78 cores/core_no_main.a(task_manager.c.o)
 .debug_ranges  0x00000090      0x210 cores/core_no_main.a(vector_table.S.o)
 .debug_ranges  0x000002a0       0xa8 cores/core_no_main.a(wiring.c.o)
 .debug_ranges  0x00000348       0x28 cores/core_no_main.a(wiring_digital.c.o)
 .debug_ranges  0x00000370      0x250 cores/core_no_main.a(USB.cpp.o)
 .debug_ranges  0x000005c0      0x300 cores/core_no_main.a(USB_CDCACM.cpp.o)
 .debug_ranges  0x000008c0      0x1d0 cores/core_no_main.a(USB_FS.cpp.o)
 .debug_ranges  0x00000a90      0x110 cores/core_no_main.a(WSystem.c.o)
 .debug_ranges  0x00000ba0       0x10 cores/core_no_main.a(pins_arduino.c.o)
 .debug_ranges  0x00000bb0       0x58 cores/core_no_main.a(wiring_analog.c.o)
 .debug_ranges  0x00000c08      0x2e0 cores/core_no_main.a(Print.cpp.o)
 .debug_ranges  0x00000ee8      0x420 cores/core_no_main.a(doprnt.cpp.o)
 .debug_ranges  0x00001308      0x150 /home/ishyro/.arduino15/packages/chipKIT/tools/pic32-tools/1.43-pic32gcc/bin/bin/../../lib/gcc/pic32mx/4.8.3/size/libgcc.a(adddf3.o)
 .debug_ranges  0x00001458       0x60 /home/ishyro/.arduino15/packages/chipKIT/tools/pic32-tools/1.43-pic32gcc/bin/bin/../../lib/gcc/pic32mx/4.8.3/size/libgcc.a(divdf3.o)
 .debug_ranges  0x000014b8       0x18 /home/ishyro/.arduino15/packages/chipKIT/tools/pic32-tools/1.43-pic32gcc/bin/bin/../../lib/gcc/pic32mx/4.8.3/size/libgcc.a(gedf2.o)
 .debug_ranges  0x000014d0       0x18 /home/ishyro/.arduino15/packages/chipKIT/tools/pic32-tools/1.43-pic32gcc/bin/bin/../../lib/gcc/pic32mx/4.8.3/size/libgcc.a(ledf2.o)
 .debug_ranges  0x000014e8       0xc0 /home/ishyro/.arduino15/packages/chipKIT/tools/pic32-tools/1.43-pic32gcc/bin/bin/../../lib/gcc/pic32mx/4.8.3/size/libgcc.a(muldf3.o)
 .debug_ranges  0x000015a8      0x130 /home/ishyro/.arduino15/packages/chipKIT/tools/pic32-tools/1.43-pic32gcc/bin/bin/../../lib/gcc/pic32mx/4.8.3/size/libgcc.a(subdf3.o)
 .debug_ranges  0x000016d8       0x18 /home/ishyro/.arduino15/packages/chipKIT/tools/pic32-tools/1.43-pic32gcc/bin/bin/../../lib/gcc/pic32mx/4.8.3/size/libgcc.a(floatsidf.o)
 .debug_ranges  0x000016f0       0x48 /home/ishyro/.arduino15/packages/chipKIT/tools/pic32-tools/1.43-pic32gcc/bin/bin/../../lib/gcc/pic32mx/4.8.3/../../../../pic32mx/lib/size/libsupc++.a(class_type_info.o)
 .debug_ranges  0x00001738       0x10 /home/ishyro/.arduino15/packages/chipKIT/tools/pic32-tools/1.43-pic32gcc/bin/bin/../../lib/gcc/pic32mx/4.8.3/../../../../pic32mx/lib/size/libsupc++.a(del_op.o)
 .debug_ranges  0x00001748       0x38 /home/ishyro/.arduino15/packages/chipKIT/tools/pic32-tools/1.43-pic32gcc/bin/bin/../../lib/gcc/pic32mx/4.8.3/../../../../pic32mx/lib/size/libsupc++.a(si_class_type_info.o)
 .debug_ranges  0x00001780       0x50 /home/ishyro/.arduino15/packages/chipKIT/tools/pic32-tools/1.43-pic32gcc/bin/bin/../../lib/gcc/pic32mx/4.8.3/../../../../pic32mx/lib/size/libsupc++.a(tinfo.o)
 .debug_ranges  0x000017d0      0x2b8 /home/ishyro/.arduino15/packages/chipKIT/tools/pic32-tools/1.43-pic32gcc/bin/bin/../../lib/gcc/pic32mx/4.8.3/../../../../pic32mx/lib/size/libsupc++.a(vmi_class_type_info.o)
 .debug_ranges  0x00001a88       0x18 /home/ishyro/.arduino15/packages/chipKIT/tools/pic32-tools/1.43-pic32gcc/bin/bin/../../lib/gcc/pic32mx/4.8.3/../../../../pic32mx/lib/size/libsupc++.a(pure.o)
 .debug_ranges  0x00001aa0       0x38 /home/ishyro/.arduino15/packages/chipKIT/tools/pic32-tools/1.43-pic32gcc/bin/bin/../../lib/gcc/pic32mx/4.8.3/../../../../pic32mx/lib/size/libsupc++.a(eh_terminate.o)

.gnu.attributes
                0x00000000       0x10
 *(.gnu.attributes)
 .gnu.attributes
                0x00000000       0x10 /tmp/ccmZprsd.o
 .gnu.attributes
                0x00000010       0x10 Board_Data.o
 .gnu.attributes
                0x00000020       0x10 cores/core_no_main.a(exceptions.c.o)
 .gnu.attributes
                0x00000030       0x10 cores/core_no_main.a(task_manager.c.o)
 .gnu.attributes
                0x00000040       0x10 cores/core_no_main.a(wiring.c.o)
 .gnu.attributes
                0x00000050       0x10 cores/core_no_main.a(wiring_digital.c.o)
 .gnu.attributes
                0x00000060       0x10 cores/core_no_main.a(USB.cpp.o)
 .gnu.attributes
                0x00000070       0x10 cores/core_no_main.a(USB_CDCACM.cpp.o)
 .gnu.attributes
                0x00000080       0x10 cores/core_no_main.a(USB_FS.cpp.o)
 .gnu.attributes
                0x00000090       0x10 cores/core_no_main.a(WSystem.c.o)
 .gnu.attributes
                0x000000a0       0x10 cores/core_no_main.a(pins_arduino.c.o)
 .gnu.attributes
                0x000000b0       0x10 cores/core_no_main.a(wiring_analog.c.o)
 .gnu.attributes
                0x000000c0       0x10 cores/core_no_main.a(Print.cpp.o)
 .gnu.attributes
                0x000000d0       0x10 cores/core_no_main.a(doprnt.cpp.o)
 .gnu.attributes
                0x000000e0       0x10 /home/ishyro/.arduino15/packages/chipKIT/tools/pic32-tools/1.43-pic32gcc/bin/bin/../../lib/gcc/pic32mx/4.8.3/../../../../pic32mx/lib/size/libm.a(lib_a-s_fpclassify.o)
 .gnu.attributes
                0x000000f0       0x10 /home/ishyro/.arduino15/packages/chipKIT/tools/pic32-tools/1.43-pic32gcc/bin/bin/../../lib/gcc/pic32mx/4.8.3/../../../../pic32mx/lib/size/libm.a(lib_a-s_modf.o)
 .gnu.attributes
                0x00000100       0x10 /home/ishyro/.arduino15/packages/chipKIT/tools/pic32-tools/1.43-pic32gcc/bin/bin/../../lib/gcc/pic32mx/4.8.3/size/crtbegin.o
 .gnu.attributes
                0x00000110       0x10 /home/ishyro/.arduino15/packages/chipKIT/tools/pic32-tools/1.43-pic32gcc/bin/bin/../../lib/gcc/pic32mx/4.8.3/size/crtend.o
 .gnu.attributes
                0x00000120       0x10 /home/ishyro/.arduino15/packages/chipKIT/tools/pic32-tools/1.43-pic32gcc/bin/bin/../../lib/gcc/pic32mx/4.8.3/size/libgcc.a(adddf3.o)
 .gnu.attributes
                0x00000130       0x10 /home/ishyro/.arduino15/packages/chipKIT/tools/pic32-tools/1.43-pic32gcc/bin/bin/../../lib/gcc/pic32mx/4.8.3/size/libgcc.a(divdf3.o)
 .gnu.attributes
                0x00000140       0x10 /home/ishyro/.arduino15/packages/chipKIT/tools/pic32-tools/1.43-pic32gcc/bin/bin/../../lib/gcc/pic32mx/4.8.3/size/libgcc.a(eqdf2.o)
 .gnu.attributes
                0x00000150       0x10 /home/ishyro/.arduino15/packages/chipKIT/tools/pic32-tools/1.43-pic32gcc/bin/bin/../../lib/gcc/pic32mx/4.8.3/size/libgcc.a(gedf2.o)
 .gnu.attributes
                0x00000160       0x10 /home/ishyro/.arduino15/packages/chipKIT/tools/pic32-tools/1.43-pic32gcc/bin/bin/../../lib/gcc/pic32mx/4.8.3/size/libgcc.a(ledf2.o)
 .gnu.attributes
                0x00000170       0x10 /home/ishyro/.arduino15/packages/chipKIT/tools/pic32-tools/1.43-pic32gcc/bin/bin/../../lib/gcc/pic32mx/4.8.3/size/libgcc.a(muldf3.o)
 .gnu.attributes
                0x00000180       0x10 /home/ishyro/.arduino15/packages/chipKIT/tools/pic32-tools/1.43-pic32gcc/bin/bin/../../lib/gcc/pic32mx/4.8.3/size/libgcc.a(subdf3.o)
 .gnu.attributes
                0x00000190       0x10 /home/ishyro/.arduino15/packages/chipKIT/tools/pic32-tools/1.43-pic32gcc/bin/bin/../../lib/gcc/pic32mx/4.8.3/size/libgcc.a(fixdfsi.o)
 .gnu.attributes
                0x000001a0       0x10 /home/ishyro/.arduino15/packages/chipKIT/tools/pic32-tools/1.43-pic32gcc/bin/bin/../../lib/gcc/pic32mx/4.8.3/size/libgcc.a(fixunsdfsi.o)
 .gnu.attributes
                0x000001b0       0x10 /home/ishyro/.arduino15/packages/chipKIT/tools/pic32-tools/1.43-pic32gcc/bin/bin/../../lib/gcc/pic32mx/4.8.3/size/libgcc.a(floatsidf.o)
 .gnu.attributes
                0x000001c0       0x10 /home/ishyro/.arduino15/packages/chipKIT/tools/pic32-tools/1.43-pic32gcc/bin/bin/../../lib/gcc/pic32mx/4.8.3/size/libgcc.a(floatunsidf.o)
 .gnu.attributes
                0x000001d0       0x10 /home/ishyro/.arduino15/packages/chipKIT/tools/pic32-tools/1.43-pic32gcc/bin/bin/../../lib/gcc/pic32mx/4.8.3/../../../../pic32mx/lib/size/libc.a(lib_a-errno.o)
 .gnu.attributes
                0x000001e0       0x10 /home/ishyro/.arduino15/packages/chipKIT/tools/pic32-tools/1.43-pic32gcc/bin/bin/../../lib/gcc/pic32mx/4.8.3/../../../../pic32mx/lib/size/libc.a(lib_a-impure.o)
 .gnu.attributes
                0x000001f0       0x10 /home/ishyro/.arduino15/packages/chipKIT/tools/pic32-tools/1.43-pic32gcc/bin/bin/../../lib/gcc/pic32mx/4.8.3/../../../../pic32mx/lib/size/libc.a(lib_a-malloc.o)
 .gnu.attributes
                0x00000200       0x10 /home/ishyro/.arduino15/packages/chipKIT/tools/pic32-tools/1.43-pic32gcc/bin/bin/../../lib/gcc/pic32mx/4.8.3/../../../../pic32mx/lib/size/libc.a(lib_a-mallocr.o)
 .gnu.attributes
                0x00000210       0x10 /home/ishyro/.arduino15/packages/chipKIT/tools/pic32-tools/1.43-pic32gcc/bin/bin/../../lib/gcc/pic32mx/4.8.3/../../../../pic32mx/lib/size/libc.a(lib_a-memcpy.o)
 .gnu.attributes
                0x00000220       0x10 /home/ishyro/.arduino15/packages/chipKIT/tools/pic32-tools/1.43-pic32gcc/bin/bin/../../lib/gcc/pic32mx/4.8.3/../../../../pic32mx/lib/size/libc.a(lib_a-mlock.o)
 .gnu.attributes
                0x00000230       0x10 /home/ishyro/.arduino15/packages/chipKIT/tools/pic32-tools/1.43-pic32gcc/bin/bin/../../lib/gcc/pic32mx/4.8.3/../../../../pic32mx/lib/size/libc.a(lib_a-sbrkr.o)
 .gnu.attributes
                0x00000240       0x10 /home/ishyro/.arduino15/packages/chipKIT/tools/pic32-tools/1.43-pic32gcc/bin/bin/../../lib/gcc/pic32mx/4.8.3/../../../../pic32mx/lib/size/libc.a(lib_a-strlen.o)
 .gnu.attributes
                0x00000250       0x10 /home/ishyro/.arduino15/packages/chipKIT/tools/pic32-tools/1.43-pic32gcc/bin/bin/../../lib/gcc/pic32mx/4.8.3/../../../../pic32mx/lib/size/libc.a(lib_a-freer.o)
 .gnu.attributes
                0x00000260       0x10 /home/ishyro/.arduino15/packages/chipKIT/tools/pic32-tools/1.43-pic32gcc/bin/bin/../../lib/gcc/pic32mx/4.8.3/../../../../pic32mx/lib/size/libc.a(lib_a-reent.o)
 .gnu.attributes
                0x00000270       0x10 /home/ishyro/.arduino15/packages/chipKIT/tools/pic32-tools/1.43-pic32gcc/bin/bin/../../lib/gcc/pic32mx/4.8.3/../../../../pic32mx/lib/size/libsupc++.a(class_type_info.o)
 .gnu.attributes
                0x00000280       0x10 /home/ishyro/.arduino15/packages/chipKIT/tools/pic32-tools/1.43-pic32gcc/bin/bin/../../lib/gcc/pic32mx/4.8.3/../../../../pic32mx/lib/size/libsupc++.a(del_op.o)
 .gnu.attributes
                0x00000290       0x10 /home/ishyro/.arduino15/packages/chipKIT/tools/pic32-tools/1.43-pic32gcc/bin/bin/../../lib/gcc/pic32mx/4.8.3/../../../../pic32mx/lib/size/libsupc++.a(si_class_type_info.o)
 .gnu.attributes
                0x000002a0       0x10 /home/ishyro/.arduino15/packages/chipKIT/tools/pic32-tools/1.43-pic32gcc/bin/bin/../../lib/gcc/pic32mx/4.8.3/../../../../pic32mx/lib/size/libsupc++.a(tinfo.o)
 .gnu.attributes
                0x000002b0       0x10 /home/ishyro/.arduino15/packages/chipKIT/tools/pic32-tools/1.43-pic32gcc/bin/bin/../../lib/gcc/pic32mx/4.8.3/../../../../pic32mx/lib/size/libsupc++.a(vmi_class_type_info.o)
 .gnu.attributes
                0x000002c0       0x10 /home/ishyro/.arduino15/packages/chipKIT/tools/pic32-tools/1.43-pic32gcc/bin/bin/../../lib/gcc/pic32mx/4.8.3/../../../../pic32mx/lib/size/libsupc++.a(pure.o)
 .gnu.attributes
                0x000002d0       0x10 /home/ishyro/.arduino15/packages/chipKIT/tools/pic32-tools/1.43-pic32gcc/bin/bin/../../lib/gcc/pic32mx/4.8.3/../../../../pic32mx/lib/size/libsupc++.a(eh_terminate.o)
 .gnu.attributes
                0x000002e0       0x10 /home/ishyro/.arduino15/packages/chipKIT/tools/pic32-tools/1.43-pic32gcc/bin/bin/../../lib/gcc/pic32mx/4.8.3/../../../../pic32mx/lib/size/libsupc++.a(eh_unex_handler.o)
 .gnu.attributes
                0x000002f0       0x10 /home/ishyro/.arduino15/packages/chipKIT/tools/pic32-tools/1.43-pic32gcc/bin/bin/../../lib/gcc/pic32mx/4.8.3/../../../../pic32mx/lib/size/libsupc++.a(eh_term_handler.o)
 .gnu.attributes
                0x00000300       0x10 /home/ishyro/.arduino15/packages/chipKIT/tools/pic32-tools/1.43-pic32gcc/bin/bin/../../lib/gcc/pic32mx/4.8.3/../../../../pic32mx/lib/size/libpic32.a(sbrk.o)
 .gnu.attributes
                0x00000310       0x10 /home/ishyro/.arduino15/packages/chipKIT/tools/pic32-tools/1.43-pic32gcc/bin/bin/../../lib/gcc/pic32mx/4.8.3/../../../../pic32mx/lib/size/libpic32.a(default-bootstrap-exception-handler.o)
 .gnu.attributes
                0x00000320       0x10 /home/ishyro/.arduino15/packages/chipKIT/tools/pic32-tools/1.43-pic32gcc/bin/bin/../../lib/gcc/pic32mx/4.8.3/../../../../pic32mx/lib/size/libpic32.a(default-on-reset.o)
 .gnu.attributes
                0x00000330       0x10 /home/ishyro/.arduino15/packages/chipKIT/tools/pic32-tools/1.43-pic32gcc/bin/bin/../../lib/gcc/pic32mx/4.8.3/../../../../pic32mx/lib/size/libpic32.a(default-on-bootstrap.o)
 .gnu.attributes
                0x00000340       0x10 /home/ishyro/.arduino15/packages/chipKIT/tools/pic32-tools/1.43-pic32gcc/bin/bin/../../lib/gcc/pic32mx/4.8.3/../../../../pic32mx/lib/size/libc.a(lib_a-abort.o)
 .gnu.attributes
                0x00000350       0x10 /home/ishyro/.arduino15/packages/chipKIT/tools/pic32-tools/1.43-pic32gcc/bin/bin/../../lib/gcc/pic32mx/4.8.3/../../../../pic32mx/lib/size/libc.a(lib_a-memset.o)
 .gnu.attributes
                0x00000360       0x10 /home/ishyro/.arduino15/packages/chipKIT/tools/pic32-tools/1.43-pic32gcc/bin/bin/../../lib/gcc/pic32mx/4.8.3/../../../../pic32mx/lib/size/libc.a(lib_a-signal.o)
 .gnu.attributes
                0x00000370       0x10 /home/ishyro/.arduino15/packages/chipKIT/tools/pic32-tools/1.43-pic32gcc/bin/bin/../../lib/gcc/pic32mx/4.8.3/../../../../pic32mx/lib/size/libc.a(lib_a-signalr.o)
 .gnu.attributes
                0x00000380       0x10 /home/ishyro/.arduino15/packages/chipKIT/tools/pic32-tools/1.43-pic32gcc/bin/bin/../../lib/gcc/pic32mx/4.8.3/../../../../pic32mx/lib/size/libc.a(lib_a-strcmp.o)
 .gnu.attributes
                0x00000390       0x10 /home/ishyro/.arduino15/packages/chipKIT/tools/pic32-tools/1.43-pic32gcc/bin/bin/../../lib/gcc/pic32mx/4.8.3/../../../../pic32mx/lib/size/libpic32.a(_exit.o)
 .gnu.attributes
                0x000003a0       0x10 /home/ishyro/.arduino15/packages/chipKIT/tools/pic32-tools/1.43-pic32gcc/bin/bin/../../lib/gcc/pic32mx/4.8.3/../../../../pic32mx/lib/size/libpic32.a(kill.o)
 .gnu.attributes
                0x000003b0       0x10 /home/ishyro/.arduino15/packages/chipKIT/tools/pic32-tools/1.43-pic32gcc/bin/bin/../../lib/gcc/pic32mx/4.8.3/../../../../pic32mx/lib/size/libpic32.a(getpid.o)
 *(.gnu.attributes)

.gptab.sdata
 *(.gptab.data)
 *(.gptab.sdata)

.gptab.sbss
 *(.gptab.bss)
 *(.gptab.sbss)

.mdebug.abi32   0xa0000758        0x0
 *(.mdebug.abi32)
 .mdebug.abi32  0xa0000758        0x0 /tmp/ccmZprsd.o
 .mdebug.abi32  0xa0000758        0x0 Board_Data.o
 .mdebug.abi32  0xa0000758        0x0 cores/core_no_main.a(exceptions.c.o)
 .mdebug.abi32  0xa0000758        0x0 cores/core_no_main.a(task_manager.c.o)
 .mdebug.abi32  0xa0000758        0x0 cores/core_no_main.a(wiring.c.o)
 .mdebug.abi32  0xa0000758        0x0 cores/core_no_main.a(wiring_digital.c.o)
 .mdebug.abi32  0xa0000758        0x0 cores/core_no_main.a(USB.cpp.o)
 .mdebug.abi32  0xa0000758        0x0 cores/core_no_main.a(USB_CDCACM.cpp.o)
 .mdebug.abi32  0xa0000758        0x0 cores/core_no_main.a(USB_FS.cpp.o)
 .mdebug.abi32  0xa0000758        0x0 cores/core_no_main.a(WSystem.c.o)
 .mdebug.abi32  0xa0000758        0x0 cores/core_no_main.a(pins_arduino.c.o)
 .mdebug.abi32  0xa0000758        0x0 cores/core_no_main.a(wiring_analog.c.o)
 .mdebug.abi32  0xa0000758        0x0 cores/core_no_main.a(Print.cpp.o)
 .mdebug.abi32  0xa0000758        0x0 cores/core_no_main.a(doprnt.cpp.o)
 .mdebug.abi32  0xa0000758        0x0 /home/ishyro/.arduino15/packages/chipKIT/tools/pic32-tools/1.43-pic32gcc/bin/bin/../../lib/gcc/pic32mx/4.8.3/../../../../pic32mx/lib/size/libm.a(lib_a-s_fpclassify.o)
 .mdebug.abi32  0xa0000758        0x0 /home/ishyro/.arduino15/packages/chipKIT/tools/pic32-tools/1.43-pic32gcc/bin/bin/../../lib/gcc/pic32mx/4.8.3/../../../../pic32mx/lib/size/libm.a(lib_a-s_modf.o)
 .mdebug.abi32  0xa0000758        0x0 /home/ishyro/.arduino15/packages/chipKIT/tools/pic32-tools/1.43-pic32gcc/bin/bin/../../lib/gcc/pic32mx/4.8.3/size/crtbegin.o
 .mdebug.abi32  0xa0000758        0x0 /home/ishyro/.arduino15/packages/chipKIT/tools/pic32-tools/1.43-pic32gcc/bin/bin/../../lib/gcc/pic32mx/4.8.3/size/crtend.o
 .mdebug.abi32  0xa0000758        0x0 /home/ishyro/.arduino15/packages/chipKIT/tools/pic32-tools/1.43-pic32gcc/bin/bin/../../lib/gcc/pic32mx/4.8.3/size/libgcc.a(adddf3.o)
 .mdebug.abi32  0xa0000758        0x0 /home/ishyro/.arduino15/packages/chipKIT/tools/pic32-tools/1.43-pic32gcc/bin/bin/../../lib/gcc/pic32mx/4.8.3/size/libgcc.a(divdf3.o)
 .mdebug.abi32  0xa0000758        0x0 /home/ishyro/.arduino15/packages/chipKIT/tools/pic32-tools/1.43-pic32gcc/bin/bin/../../lib/gcc/pic32mx/4.8.3/size/libgcc.a(eqdf2.o)
 .mdebug.abi32  0xa0000758        0x0 /home/ishyro/.arduino15/packages/chipKIT/tools/pic32-tools/1.43-pic32gcc/bin/bin/../../lib/gcc/pic32mx/4.8.3/size/libgcc.a(gedf2.o)
 .mdebug.abi32  0xa0000758        0x0 /home/ishyro/.arduino15/packages/chipKIT/tools/pic32-tools/1.43-pic32gcc/bin/bin/../../lib/gcc/pic32mx/4.8.3/size/libgcc.a(ledf2.o)
 .mdebug.abi32  0xa0000758        0x0 /home/ishyro/.arduino15/packages/chipKIT/tools/pic32-tools/1.43-pic32gcc/bin/bin/../../lib/gcc/pic32mx/4.8.3/size/libgcc.a(muldf3.o)
 .mdebug.abi32  0xa0000758        0x0 /home/ishyro/.arduino15/packages/chipKIT/tools/pic32-tools/1.43-pic32gcc/bin/bin/../../lib/gcc/pic32mx/4.8.3/size/libgcc.a(subdf3.o)
 .mdebug.abi32  0xa0000758        0x0 /home/ishyro/.arduino15/packages/chipKIT/tools/pic32-tools/1.43-pic32gcc/bin/bin/../../lib/gcc/pic32mx/4.8.3/size/libgcc.a(fixdfsi.o)
 .mdebug.abi32  0xa0000758        0x0 /home/ishyro/.arduino15/packages/chipKIT/tools/pic32-tools/1.43-pic32gcc/bin/bin/../../lib/gcc/pic32mx/4.8.3/size/libgcc.a(fixunsdfsi.o)
 .mdebug.abi32  0xa0000758        0x0 /home/ishyro/.arduino15/packages/chipKIT/tools/pic32-tools/1.43-pic32gcc/bin/bin/../../lib/gcc/pic32mx/4.8.3/size/libgcc.a(floatsidf.o)
 .mdebug.abi32  0xa0000758        0x0 /home/ishyro/.arduino15/packages/chipKIT/tools/pic32-tools/1.43-pic32gcc/bin/bin/../../lib/gcc/pic32mx/4.8.3/size/libgcc.a(floatunsidf.o)
 .mdebug.abi32  0xa0000758        0x0 /home/ishyro/.arduino15/packages/chipKIT/tools/pic32-tools/1.43-pic32gcc/bin/bin/../../lib/gcc/pic32mx/4.8.3/../../../../pic32mx/lib/size/libc.a(lib_a-errno.o)
 .mdebug.abi32  0xa0000758        0x0 /home/ishyro/.arduino15/packages/chipKIT/tools/pic32-tools/1.43-pic32gcc/bin/bin/../../lib/gcc/pic32mx/4.8.3/../../../../pic32mx/lib/size/libc.a(lib_a-impure.o)
 .mdebug.abi32  0xa0000758        0x0 /home/ishyro/.arduino15/packages/chipKIT/tools/pic32-tools/1.43-pic32gcc/bin/bin/../../lib/gcc/pic32mx/4.8.3/../../../../pic32mx/lib/size/libc.a(lib_a-malloc.o)
 .mdebug.abi32  0xa0000758        0x0 /home/ishyro/.arduino15/packages/chipKIT/tools/pic32-tools/1.43-pic32gcc/bin/bin/../../lib/gcc/pic32mx/4.8.3/../../../../pic32mx/lib/size/libc.a(lib_a-mallocr.o)
 .mdebug.abi32  0xa0000758        0x0 /home/ishyro/.arduino15/packages/chipKIT/tools/pic32-tools/1.43-pic32gcc/bin/bin/../../lib/gcc/pic32mx/4.8.3/../../../../pic32mx/lib/size/libc.a(lib_a-memcpy.o)
 .mdebug.abi32  0xa0000758        0x0 /home/ishyro/.arduino15/packages/chipKIT/tools/pic32-tools/1.43-pic32gcc/bin/bin/../../lib/gcc/pic32mx/4.8.3/../../../../pic32mx/lib/size/libc.a(lib_a-mlock.o)
 .mdebug.abi32  0xa0000758        0x0 /home/ishyro/.arduino15/packages/chipKIT/tools/pic32-tools/1.43-pic32gcc/bin/bin/../../lib/gcc/pic32mx/4.8.3/../../../../pic32mx/lib/size/libc.a(lib_a-sbrkr.o)
 .mdebug.abi32  0xa0000758        0x0 /home/ishyro/.arduino15/packages/chipKIT/tools/pic32-tools/1.43-pic32gcc/bin/bin/../../lib/gcc/pic32mx/4.8.3/../../../../pic32mx/lib/size/libc.a(lib_a-strlen.o)
 .mdebug.abi32  0xa0000758        0x0 /home/ishyro/.arduino15/packages/chipKIT/tools/pic32-tools/1.43-pic32gcc/bin/bin/../../lib/gcc/pic32mx/4.8.3/../../../../pic32mx/lib/size/libc.a(lib_a-freer.o)
 .mdebug.abi32  0xa0000758        0x0 /home/ishyro/.arduino15/packages/chipKIT/tools/pic32-tools/1.43-pic32gcc/bin/bin/../../lib/gcc/pic32mx/4.8.3/../../../../pic32mx/lib/size/libc.a(lib_a-reent.o)
 .mdebug.abi32  0xa0000758        0x0 /home/ishyro/.arduino15/packages/chipKIT/tools/pic32-tools/1.43-pic32gcc/bin/bin/../../lib/gcc/pic32mx/4.8.3/../../../../pic32mx/lib/size/libsupc++.a(class_type_info.o)
 .mdebug.abi32  0xa0000758        0x0 /home/ishyro/.arduino15/packages/chipKIT/tools/pic32-tools/1.43-pic32gcc/bin/bin/../../lib/gcc/pic32mx/4.8.3/../../../../pic32mx/lib/size/libsupc++.a(del_op.o)
 .mdebug.abi32  0xa0000758        0x0 /home/ishyro/.arduino15/packages/chipKIT/tools/pic32-tools/1.43-pic32gcc/bin/bin/../../lib/gcc/pic32mx/4.8.3/../../../../pic32mx/lib/size/libsupc++.a(si_class_type_info.o)
 .mdebug.abi32  0xa0000758        0x0 /home/ishyro/.arduino15/packages/chipKIT/tools/pic32-tools/1.43-pic32gcc/bin/bin/../../lib/gcc/pic32mx/4.8.3/../../../../pic32mx/lib/size/libsupc++.a(tinfo.o)
 .mdebug.abi32  0xa0000758        0x0 /home/ishyro/.arduino15/packages/chipKIT/tools/pic32-tools/1.43-pic32gcc/bin/bin/../../lib/gcc/pic32mx/4.8.3/../../../../pic32mx/lib/size/libsupc++.a(vmi_class_type_info.o)
 .mdebug.abi32  0xa0000758        0x0 /home/ishyro/.arduino15/packages/chipKIT/tools/pic32-tools/1.43-pic32gcc/bin/bin/../../lib/gcc/pic32mx/4.8.3/../../../../pic32mx/lib/size/libsupc++.a(pure.o)
 .mdebug.abi32  0xa0000758        0x0 /home/ishyro/.arduino15/packages/chipKIT/tools/pic32-tools/1.43-pic32gcc/bin/bin/../../lib/gcc/pic32mx/4.8.3/../../../../pic32mx/lib/size/libsupc++.a(eh_terminate.o)
 .mdebug.abi32  0xa0000758        0x0 /home/ishyro/.arduino15/packages/chipKIT/tools/pic32-tools/1.43-pic32gcc/bin/bin/../../lib/gcc/pic32mx/4.8.3/../../../../pic32mx/lib/size/libsupc++.a(eh_unex_handler.o)
 .mdebug.abi32  0xa0000758        0x0 /home/ishyro/.arduino15/packages/chipKIT/tools/pic32-tools/1.43-pic32gcc/bin/bin/../../lib/gcc/pic32mx/4.8.3/../../../../pic32mx/lib/size/libsupc++.a(eh_term_handler.o)
 .mdebug.abi32  0xa0000758        0x0 /home/ishyro/.arduino15/packages/chipKIT/tools/pic32-tools/1.43-pic32gcc/bin/bin/../../lib/gcc/pic32mx/4.8.3/../../../../pic32mx/lib/size/libpic32.a(sbrk.o)
 .mdebug.abi32  0xa0000758        0x0 /home/ishyro/.arduino15/packages/chipKIT/tools/pic32-tools/1.43-pic32gcc/bin/bin/../../lib/gcc/pic32mx/4.8.3/../../../../pic32mx/lib/size/libpic32.a(default-bootstrap-exception-handler.o)
 .mdebug.abi32  0xa0000758        0x0 /home/ishyro/.arduino15/packages/chipKIT/tools/pic32-tools/1.43-pic32gcc/bin/bin/../../lib/gcc/pic32mx/4.8.3/../../../../pic32mx/lib/size/libpic32.a(default-on-reset.o)
 .mdebug.abi32  0xa0000758        0x0 /home/ishyro/.arduino15/packages/chipKIT/tools/pic32-tools/1.43-pic32gcc/bin/bin/../../lib/gcc/pic32mx/4.8.3/../../../../pic32mx/lib/size/libpic32.a(default-on-bootstrap.o)
 .mdebug.abi32  0xa0000758        0x0 /home/ishyro/.arduino15/packages/chipKIT/tools/pic32-tools/1.43-pic32gcc/bin/bin/../../lib/gcc/pic32mx/4.8.3/../../../../pic32mx/lib/size/libc.a(lib_a-abort.o)
 .mdebug.abi32  0xa0000758        0x0 /home/ishyro/.arduino15/packages/chipKIT/tools/pic32-tools/1.43-pic32gcc/bin/bin/../../lib/gcc/pic32mx/4.8.3/../../../../pic32mx/lib/size/libc.a(lib_a-memset.o)
 .mdebug.abi32  0xa0000758        0x0 /home/ishyro/.arduino15/packages/chipKIT/tools/pic32-tools/1.43-pic32gcc/bin/bin/../../lib/gcc/pic32mx/4.8.3/../../../../pic32mx/lib/size/libc.a(lib_a-signal.o)
 .mdebug.abi32  0xa0000758        0x0 /home/ishyro/.arduino15/packages/chipKIT/tools/pic32-tools/1.43-pic32gcc/bin/bin/../../lib/gcc/pic32mx/4.8.3/../../../../pic32mx/lib/size/libc.a(lib_a-signalr.o)
 .mdebug.abi32  0xa0000758        0x0 /home/ishyro/.arduino15/packages/chipKIT/tools/pic32-tools/1.43-pic32gcc/bin/bin/../../lib/gcc/pic32mx/4.8.3/../../../../pic32mx/lib/size/libc.a(lib_a-strcmp.o)
 .mdebug.abi32  0xa0000758        0x0 /home/ishyro/.arduino15/packages/chipKIT/tools/pic32-tools/1.43-pic32gcc/bin/bin/../../lib/gcc/pic32mx/4.8.3/../../../../pic32mx/lib/size/libpic32.a(_exit.o)
 .mdebug.abi32  0xa0000758        0x0 /home/ishyro/.arduino15/packages/chipKIT/tools/pic32-tools/1.43-pic32gcc/bin/bin/../../lib/gcc/pic32mx/4.8.3/../../../../pic32mx/lib/size/libpic32.a(kill.o)
 .mdebug.abi32  0xa0000758        0x0 /home/ishyro/.arduino15/packages/chipKIT/tools/pic32-tools/1.43-pic32gcc/bin/bin/../../lib/gcc/pic32mx/4.8.3/../../../../pic32mx/lib/size/libpic32.a(getpid.o)

.mdebug.abiN32
 *(.mdebug.abiN32)

.mdebug.abi64
 *(.mdebug.abi64)

.mdebug.abiO64
 *(.mdebug.abiO64)

.mdebug.eabi32
 *(.mdebug.eabi32)

.mdebug.eabi64
 *(.mdebug.eabi64)
LOAD /home/ishyro/.arduino15/packages/chipKIT/tools/pic32-tools/1.43-pic32gcc/bin/bin/../../lib/gcc/pic32mx/4.8.3/size/libgcc.a
START GROUP
LOAD /home/ishyro/.arduino15/packages/chipKIT/tools/pic32-tools/1.43-pic32gcc/bin/bin/../../lib/gcc/pic32mx/4.8.3/../../../../pic32mx/lib/size/libc.a
LOAD /home/ishyro/.arduino15/packages/chipKIT/tools/pic32-tools/1.43-pic32gcc/bin/bin/../../lib/gcc/pic32mx/4.8.3/../../../../pic32mx/lib/size/libsupc++.a
LOAD /home/ishyro/.arduino15/packages/chipKIT/tools/pic32-tools/1.43-pic32gcc/bin/bin/../../lib/gcc/pic32mx/4.8.3/../../../../pic32mx/lib/size/libpic32.a
LOAD /home/ishyro/.arduino15/packages/chipKIT/tools/pic32-tools/1.43-pic32gcc/bin/bin/../../lib/gcc/pic32mx/4.8.3/size/libgcc.a
LOAD /home/ishyro/.arduino15/packages/chipKIT/tools/pic32-tools/1.43-pic32gcc/bin/bin/../../lib/gcc/pic32mx/4.8.3/../../../../pic32mx/lib/size/libm.a
END GROUP
LOAD /home/ishyro/.arduino15/packages/chipKIT/tools/pic32-tools/1.43-pic32gcc/bin/bin/../../lib/gcc/pic32mx/4.8.3/size/libgcc.a
OUTPUT(test.elf elf32-tradlittlemips)
LOAD stack
LOAD data_init

.stack          0xa0001e40      0x800
 .stack         0xa0001e40      0x800 stack

.bss.usbDriver.usbDriver
                0xa0000800      0x600
 .bss.usbDriver.usbDriver
                0xa0000800      0x600 cores/core_no_main.a(USB.cpp.o)
                0xa0000800                usbDriver

.data.impure_data.impure_data
                0xa0000e00      0x418
 .data.impure_data.impure_data
                0xa0000e00      0x418 /home/ishyro/.arduino15/packages/chipKIT/tools/pic32-tools/1.43-pic32gcc/bin/bin/../../lib/gcc/pic32mx/4.8.3/../../../../pic32mx/lib/size/libc.a(lib_a-impure.o)

.data.__malloc_av_.__malloc_av_
                0xa0001218      0x408
 .data.__malloc_av_.__malloc_av_
                0xa0001218      0x408 /home/ishyro/.arduino15/packages/chipKIT/tools/pic32-tools/1.43-pic32gcc/bin/bin/../../lib/gcc/pic32mx/4.8.3/../../../../pic32mx/lib/size/libc.a(lib_a-mallocr.o)
                0xa0001218                __malloc_av_

.bss.__malloc_current_mallinfo.__malloc_current_mallinfo
                0xa0000758       0x28
 .bss.__malloc_current_mallinfo.__malloc_current_mallinfo
                0xa0000758       0x28 /home/ishyro/.arduino15/packages/chipKIT/tools/pic32-tools/1.43-pic32gcc/bin/bin/../../lib/gcc/pic32mx/4.8.3/../../../../pic32mx/lib/size/libc.a(lib_a-mallocr.o)
                0xa0000758                __malloc_current_mallinfo

.bss            0xa0000780       0x20
 .bss           0xa0000780       0x20 /home/ishyro/.arduino15/packages/chipKIT/tools/pic32-tools/1.43-pic32gcc/bin/bin/../../lib/gcc/pic32mx/4.8.3/size/crtbegin.o

.bss.mem.1296.mem
                0xa00007a0       0x18
 .bss.mem.1296.mem
                0xa00007a0       0x18 /home/ishyro/.arduino15/packages/chipKIT/tools/pic32-tools/1.43-pic32gcc/bin/bin/../../lib/gcc/pic32mx/4.8.3/../../../../pic32mx/lib/size/libpic32.a(sbrk.o)

.libc.data._impure_ptr
                0xa00007b8        0x4
 .libc.data._impure_ptr
                0xa00007b8        0x4 /home/ishyro/.arduino15/packages/chipKIT/tools/pic32-tools/1.43-pic32gcc/bin/bin/../../lib/gcc/pic32mx/4.8.3/../../../../pic32mx/lib/size/libc.a(lib_a-impure.o)
                0xa00007b8                _impure_ptr

.data.__malloc_trim_threshold.__malloc_trim_threshold
                0xa00007bc        0x4
 .data.__malloc_trim_threshold.__malloc_trim_threshold
                0xa00007bc        0x4 /home/ishyro/.arduino15/packages/chipKIT/tools/pic32-tools/1.43-pic32gcc/bin/bin/../../lib/gcc/pic32mx/4.8.3/../../../../pic32mx/lib/size/libc.a(lib_a-mallocr.o)
                0xa00007bc                __malloc_trim_threshold

.bss.__malloc_top_pad.__malloc_top_pad
                0xa00007c0        0x4
 .bss.__malloc_top_pad.__malloc_top_pad
                0xa00007c0        0x4 /home/ishyro/.arduino15/packages/chipKIT/tools/pic32-tools/1.43-pic32gcc/bin/bin/../../lib/gcc/pic32mx/4.8.3/../../../../pic32mx/lib/size/libc.a(lib_a-mallocr.o)
                0xa00007c0                __malloc_top_pad

.data.__malloc_sbrk_base.__malloc_sbrk_base
                0xa00007c4        0x4
 .data.__malloc_sbrk_base.__malloc_sbrk_base
                0xa00007c4        0x4 /home/ishyro/.arduino15/packages/chipKIT/tools/pic32-tools/1.43-pic32gcc/bin/bin/../../lib/gcc/pic32mx/4.8.3/../../../../pic32mx/lib/size/libc.a(lib_a-mallocr.o)
                0xa00007c4                __malloc_sbrk_base

.bss.__malloc_max_sbrked_mem.__malloc_max_sbrked_mem
                0xa00007c8        0x4
 .bss.__malloc_max_sbrked_mem.__malloc_max_sbrked_mem
                0xa00007c8        0x4 /home/ishyro/.arduino15/packages/chipKIT/tools/pic32-tools/1.43-pic32gcc/bin/bin/../../lib/gcc/pic32mx/4.8.3/../../../../pic32mx/lib/size/libc.a(lib_a-mallocr.o)
                0xa00007c8                __malloc_max_sbrked_mem

.bss.__malloc_max_total_mem.__malloc_max_total_mem
                0xa00007cc        0x4
 .bss.__malloc_max_total_mem.__malloc_max_total_mem
                0xa00007cc        0x4 /home/ishyro/.arduino15/packages/chipKIT/tools/pic32-tools/1.43-pic32gcc/bin/bin/../../lib/gcc/pic32mx/4.8.3/../../../../pic32mx/lib/size/libc.a(lib_a-mallocr.o)
                0xa00007cc                __malloc_max_total_mem

.bss.errno.errno
                0xa00007d0        0x4
 .bss.errno.errno
                0xa00007d0        0x4 /home/ishyro/.arduino15/packages/chipKIT/tools/pic32-tools/1.43-pic32gcc/bin/bin/../../lib/gcc/pic32mx/4.8.3/../../../../pic32mx/lib/size/libc.a(lib_a-reent.o)
                0xa00007d0                errno

.bss._minbrk._minbrk
                0xa00007d4        0x4
 .bss._minbrk._minbrk
                0xa00007d4        0x4 /home/ishyro/.arduino15/packages/chipKIT/tools/pic32-tools/1.43-pic32gcc/bin/bin/../../lib/gcc/pic32mx/4.8.3/../../../../pic32mx/lib/size/libpic32.a(sbrk.o)
                0xa00007d4                _minbrk

.bss._maxbrk._maxbrk
                0xa00007d8        0x4
 .bss._maxbrk._maxbrk
                0xa00007d8        0x4 /home/ishyro/.arduino15/packages/chipKIT/tools/pic32-tools/1.43-pic32gcc/bin/bin/../../lib/gcc/pic32mx/4.8.3/../../../../pic32mx/lib/size/libpic32.a(sbrk.o)
                0xa00007d8                _maxbrk

.bss.curbrk.curbrk
                0xa00007dc        0x4
 .bss.curbrk.curbrk
                0xa00007dc        0x4 /home/ishyro/.arduino15/packages/chipKIT/tools/pic32-tools/1.43-pic32gcc/bin/bin/../../lib/gcc/pic32mx/4.8.3/../../../../pic32mx/lib/size/libpic32.a(sbrk.o)

.tm_clone_table
                0x00000000        0x0
 .tm_clone_table
                0x00000000        0x0 /home/ishyro/.arduino15/packages/chipKIT/tools/pic32-tools/1.43-pic32gcc/bin/bin/../../lib/gcc/pic32mx/4.8.3/size/crtend.o
                0x00000000                __TMC_END__

.tm_clone_table
                0x00000000        0x0
 .tm_clone_table
                0x00000000        0x0 /home/ishyro/.arduino15/packages/chipKIT/tools/pic32-tools/1.43-pic32gcc/bin/bin/../../lib/gcc/pic32mx/4.8.3/size/crtbegin.o

.jcr            0x00000000        0x0
 .jcr           0x00000000        0x0 /home/ishyro/.arduino15/packages/chipKIT/tools/pic32-tools/1.43-pic32gcc/bin/bin/../../lib/gcc/pic32mx/4.8.3/size/crtbegin.o

.eh_frame       0x00000000        0x0
 .eh_frame      0x00000000        0x0 /home/ishyro/.arduino15/packages/chipKIT/tools/pic32-tools/1.43-pic32gcc/bin/bin/../../lib/gcc/pic32mx/4.8.3/size/crtbegin.o

.dinit          0x9d001670      0xb20
 .dinit         0x9d001670      0xb20 data_init

.text._malloc_r
                0x9d002190      0x68c
 .text._malloc_r
                0x9d002190      0x68c /home/ishyro/.arduino15/packages/chipKIT/tools/pic32-tools/1.43-pic32gcc/bin/bin/../../lib/gcc/pic32mx/4.8.3/../../../../pic32mx/lib/size/libc.a(lib_a-mallocr.o)
                0x9d002190                _malloc_r

.text._ZN10USBManager13onSetupPacketEhPhm
                0x9d00281c      0x614
 .text._ZN10USBManager13onSetupPacketEhPhm
                0x9d00281c      0x614 cores/core_no_main.a(USB.cpp.o)
                0x9d00281c                USBManager::onSetupPacket(unsigned char, unsigned char*, unsigned long)

.text._ZN5USBFS11addEndpointEhhhmPhS0_
                0x9d002e30      0x5f4
 .text._ZN5USBFS11addEndpointEhhhmPhS0_
                0x9d002e30      0x5f4 cores/core_no_main.a(USB_FS.cpp.o)
                0x9d002e30                USBFS::addEndpoint(unsigned char, unsigned char, unsigned char, unsigned long, unsigned char*, unsigned char*)

.text._ZNK10__cxxabiv121__vmi_class_type_info12__do_dyncastElNS_17__class_type_info10__sub_kindEPKS1_PKvS4_S6_RNS1_16__dyncast_resultE
                0x9d003424      0x490
 .text._ZNK10__cxxabiv121__vmi_class_type_info12__do_dyncastElNS_17__class_type_info10__sub_kindEPKS1_PKvS4_S6_RNS1_16__dyncast_resultE
                0x9d003424      0x490 /home/ishyro/.arduino15/packages/chipKIT/tools/pic32-tools/1.43-pic32gcc/bin/bin/../../lib/gcc/pic32mx/4.8.3/../../../../pic32mx/lib/size/libsupc++.a(vmi_class_type_info.o)
                0x9d003424                __cxxabiv1::__vmi_class_type_info::__do_dyncast(long, __cxxabiv1::__class_type_info::__sub_kind, __cxxabiv1::__class_type_info const*, void const*, __cxxabiv1::__class_type_info const*, void const*, __cxxabiv1::__class_type_info::__dyncast_result&) const

.text._ZN5USBFS15handleInterruptEv
                0x9d0038b4      0x3b0
 .text._ZN5USBFS15handleInterruptEv
                0x9d0038b4      0x3b0 cores/core_no_main.a(USB_FS.cpp.o)
                0x9d0038b4                USBFS::handleInterrupt()

.text._ZN5USBFS21populateDefaultSerialEPc
                0x9d003c64      0x370
 .text._ZN5USBFS21populateDefaultSerialEPc
                0x9d003c64      0x370 cores/core_no_main.a(USB_FS.cpp.o)
                0x9d003c64                USBFS::populateDefaultSerial(char*)

.text._ZN5USBFS10sendBufferEhPKhm
                0x9d003fd4      0x28c
 .text._ZN5USBFS10sendBufferEhPKhm
                0x9d003fd4      0x28c cores/core_no_main.a(USB_FS.cpp.o)
                0x9d003fd4                USBFS::sendBuffer(unsigned char, unsigned char const*, unsigned long)

.text._free_r   0x9d004260      0x278
 .text._free_r  0x9d004260      0x278 /home/ishyro/.arduino15/packages/chipKIT/tools/pic32-tools/1.43-pic32gcc/bin/bin/../../lib/gcc/pic32mx/4.8.3/../../../../pic32mx/lib/size/libc.a(lib_a-freer.o)
                0x9d004260                _free_r

.text           0x9d0044d8      0x24c
 .text          0x9d0044d8      0x24c /home/ishyro/.arduino15/packages/chipKIT/tools/pic32-tools/1.43-pic32gcc/bin/bin/../../lib/gcc/pic32mx/4.8.3/size/crtbegin.o

.text._ZNK10__cxxabiv121__vmi_class_type_info11__do_upcastEPKNS_17__class_type_infoEPKvRNS1_15__upcast_resultE
                0x9d004724      0x240
 .text._ZNK10__cxxabiv121__vmi_class_type_info11__do_upcastEPKNS_17__class_type_infoEPKvRNS1_15__upcast_resultE
                0x9d004724      0x240 /home/ishyro/.arduino15/packages/chipKIT/tools/pic32-tools/1.43-pic32gcc/bin/bin/../../lib/gcc/pic32mx/4.8.3/../../../../pic32mx/lib/size/libsupc++.a(vmi_class_type_info.o)
                0x9d004724                __cxxabiv1::__vmi_class_type_info::__do_upcast(__cxxabiv1::__class_type_info const*, void const*, __cxxabiv1::__class_type_info::__upcast_result&) const

.text.CoreTimerHandler
                0x9d004964      0x23c
 .text.CoreTimerHandler
                0x9d004964      0x23c cores/core_no_main.a(wiring.c.o)
                0x9d004964                CoreTimerHandler

.text._ZN6CDCACM31populateConfigurationDescriptorEPh
                0x9d004ba0      0x224
 .text._ZN6CDCACM31populateConfigurationDescriptorEPh
                0x9d004ba0      0x224 cores/core_no_main.a(USB_CDCACM.cpp.o)
                0x9d004ba0                CDCACM::populateConfigurationDescriptor(unsigned char*)

.text._scheduleTask
                0x9d004dc4      0x1b8
 .text._scheduleTask
                0x9d004dc4      0x1b8 cores/core_no_main.a(task_manager.c.o)
                0x9d004dc4                _scheduleTask

.text._ZN6CDCACM11onOutPacketEhhPhm
                0x9d004f7c      0x194
 .text._ZN6CDCACM11onOutPacketEhhPhm
                0x9d004f7c      0x194 cores/core_no_main.a(USB_CDCACM.cpp.o)
                0x9d004f7c                CDCACM::onOutPacket(unsigned char, unsigned char, unsigned char*, unsigned long)

.text.pinMode   0x9d005110      0x18c
 .text.pinMode  0x9d005110      0x18c cores/core_no_main.a(wiring_digital.c.o)
                0x9d005110                pinMode

.text._ZN6CDCACM5writeEh
                0x9d00529c      0x180
 .text._ZN6CDCACM5writeEh
                0x9d00529c      0x180 cores/core_no_main.a(USB_CDCACM.cpp.o)
                0x9d00529c                CDCACM::write(unsigned char)

.text._ZN5USBFS9enableUSBEv
                0x9d00541c      0x160
 .text._ZN5USBFS9enableUSBEv
                0x9d00541c      0x160 cores/core_no_main.a(USB_FS.cpp.o)
                0x9d00541c                USBFS::enableUSB()

.text._sbrk_init
                0x9d00557c      0x158
 .text._sbrk_init
                0x9d00557c      0x158 /home/ishyro/.arduino15/packages/chipKIT/tools/pic32-tools/1.43-pic32gcc/bin/bin/../../lib/gcc/pic32mx/4.8.3/../../../../pic32mx/lib/size/libpic32.a(sbrk.o)
                0x9d00557c                _sbrk_init

.text._ZN6CDCACM13onSetupPacketEhhPhm
                0x9d0056d4      0x138
 .text._ZN6CDCACM13onSetupPacketEhhPhm
                0x9d0056d4      0x138 cores/core_no_main.a(USB_CDCACM.cpp.o)
                0x9d0056d4                CDCACM::onSetupPacket(unsigned char, unsigned char, unsigned char*, unsigned long)

.text._ZNK10__cxxabiv120__si_class_type_info12__do_dyncastElNS_17__class_type_info10__sub_kindEPKS1_PKvS4_S6_RNS1_16__dyncast_resultE
                0x9d00580c      0x128
 .text._ZNK10__cxxabiv120__si_class_type_info12__do_dyncastElNS_17__class_type_info10__sub_kindEPKS1_PKvS4_S6_RNS1_16__dyncast_resultE
                0x9d00580c      0x128 /home/ishyro/.arduino15/packages/chipKIT/tools/pic32-tools/1.43-pic32gcc/bin/bin/../../lib/gcc/pic32mx/4.8.3/../../../../pic32mx/lib/size/libsupc++.a(si_class_type_info.o)
                0x9d00580c                __cxxabiv1::__si_class_type_info::__do_dyncast(long, __cxxabiv1::__class_type_info::__sub_kind, __cxxabiv1::__class_type_info const*, void const*, __cxxabiv1::__class_type_info const*, void const*, __cxxabiv1::__class_type_info::__dyncast_result&) const

.text._malloc_trim_r
                0x9d005934      0x114
 .text._malloc_trim_r
                0x9d005934      0x114 /home/ishyro/.arduino15/packages/chipKIT/tools/pic32-tools/1.43-pic32gcc/bin/bin/../../lib/gcc/pic32mx/4.8.3/../../../../pic32mx/lib/size/libc.a(lib_a-freer.o)
                0x9d005934                _malloc_trim_r

.text._ZN6CDCACM10onInPacketEhhPhm
                0x9d005a48      0x110
 .text._ZN6CDCACM10onInPacketEhhPhm
                0x9d005a48      0x110 cores/core_no_main.a(USB_CDCACM.cpp.o)
                0x9d005a48                CDCACM::onInPacket(unsigned char, unsigned char, unsigned char*, unsigned long)

.text._ZN5USBFS13enqueuePacketEhPKhm
                0x9d005b58      0x110
 .text._ZN5USBFS13enqueuePacketEhPKhm
                0x9d005b58      0x110 cores/core_no_main.a(USB_FS.cpp.o)
                0x9d005b58                USBFS::enqueuePacket(unsigned char, unsigned char const*, unsigned long)

.text._ZNK10__cxxabiv121__vmi_class_type_info20__do_find_public_srcElPKvPKNS_17__class_type_infoES2_
                0x9d005c68      0x100
 .text._ZNK10__cxxabiv121__vmi_class_type_info20__do_find_public_srcElPKvPKNS_17__class_type_infoES2_
                0x9d005c68      0x100 /home/ishyro/.arduino15/packages/chipKIT/tools/pic32-tools/1.43-pic32gcc/bin/bin/../../lib/gcc/pic32mx/4.8.3/../../../../pic32mx/lib/size/libsupc++.a(vmi_class_type_info.o)
                0x9d005c68                __cxxabiv1::__vmi_class_type_info::__do_find_public_src(long, void const*, __cxxabiv1::__class_type_info const*, void const*) const

.text._ZN10USBManagerC2EP9USBDriverttPKcS3_S3_
                0x9d005d68       0xf0
 .text._ZN10USBManagerC2EP9USBDriverttPKcS3_S3_
                0x9d005d68       0xf0 cores/core_no_main.a(USB.cpp.o)
                0x9d005d68                USBManager::USBManager(USBDriver*, unsigned short, unsigned short, char const*, char const*, char const*)
                0x9d005d68                USBManager::USBManager(USBDriver*, unsigned short, unsigned short, char const*, char const*, char const*)

.text._ZN6CDCACM18configureEndpointsEv
                0x9d005e58       0xf0
 .text._ZN6CDCACM18configureEndpointsEv
                0x9d005e58       0xf0 cores/core_no_main.a(USB_CDCACM.cpp.o)
                0x9d005e58                CDCACM::configureEndpoints()

.text.init      0x9d005f48       0xe0
 .text.init     0x9d005f48       0xe0 cores/core_no_main.a(wiring.c.o)
                0x9d005f48                init

.text._ZN6CDCACM4readEv
                0x9d006028       0xc8
 .text._ZN6CDCACM4readEv
                0x9d006028       0xc8 cores/core_no_main.a(USB_CDCACM.cpp.o)
                0x9d006028                CDCACM::read()

.text._sbrk     0x9d0060f0       0xbc
 .text._sbrk    0x9d0060f0       0xbc /home/ishyro/.arduino15/packages/chipKIT/tools/pic32-tools/1.43-pic32gcc/bin/bin/../../lib/gcc/pic32mx/4.8.3/../../../../pic32mx/lib/size/libpic32.a(sbrk.o)
                0x9d0060f0                _sbrk

.text._ZN10USBManager10onInPacketEhPhm
                0x9d0061ac       0xb8
 .text._ZN10USBManager10onInPacketEhPhm
                0x9d0061ac       0xb8 cores/core_no_main.a(USB.cpp.o)
                0x9d0061ac                USBManager::onInPacket(unsigned char, unsigned char*, unsigned long)

.text._GLOBAL__sub_I_usbDriver
                0x9d006264       0x98
 .text._GLOBAL__sub_I_usbDriver
                0x9d006264       0x98 cores/core_no_main.a(USB.cpp.o)

.text.executeSoftReset
                0x9d0062fc       0x94
 .text.executeSoftReset
                0x9d0062fc       0x94 cores/core_no_main.a(wiring.c.o)
                0x9d0062fc                executeSoftReset

.text._ZNK10__cxxabiv117__class_type_info12__do_dyncastElNS0_10__sub_kindEPKS0_PKvS3_S5_RNS0_16__dyncast_resultE
                0x9d006390       0x94
 .text._ZNK10__cxxabiv117__class_type_info12__do_dyncastElNS0_10__sub_kindEPKS0_PKvS3_S5_RNS0_16__dyncast_resultE
                0x9d006390       0x94 /home/ishyro/.arduino15/packages/chipKIT/tools/pic32-tools/1.43-pic32gcc/bin/bin/../../lib/gcc/pic32mx/4.8.3/../../../../pic32mx/lib/size/libsupc++.a(class_type_info.o)
                0x9d006390                __cxxabiv1::__class_type_info::__do_dyncast(long, __cxxabiv1::__class_type_info::__sub_kind, __cxxabiv1::__class_type_info const*, void const*, __cxxabiv1::__class_type_info const*, void const*, __cxxabiv1::__class_type_info::__dyncast_result&) const

.text._ZN10USBManager11onOutPacketEhPhm
                0x9d006424       0x8c
 .text._ZN10USBManager11onOutPacketEhPhm
                0x9d006424       0x8c cores/core_no_main.a(USB.cpp.o)
                0x9d006424                USBManager::onOutPacket(unsigned char, unsigned char*, unsigned long)

.text._ZN10USBManager9addDeviceEP9USBDevice
                0x9d0064b0       0x88
 .text._ZN10USBManager9addDeviceEP9USBDevice
                0x9d0064b0       0x88 cores/core_no_main.a(USB.cpp.o)
                0x9d0064b0                USBManager::addDevice(USBDevice*)

.text._ZNK10__cxxabiv117__class_type_info10__do_catchEPKSt9type_infoPPvj
                0x9d006538       0x7c
 .text._ZNK10__cxxabiv117__class_type_info10__do_catchEPKSt9type_infoPPvj
                0x9d006538       0x7c /home/ishyro/.arduino15/packages/chipKIT/tools/pic32-tools/1.43-pic32gcc/bin/bin/../../lib/gcc/pic32mx/4.8.3/../../../../pic32mx/lib/size/libsupc++.a(class_type_info.o)
                0x9d006538                __cxxabiv1::__class_type_info::__do_catch(std::type_info const*, void**, unsigned int) const

.text._ZNK10__cxxabiv120__si_class_type_info20__do_find_public_srcElPKvPKNS_17__class_type_infoES2_
                0x9d0065b4       0x7c
 .text._ZNK10__cxxabiv120__si_class_type_info20__do_find_public_srcElPKvPKNS_17__class_type_infoES2_
                0x9d0065b4       0x7c /home/ishyro/.arduino15/packages/chipKIT/tools/pic32-tools/1.43-pic32gcc/bin/bin/../../lib/gcc/pic32mx/4.8.3/../../../../pic32mx/lib/size/libsupc++.a(si_class_type_info.o)
                0x9d0065b4                __cxxabiv1::__si_class_type_info::__do_find_public_src(long, void const*, __cxxabiv1::__class_type_info const*, void const*) const

.text._ZN6CDCACM5writeEPKhm
                0x9d006630       0x78
 .text._ZN6CDCACM5writeEPKhm
                0x9d006630       0x78 cores/core_no_main.a(USB_CDCACM.cpp.o)
                0x9d006630                CDCACM::write(unsigned char const*, unsigned long)

.text.initIntVector
                0x9d0066a8       0x74
 .text.initIntVector
                0x9d0066a8       0x74 cores/core_no_main.a(WSystem.c.o)
                0x9d0066a8                initIntVector

.text._ZNK10__cxxabiv120__si_class_type_info11__do_upcastEPKNS_17__class_type_infoEPKvRNS1_15__upcast_resultE
                0x9d00671c       0x74
 .text._ZNK10__cxxabiv120__si_class_type_info11__do_upcastEPKNS_17__class_type_infoEPKvRNS1_15__upcast_resultE
                0x9d00671c       0x74 /home/ishyro/.arduino15/packages/chipKIT/tools/pic32-tools/1.43-pic32gcc/bin/bin/../../lib/gcc/pic32mx/4.8.3/../../../../pic32mx/lib/size/libsupc++.a(si_class_type_info.o)
                0x9d00671c                __cxxabiv1::__si_class_type_info::__do_upcast(__cxxabiv1::__class_type_info const*, void const*, __cxxabiv1::__class_type_info::__upcast_result&) const

.text._ZNK10__cxxabiv117__class_type_info11__do_upcastEPKS0_PPv
                0x9d006790       0x68
 .text._ZNK10__cxxabiv117__class_type_info11__do_upcastEPKS0_PPv
                0x9d006790       0x68 /home/ishyro/.arduino15/packages/chipKIT/tools/pic32-tools/1.43-pic32gcc/bin/bin/../../lib/gcc/pic32mx/4.8.3/../../../../pic32mx/lib/size/libsupc++.a(class_type_info.o)
                0x9d006790                __cxxabiv1::__class_type_info::__do_upcast(__cxxabiv1::__class_type_info const*, void**) const

.text.strcmp    0x9d0067f8       0x64
 .text.strcmp   0x9d0067f8       0x64 /home/ishyro/.arduino15/packages/chipKIT/tools/pic32-tools/1.43-pic32gcc/bin/bin/../../lib/gcc/pic32mx/4.8.3/../../../../pic32mx/lib/size/libc.a(lib_a-strcmp.o)
                0x9d0067f8                strcmp

.text._ZN10USBManager5beginEv
                0x9d00685c       0x60
 .text._ZN10USBManager5beginEv
                0x9d00685c       0x60 cores/core_no_main.a(USB.cpp.o)
                0x9d00685c                USBManager::begin()

.text.setIntPriority
                0x9d0068bc       0x5c
 .text.setIntPriority
                0x9d0068bc       0x5c cores/core_no_main.a(WSystem.c.o)
                0x9d0068bc                setIntPriority

.text.turnOffPWM
                0x9d006918       0x5c
 .text.turnOffPWM
                0x9d006918       0x5c cores/core_no_main.a(wiring_analog.c.o)
                0x9d006918                turnOffPWM

.text._ZNK10__cxxabiv117__class_type_info11__do_upcastEPKS0_PKvRNS0_15__upcast_resultE
                0x9d006974       0x5c
 .text._ZNK10__cxxabiv117__class_type_info11__do_upcastEPKS0_PKvRNS0_15__upcast_resultE
                0x9d006974       0x5c /home/ishyro/.arduino15/packages/chipKIT/tools/pic32-tools/1.43-pic32gcc/bin/bin/../../lib/gcc/pic32mx/4.8.3/../../../../pic32mx/lib/size/libsupc++.a(class_type_info.o)
                0x9d006974                __cxxabiv1::__class_type_info::__do_upcast(__cxxabiv1::__class_type_info const*, void const*, __cxxabiv1::__class_type_info::__upcast_result&) const

.text.delay     0x9d0069d0       0x58
 .text.delay    0x9d0069d0       0x58 cores/core_no_main.a(wiring.c.o)
                0x9d0069d0                delay

.text._ZN6CDCACM10initDeviceEP10USBManager
                0x9d006a28       0x54
 .text._ZN6CDCACM10initDeviceEP10USBManager
                0x9d006a28       0x54 cores/core_no_main.a(USB_CDCACM.cpp.o)
                0x9d006a28                CDCACM::initDevice(USBManager*)

.text._sbrk_r   0x9d006a7c       0x50
 .text._sbrk_r  0x9d006a7c       0x50 /home/ishyro/.arduino15/packages/chipKIT/tools/pic32-tools/1.43-pic32gcc/bin/bin/../../lib/gcc/pic32mx/4.8.3/../../../../pic32mx/lib/size/libc.a(lib_a-sbrkr.o)
                0x9d006a7c                _sbrk_r

.text._ZNKSt9type_info10__do_catchEPKS_PPvj
                0x9d006acc       0x50
 .text._ZNKSt9type_info10__do_catchEPKS_PPvj
                0x9d006acc       0x50 /home/ishyro/.arduino15/packages/chipKIT/tools/pic32-tools/1.43-pic32gcc/bin/bin/../../lib/gcc/pic32mx/4.8.3/../../../../pic32mx/lib/size/libsupc++.a(tinfo.o)
                0x9d006acc                std::type_info::__do_catch(std::type_info const*, void**, unsigned int) const

.text.sbrk      0x9d006b1c       0x50
 .text.sbrk     0x9d006b1c       0x50 /home/ishyro/.arduino15/packages/chipKIT/tools/pic32-tools/1.43-pic32gcc/bin/bin/../../lib/gcc/pic32mx/4.8.3/../../../../pic32mx/lib/size/libpic32.a(sbrk.o)
                0x9d006b1c                sbrk

.text._ZN5USBFS6resumeEv
                0x9d006b6c       0x48
 .text._ZN5USBFS6resumeEv
                0x9d006b6c       0x48 cores/core_no_main.a(USB_FS.cpp.o)
                0x9d006b6c                USBFS::resume()

.text           0x9d006bb4       0x48
 .text          0x9d006bb4       0x48 /home/ishyro/.arduino15/packages/chipKIT/tools/pic32-tools/1.43-pic32gcc/bin/bin/../../lib/gcc/pic32mx/4.8.3/size/crtend.o

.text._ZNKSt9type_infoeqERKS_.isra.0
                0x9d006bfc       0x90
 .text._ZNKSt9type_infoeqERKS_.isra.0
                0x9d006bfc       0x48 /home/ishyro/.arduino15/packages/chipKIT/tools/pic32-tools/1.43-pic32gcc/bin/bin/../../lib/gcc/pic32mx/4.8.3/../../../../pic32mx/lib/size/libsupc++.a(class_type_info.o)
 .text._ZNKSt9type_infoeqERKS_.isra.0
                0x9d006c44       0x48 /home/ishyro/.arduino15/packages/chipKIT/tools/pic32-tools/1.43-pic32gcc/bin/bin/../../lib/gcc/pic32mx/4.8.3/../../../../pic32mx/lib/size/libsupc++.a(si_class_type_info.o)

.text._ZNKSt9type_infoeqERKS_.isra.0
                0x9d006c8c       0x48
 .text._ZNKSt9type_infoeqERKS_.isra.0
                0x9d006c8c       0x48 /home/ishyro/.arduino15/packages/chipKIT/tools/pic32-tools/1.43-pic32gcc/bin/bin/../../lib/gcc/pic32mx/4.8.3/../../../../pic32mx/lib/size/libsupc++.a(vmi_class_type_info.o)

.text._bootstrap_exception_handler
                0x9d006cd4       0x48
 .text._bootstrap_exception_handler
                0x9d006cd4       0x48 /home/ishyro/.arduino15/packages/chipKIT/tools/pic32-tools/1.43-pic32gcc/bin/bin/../../lib/gcc/pic32mx/4.8.3/../../../../pic32mx/lib/size/libpic32.a(default-bootstrap-exception-handler.o)
                0x9d006cd4                _bootstrap_exception_handler

.text           0x9d006d1c       0x44
 .text          0x9d006d1c       0x44 /tmp/ccmZprsd.o
                0x9d006d1c                main

.text.pic32softwarereset
                0x9d006d60       0x44
 .text.pic32softwarereset
                0x9d006d60       0x44 /tmp/ccDSgI4s.o
                0x9d006d60                __pic32_software_reset
                0x9d006d60                SoftReset

.rodata.digital_pin_to_timer_PGM.digital_pin_to_timer_PGM
                0x9d006da4       0x44
 .rodata.digital_pin_to_timer_PGM.digital_pin_to_timer_PGM
                0x9d006da4       0x44 cores/core_no_main.a(pins_arduino.c.o)
                0x9d006da4                digital_pin_to_timer_PGM

.rodata.digital_pin_to_bit_mask_PGM.digital_pin_to_bit_mask_PGM
                0x9d006de8       0x44
 .rodata.digital_pin_to_bit_mask_PGM.digital_pin_to_bit_mask_PGM
                0x9d006de8       0x44 cores/core_no_main.a(pins_arduino.c.o)
                0x9d006de8                digital_pin_to_bit_mask_PGM

.text._ZN5USBFS16canEnqueuePacketEh
                0x9d006e2c       0x40
 .text._ZN5USBFS16canEnqueuePacketEh
                0x9d006e2c       0x40 cores/core_no_main.a(USB_FS.cpp.o)
                0x9d006e2c                USBFS::canEnqueuePacket(unsigned char)

.text.millisecondCoreTimerService
                0x9d006e6c       0x3c
 .text.millisecondCoreTimerService
                0x9d006e6c       0x3c cores/core_no_main.a(wiring.c.o)
                0x9d006e6c                millisecondCoreTimerService

.text._general_exception_handler_entry
                0x9d006ea8       0x38
 .text._general_exception_handler_entry
                0x9d006ea8       0x38 cores/core_no_main.a(exceptions.c.o)
                0x9d006ea8                _general_exception_handler_entry

.text.setIntEnable
                0x9d006ee0       0x38
 .text.setIntEnable
                0x9d006ee0       0x38 cores/core_no_main.a(WSystem.c.o)
                0x9d006ee0                setIntEnable

.text._softwareReset
                0x9d006f18       0x38
 .text._softwareReset
                0x9d006f18       0x38 cores/core_no_main.a(WSystem.c.o)
                0x9d006f18                _softwareReset

.text.main_entry
                0x9d006f50       0x34
 .text.main_entry
                0x9d006f50       0x34 /tmp/cc86yoVA.o

.text.clearIntFlag
                0x9d006f84       0x34
 .text.clearIntFlag
                0x9d006f84       0x34 cores/core_no_main.a(WSystem.c.o)
                0x9d006f84                clearIntFlag

.text.setIntVector
                0x9d006fb8       0x2c
 .text.setIntVector
                0x9d006fb8       0x2c cores/core_no_main.a(WSystem.c.o)
                0x9d006fb8                setIntVector

.text._configSystem
                0x9d006fe4       0x2c
 .text._configSystem
                0x9d006fe4       0x2c cores/core_no_main.a(WSystem.c.o)
                0x9d006fe4                _configSystem

.text.memcpy    0x9d007010       0x2c
 .text.memcpy   0x9d007010       0x2c /home/ishyro/.arduino15/packages/chipKIT/tools/pic32-tools/1.43-pic32gcc/bin/bin/../../lib/gcc/pic32mx/4.8.3/../../../../pic32mx/lib/size/libc.a(lib_a-memcpy.o)
                0x9d007010                memcpy

.text._ZN10__cxxabiv117__class_type_infoD0Ev
                0x9d00703c       0x2c
 .text._ZN10__cxxabiv117__class_type_infoD0Ev
                0x9d00703c       0x2c /home/ishyro/.arduino15/packages/chipKIT/tools/pic32-tools/1.43-pic32gcc/bin/bin/../../lib/gcc/pic32mx/4.8.3/../../../../pic32mx/lib/size/libsupc++.a(class_type_info.o)
                0x9d00703c                __cxxabiv1::__class_type_info::~__class_type_info()

.text._ZN10__cxxabiv120__si_class_type_infoD0Ev
                0x9d007068       0x2c
 .text._ZN10__cxxabiv120__si_class_type_infoD0Ev
                0x9d007068       0x2c /home/ishyro/.arduino15/packages/chipKIT/tools/pic32-tools/1.43-pic32gcc/bin/bin/../../lib/gcc/pic32mx/4.8.3/../../../../pic32mx/lib/size/libsupc++.a(si_class_type_info.o)
                0x9d007068                __cxxabiv1::__si_class_type_info::~__si_class_type_info()

.text._ZN10__cxxabiv121__vmi_class_type_infoD0Ev
                0x9d007094       0x2c
 .text._ZN10__cxxabiv121__vmi_class_type_infoD0Ev
                0x9d007094       0x2c /home/ishyro/.arduino15/packages/chipKIT/tools/pic32-tools/1.43-pic32gcc/bin/bin/../../lib/gcc/pic32mx/4.8.3/../../../../pic32mx/lib/size/libsupc++.a(vmi_class_type_info.o)
                0x9d007094                __cxxabiv1::__vmi_class_type_info::~__vmi_class_type_info()

.text._stub_sbd_memlayout
                0x9d0070c0       0x2c
 .text._stub_sbd_memlayout
                0x9d0070c0       0x2c /home/ishyro/.arduino15/packages/chipKIT/tools/pic32-tools/1.43-pic32gcc/bin/bin/../../lib/gcc/pic32mx/4.8.3/../../../../pic32mx/lib/size/libpic32.a(sbrk.o)
                0x9d0070c0                _stub_sbd_memlayout
                0x9d0070c0                _sbd_memlayout

.text._ZN6CDCACM4peekEv
                0x9d0070ec       0x28
 .text._ZN6CDCACM4peekEv
                0x9d0070ec       0x28 cores/core_no_main.a(USB_CDCACM.cpp.o)
                0x9d0070ec                CDCACM::peek()

.text._enableMultiVectorInterrupts
                0x9d007114       0x28
 .text._enableMultiVectorInterrupts
                0x9d007114       0x28 cores/core_no_main.a(WSystem.c.o)
                0x9d007114                _enableMultiVectorInterrupts

.text._ZdlPv    0x9d00713c       0x28
 .text._ZdlPv   0x9d00713c       0x28 /home/ishyro/.arduino15/packages/chipKIT/tools/pic32-tools/1.43-pic32gcc/bin/bin/../../lib/gcc/pic32mx/4.8.3/../../../../pic32mx/lib/size/libsupc++.a(del_op.o)
                0x9d00713c                operator delete(void*)

.text._initTaskManager
                0x9d007164       0x24
 .text._initTaskManager
                0x9d007164       0x24 cores/core_no_main.a(task_manager.c.o)
                0x9d007164                _initTaskManager

.text.usb_boot_system
                0x9d007188       0x24
 .text.usb_boot_system
                0x9d007188       0x24 cores/core_no_main.a(USB.cpp.o)
                0x9d007188                usb_boot_system

.rodata.digital_pin_to_pps_out_PGM.digital_pin_to_pps_out_PGM
                0x9d0071ac       0x24
 .rodata.digital_pin_to_pps_out_PGM.digital_pin_to_pps_out_PGM
                0x9d0071ac       0x24 cores/core_no_main.a(pins_arduino.c.o)
                0x9d0071ac                digital_pin_to_pps_out_PGM

.rodata.digital_pin_to_port_PGM.digital_pin_to_port_PGM
                0x9d0071d0       0x24
 .rodata.digital_pin_to_port_PGM.digital_pin_to_port_PGM
                0x9d0071d0       0x24 cores/core_no_main.a(pins_arduino.c.o)
                0x9d0071d0                digital_pin_to_port_PGM

.rodata.port_to_tris_PGM.port_to_tris_PGM
                0x9d0071f4       0x24
 .rodata.port_to_tris_PGM.port_to_tris_PGM
                0x9d0071f4       0x24 cores/core_no_main.a(pins_arduino.c.o)
                0x9d0071f4                port_to_tris_PGM

.text.malloc    0x9d007218       0x24
 .text.malloc   0x9d007218       0x24 /home/ishyro/.arduino15/packages/chipKIT/tools/pic32-tools/1.43-pic32gcc/bin/bin/../../lib/gcc/pic32mx/4.8.3/../../../../pic32mx/lib/size/libc.a(lib_a-malloc.o)
                0x9d007218                malloc

.text.free      0x9d00723c       0x24
 .text.free     0x9d00723c       0x24 /home/ishyro/.arduino15/packages/chipKIT/tools/pic32-tools/1.43-pic32gcc/bin/bin/../../lib/gcc/pic32mx/4.8.3/../../../../pic32mx/lib/size/libc.a(lib_a-malloc.o)
                0x9d00723c                free

.text._ZN10__cxxabiv117__class_type_infoD2Ev
                0x9d007260       0x24
 .text._ZN10__cxxabiv117__class_type_infoD2Ev
                0x9d007260       0x24 /home/ishyro/.arduino15/packages/chipKIT/tools/pic32-tools/1.43-pic32gcc/bin/bin/../../lib/gcc/pic32mx/4.8.3/../../../../pic32mx/lib/size/libsupc++.a(class_type_info.o)
                0x9d007260                __cxxabiv1::__class_type_info::~__class_type_info()
                0x9d007260                __cxxabiv1::__class_type_info::~__class_type_info()

.text._ZN10__cxxabiv120__si_class_type_infoD2Ev
                0x9d007284       0x24
 .text._ZN10__cxxabiv120__si_class_type_infoD2Ev
                0x9d007284       0x24 /home/ishyro/.arduino15/packages/chipKIT/tools/pic32-tools/1.43-pic32gcc/bin/bin/../../lib/gcc/pic32mx/4.8.3/../../../../pic32mx/lib/size/libsupc++.a(si_class_type_info.o)
                0x9d007284                __cxxabiv1::__si_class_type_info::~__si_class_type_info()
                0x9d007284                __cxxabiv1::__si_class_type_info::~__si_class_type_info()

.text._ZNSt9type_infoD0Ev
                0x9d0072a8       0x24
 .text._ZNSt9type_infoD0Ev
                0x9d0072a8       0x24 /home/ishyro/.arduino15/packages/chipKIT/tools/pic32-tools/1.43-pic32gcc/bin/bin/../../lib/gcc/pic32mx/4.8.3/../../../../pic32mx/lib/size/libsupc++.a(tinfo.o)
                0x9d0072a8                std::type_info::~type_info()

.text._ZN10__cxxabiv121__vmi_class_type_infoD2Ev
                0x9d0072cc       0x24
 .text._ZN10__cxxabiv121__vmi_class_type_infoD2Ev
                0x9d0072cc       0x24 /home/ishyro/.arduino15/packages/chipKIT/tools/pic32-tools/1.43-pic32gcc/bin/bin/../../lib/gcc/pic32mx/4.8.3/../../../../pic32mx/lib/size/libsupc++.a(vmi_class_type_info.o)
                0x9d0072cc                __cxxabiv1::__vmi_class_type_info::~__vmi_class_type_info()
                0x9d0072cc                __cxxabiv1::__vmi_class_type_info::~__vmi_class_type_info()

.text.memset    0x9d0072f0       0x24
 .text.memset   0x9d0072f0       0x24 /home/ishyro/.arduino15/packages/chipKIT/tools/pic32-tools/1.43-pic32gcc/bin/bin/../../lib/gcc/pic32mx/4.8.3/../../../../pic32mx/lib/size/libc.a(lib_a-memset.o)
                0x9d0072f0                memset

.text._ZN5USBFS10disableUSBEv
                0x9d007314       0x1c
 .text._ZN5USBFS10disableUSBEv
                0x9d007314       0x1c cores/core_no_main.a(USB_FS.cpp.o)
                0x9d007314                USBFS::disableUSB()

.text._ZN5USBFS6isIdleEh
                0x9d007330       0x1c
 .text._ZN5USBFS6isIdleEh
                0x9d007330       0x1c cores/core_no_main.a(USB_FS.cpp.o)
                0x9d007330                USBFS::isIdle(unsigned char)

.text.restoreInterrupts
                0x9d00734c       0x1c
 .text.restoreInterrupts
                0x9d00734c       0x1c cores/core_no_main.a(WSystem.c.o)
                0x9d00734c                restoreInterrupts

.text.getPeripheralClock
                0x9d007368       0x1c
 .text.getPeripheralClock
                0x9d007368       0x1c cores/core_no_main.a(WSystem.c.o)
                0x9d007368                getPeripheralClock

.text._ZNK10__cxxabiv117__class_type_info20__do_find_public_srcElPKvPKS0_S2_
                0x9d007384       0x1c
 .text._ZNK10__cxxabiv117__class_type_info20__do_find_public_srcElPKvPKS0_S2_
                0x9d007384       0x1c /home/ishyro/.arduino15/packages/chipKIT/tools/pic32-tools/1.43-pic32gcc/bin/bin/../../lib/gcc/pic32mx/4.8.3/../../../../pic32mx/lib/size/libsupc++.a(class_type_info.o)
                0x9d007384                __cxxabiv1::__class_type_info::__do_find_public_src(long, void const*, __cxxabiv1::__class_type_info const*, void const*) const

.rodata         0x9d0073a0       0x18
 .rodata        0x9d0073a0       0x18 cores/core_no_main.a(USB.cpp.o)

.text           0x9d0073b8       0x30
 .text          0x9d0073b8       0x18 /home/ishyro/.arduino15/packages/chipKIT/tools/pic32-tools/1.43-pic32gcc/bin/bin/../../lib/gcc/pic32mx/4.8.3/../../../../pic32mx/lib/size/libc.a(lib_a-strlen.o)
                0x9d0073b8                strlen
 .text          0x9d0073d0       0x18 /home/ishyro/.arduino15/packages/chipKIT/tools/pic32-tools/1.43-pic32gcc/bin/bin/../../lib/gcc/pic32mx/4.8.3/../../../../pic32mx/lib/size/libpic32.a(default-nmi-handler.o)
                0x9d0073d0                _nmi_handler

.text._ZN6CDCACM9availableEv
                0x9d0073e8       0x14
 .text._ZN6CDCACM9availableEv
                0x9d0073e8       0x14 cores/core_no_main.a(USB_CDCACM.cpp.o)
                0x9d0073e8                CDCACM::available()

.text._ZN6CDCACM17availableForWriteEv
                0x9d0073fc       0x14
 .text._ZN6CDCACM17availableForWriteEv
                0x9d0073fc       0x14 cores/core_no_main.a(USB_CDCACM.cpp.o)
                0x9d0073fc                CDCACM::availableForWrite()

.text._board_init
                0x9d007410       0x14
 .text._board_init
                0x9d007410       0x14 cores/core_no_main.a(pins_arduino.c.o)
                0x9d007410                _board_init

.text._ZN10USBManager17allocateInterfaceEv
                0x9d007424       0x10
 .text._ZN10USBManager17allocateInterfaceEv
                0x9d007424       0x10 cores/core_no_main.a(USB.cpp.o)
                0x9d007424                USBManager::allocateInterface()

.text._ZN10USBManager16allocateEndpointEv
                0x9d007434       0x10
 .text._ZN10USBManager16allocateEndpointEv
                0x9d007434       0x10 cores/core_no_main.a(USB.cpp.o)
                0x9d007434                USBManager::allocateEndpoint()

.text._ZN5USBFS10setAddressEh
                0x9d007444       0x10
 .text._ZN5USBFS10setAddressEh
                0x9d007444       0x10 cores/core_no_main.a(USB_FS.cpp.o)
                0x9d007444                USBFS::setAddress(unsigned char)

.text._initCoreTimer
                0x9d007454       0x10
 .text._initCoreTimer
                0x9d007454       0x10 cores/core_no_main.a(WSystem.c.o)
                0x9d007454                _initCoreTimer

.text._ZNSt9type_infoD2Ev
                0x9d007464       0x10
 .text._ZNSt9type_infoD2Ev
                0x9d007464       0x10 /home/ishyro/.arduino15/packages/chipKIT/tools/pic32-tools/1.43-pic32gcc/bin/bin/../../lib/gcc/pic32mx/4.8.3/../../../../pic32mx/lib/size/libsupc++.a(tinfo.o)
                0x9d007464                std::type_info::~type_info()
                0x9d007464                std::type_info::~type_info()

.text.millis    0x9d007474        0xc
 .text.millis   0x9d007474        0xc cores/core_no_main.a(wiring.c.o)
                0x9d007474                millis

.text.disableInterrupts
                0x9d007480        0xc
 .text.disableInterrupts
                0x9d007480        0xc cores/core_no_main.a(WSystem.c.o)
                0x9d007480                disableInterrupts

.text.__errno   0x9d00748c        0xc
 .text.__errno  0x9d00748c        0xc /home/ishyro/.arduino15/packages/chipKIT/tools/pic32-tools/1.43-pic32gcc/bin/bin/../../lib/gcc/pic32mx/4.8.3/../../../../pic32mx/lib/size/libc.a(lib_a-errno.o)
                0x9d00748c                __errno

.text._general_exception_handler
                0x9d007498        0x8
 .text._general_exception_handler
                0x9d007498        0x8 cores/core_no_main.a(exceptions.c.o)
                0x9d007498                _general_exception_handler

.text._ZN6CDCACM19getDescriptorLengthEv
                0x9d0074a0        0x8
 .text._ZN6CDCACM19getDescriptorLengthEv
                0x9d0074a0        0x8 cores/core_no_main.a(USB_CDCACM.cpp.o)
                0x9d0074a0                CDCACM::getDescriptorLength()

.text._ZN6CDCACM17getInterfaceCountEv
                0x9d0074a8        0x8
 .text._ZN6CDCACM17getInterfaceCountEv
                0x9d0074a8        0x8 cores/core_no_main.a(USB_CDCACM.cpp.o)
                0x9d0074a8                CDCACM::getInterfaceCount()

.text._ZN6CDCACM13getDescriptorEhhhh
                0x9d0074b0        0x8
 .text._ZN6CDCACM13getDescriptorEhhhh
                0x9d0074b0        0x8 cores/core_no_main.a(USB_CDCACM.cpp.o)
                0x9d0074b0                CDCACM::getDescriptor(unsigned char, unsigned char, unsigned char, unsigned char)

.text._ZThn4_N6CDCACM9availableEv
                0x9d0074b8        0x8
 .text._ZThn4_N6CDCACM9availableEv
                0x9d0074b8        0x8 cores/core_no_main.a(USB_CDCACM.cpp.o)
                0x9d0074b8                non-virtual thunk to CDCACM::available()

.text._ZThn4_N6CDCACM17availableForWriteEv
                0x9d0074c0        0x8
 .text._ZThn4_N6CDCACM17availableForWriteEv
                0x9d0074c0        0x8 cores/core_no_main.a(USB_CDCACM.cpp.o)
                0x9d0074c0                non-virtual thunk to CDCACM::availableForWrite()

.text._ZThn4_N6CDCACM4readEv
                0x9d0074c8        0x8
 .text._ZThn4_N6CDCACM4readEv
                0x9d0074c8        0x8 cores/core_no_main.a(USB_CDCACM.cpp.o)
                0x9d0074c8                non-virtual thunk to CDCACM::read()

.text._ZN6CDCACM5flushEv
                0x9d0074d0        0x8
 .text._ZN6CDCACM5flushEv
                0x9d0074d0        0x8 cores/core_no_main.a(USB_CDCACM.cpp.o)
                0x9d0074d0                CDCACM::flush()

.text._ZThn4_N6CDCACM5flushEv
                0x9d0074d8        0x8
 .text._ZThn4_N6CDCACM5flushEv
                0x9d0074d8        0x8 cores/core_no_main.a(USB_CDCACM.cpp.o)
                0x9d0074d8                non-virtual thunk to CDCACM::flush()

.text._ZThn4_N6CDCACM4peekEv
                0x9d0074e0        0x8
 .text._ZThn4_N6CDCACM4peekEv
                0x9d0074e0        0x8 cores/core_no_main.a(USB_CDCACM.cpp.o)
                0x9d0074e0                non-virtual thunk to CDCACM::peek()

.text._ZN6CDCACM12onEnumeratedEv
                0x9d0074e8        0x8
 .text._ZN6CDCACM12onEnumeratedEv
                0x9d0074e8        0x8 cores/core_no_main.a(USB_CDCACM.cpp.o)
                0x9d0074e8                CDCACM::onEnumerated()

.text._ZThn4_N6CDCACM5writeEPKhm
                0x9d0074f0        0x8
 .text._ZThn4_N6CDCACM5writeEPKhm
                0x9d0074f0        0x8 cores/core_no_main.a(USB_CDCACM.cpp.o)
                0x9d0074f0                non-virtual thunk to CDCACM::write(unsigned char const*, unsigned long)

.text._ZThn4_N6CDCACM5writeEh
                0x9d0074f8        0x8
 .text._ZThn4_N6CDCACM5writeEh
                0x9d0074f8        0x8 cores/core_no_main.a(USB_CDCACM.cpp.o)
                0x9d0074f8                non-virtual thunk to CDCACM::write(unsigned char)

.text.__malloc_lock
                0x9d007500        0x8
 .text.__malloc_lock
                0x9d007500        0x8 /home/ishyro/.arduino15/packages/chipKIT/tools/pic32-tools/1.43-pic32gcc/bin/bin/../../lib/gcc/pic32mx/4.8.3/../../../../pic32mx/lib/size/libc.a(lib_a-mlock.o)
                0x9d007500                __malloc_lock

.text.__malloc_unlock
                0x9d007508        0x8
 .text.__malloc_unlock
                0x9d007508        0x8 /home/ishyro/.arduino15/packages/chipKIT/tools/pic32-tools/1.43-pic32gcc/bin/bin/../../lib/gcc/pic32mx/4.8.3/../../../../pic32mx/lib/size/libc.a(lib_a-mlock.o)
                0x9d007508                __malloc_unlock

.text._ZNKSt9type_info14__is_pointer_pEv
                0x9d007510        0x8
 .text._ZNKSt9type_info14__is_pointer_pEv
                0x9d007510        0x8 /home/ishyro/.arduino15/packages/chipKIT/tools/pic32-tools/1.43-pic32gcc/bin/bin/../../lib/gcc/pic32mx/4.8.3/../../../../pic32mx/lib/size/libsupc++.a(tinfo.o)
                0x9d007510                std::type_info::__is_pointer_p() const

.text._ZNKSt9type_info15__is_function_pEv
                0x9d007518        0x8
 .text._ZNKSt9type_info15__is_function_pEv
                0x9d007518        0x8 /home/ishyro/.arduino15/packages/chipKIT/tools/pic32-tools/1.43-pic32gcc/bin/bin/../../lib/gcc/pic32mx/4.8.3/../../../../pic32mx/lib/size/libsupc++.a(tinfo.o)
                0x9d007518                std::type_info::__is_function_p() const

.text._ZNKSt9type_info11__do_upcastEPKN10__cxxabiv117__class_type_infoEPPv
                0x9d007520        0x8
 .text._ZNKSt9type_info11__do_upcastEPKN10__cxxabiv117__class_type_infoEPPv
                0x9d007520        0x8 /home/ishyro/.arduino15/packages/chipKIT/tools/pic32-tools/1.43-pic32gcc/bin/bin/../../lib/gcc/pic32mx/4.8.3/../../../../pic32mx/lib/size/libsupc++.a(tinfo.o)
                0x9d007520                std::type_info::__do_upcast(__cxxabiv1::__class_type_info const*, void**) const

.text._on_reset
                0x9d007528        0x8
 .text._on_reset
                0x9d007528        0x8 /home/ishyro/.arduino15/packages/chipKIT/tools/pic32-tools/1.43-pic32gcc/bin/bin/../../lib/gcc/pic32mx/4.8.3/../../../../pic32mx/lib/size/libpic32.a(default-on-reset.o)
                0x9d007528                _on_reset

.text._on_bootstrap
                0x9d007530        0x8
 .text._on_bootstrap
                0x9d007530        0x8 /home/ishyro/.arduino15/packages/chipKIT/tools/pic32-tools/1.43-pic32gcc/bin/bin/../../lib/gcc/pic32mx/4.8.3/../../../../pic32mx/lib/size/libpic32.a(default-on-bootstrap.o)
                0x9d007530                _on_bootstrap

.rodata         0x9d007538        0x4
 .rodata        0x9d007538        0x4 /home/ishyro/.arduino15/packages/chipKIT/tools/pic32-tools/1.43-pic32gcc/bin/bin/../../lib/gcc/pic32mx/4.8.3/../../../../pic32mx/lib/size/libc.a(lib_a-impure.o)

.reset.startup  0x00000000        0x0
 .reset.startup
                0x00000000        0x0 /tmp/cc86yoVA.o
