Archive member included because of file (symbol)

/home/ishyro/Documents/Info/M1/S2/OMicroB-next/src/byterun/pic32/cores/core.a(exceptions.c.o)
                              /tmp/ccqWBQHT.o (_general_exception_handler_entry)
/home/ishyro/Documents/Info/M1/S2/OMicroB-next/src/byterun/pic32/cores/core.a(task_manager.c.o)
                              /tmp/ccpHnSIR.o (_scheduleTask)
/home/ishyro/Documents/Info/M1/S2/OMicroB-next/src/byterun/pic32/cores/core.a(vector_table.S.o)
                              /tmp/ccpHnSIR.o (__use_isr_install)
/home/ishyro/Documents/Info/M1/S2/OMicroB-next/src/byterun/pic32/cores/core.a(wiring.c.o)
                              /tmp/ccpHnSIR.o (millis)
/home/ishyro/Documents/Info/M1/S2/OMicroB-next/src/byterun/pic32/cores/core.a(wiring_analog.c.o)
                              /tmp/ccpHnSIR.o (analogRead)
/home/ishyro/Documents/Info/M1/S2/OMicroB-next/src/byterun/pic32/cores/core.a(wiring_digital.c.o)
                              /tmp/ccpHnSIR.o (pinMode)
/home/ishyro/Documents/Info/M1/S2/OMicroB-next/src/byterun/pic32/cores/core.a(USB.cpp.o)
                              /home/ishyro/Documents/Info/M1/S2/OMicroB-next/src/byterun/pic32/cores/core.a(wiring.c.o) (usb_boot_system)
/home/ishyro/Documents/Info/M1/S2/OMicroB-next/src/byterun/pic32/cores/core.a(USB_CDCACM.cpp.o)
                              /home/ishyro/Documents/Info/M1/S2/OMicroB-next/src/byterun/pic32/cores/core.a(USB.cpp.o) (vtable for CDCACM)
/home/ishyro/Documents/Info/M1/S2/OMicroB-next/src/byterun/pic32/cores/core.a(USB_FS.cpp.o)
                              /home/ishyro/Documents/Info/M1/S2/OMicroB-next/src/byterun/pic32/cores/core.a(USB.cpp.o) (USBFS::_this)
/home/ishyro/Documents/Info/M1/S2/OMicroB-next/src/byterun/pic32/cores/core.a(WSystem.c.o)
                              /home/ishyro/Documents/Info/M1/S2/OMicroB-next/src/byterun/pic32/cores/core.a(wiring.c.o) (initIntVector)
/home/ishyro/Documents/Info/M1/S2/OMicroB-next/src/byterun/pic32/cores/core.a(pins_arduino.c.o)
                              /home/ishyro/Documents/Info/M1/S2/OMicroB-next/src/byterun/pic32/cores/core.a(wiring.c.o) (_board_init)
/home/ishyro/Documents/Info/M1/S2/OMicroB-next/src/byterun/pic32/cores/core.a(Print.cpp.o)
                              /home/ishyro/Documents/Info/M1/S2/OMicroB-next/src/byterun/pic32/cores/core.a(USB_CDCACM.cpp.o) (typeinfo for Print)
/home/ishyro/Documents/Info/M1/S2/OMicroB-next/src/byterun/pic32/cores/core.a(doprnt.cpp.o)
                              /home/ishyro/Documents/Info/M1/S2/OMicroB-next/src/byterun/pic32/cores/core.a(Print.cpp.o) (_doprnt(char const*, void*, Print*))
/home/ishyro/.arduino15/packages/chipKIT/tools/pic32-tools/1.43-pic32gcc/bin/bin/../../lib/gcc/pic32mx/4.8.3/../../../../pic32mx/lib/size/libsupc++.a(class_type_info.o)
                              /home/ishyro/Documents/Info/M1/S2/OMicroB-next/src/byterun/pic32/cores/core.a(USB_CDCACM.cpp.o) (vtable for __cxxabiv1::__class_type_info)
/home/ishyro/.arduino15/packages/chipKIT/tools/pic32-tools/1.43-pic32gcc/bin/bin/../../lib/gcc/pic32mx/4.8.3/../../../../pic32mx/lib/size/libsupc++.a(del_op.o)
                              /home/ishyro/.arduino15/packages/chipKIT/tools/pic32-tools/1.43-pic32gcc/bin/bin/../../lib/gcc/pic32mx/4.8.3/../../../../pic32mx/lib/size/libsupc++.a(class_type_info.o) (operator delete(void*))
/home/ishyro/.arduino15/packages/chipKIT/tools/pic32-tools/1.43-pic32gcc/bin/bin/../../lib/gcc/pic32mx/4.8.3/../../../../pic32mx/lib/size/libsupc++.a(si_class_type_info.o)
                              /home/ishyro/Documents/Info/M1/S2/OMicroB-next/src/byterun/pic32/cores/core.a(USB_CDCACM.cpp.o) (vtable for __cxxabiv1::__si_class_type_info)
/home/ishyro/.arduino15/packages/chipKIT/tools/pic32-tools/1.43-pic32gcc/bin/bin/../../lib/gcc/pic32mx/4.8.3/../../../../pic32mx/lib/size/libsupc++.a(tinfo.o)
                              /home/ishyro/.arduino15/packages/chipKIT/tools/pic32-tools/1.43-pic32gcc/bin/bin/../../lib/gcc/pic32mx/4.8.3/../../../../pic32mx/lib/size/libsupc++.a(class_type_info.o) (std::type_info::~type_info())
/home/ishyro/.arduino15/packages/chipKIT/tools/pic32-tools/1.43-pic32gcc/bin/bin/../../lib/gcc/pic32mx/4.8.3/../../../../pic32mx/lib/size/libsupc++.a(vmi_class_type_info.o)
                              /home/ishyro/Documents/Info/M1/S2/OMicroB-next/src/byterun/pic32/cores/core.a(USB_CDCACM.cpp.o) (vtable for __cxxabiv1::__vmi_class_type_info)
/home/ishyro/.arduino15/packages/chipKIT/tools/pic32-tools/1.43-pic32gcc/bin/bin/../../lib/gcc/pic32mx/4.8.3/../../../../pic32mx/lib/size/libsupc++.a(pure.o)
                              /home/ishyro/Documents/Info/M1/S2/OMicroB-next/src/byterun/pic32/cores/core.a(Print.cpp.o) (__cxa_pure_virtual)
/home/ishyro/.arduino15/packages/chipKIT/tools/pic32-tools/1.43-pic32gcc/bin/bin/../../lib/gcc/pic32mx/4.8.3/../../../../pic32mx/lib/size/libsupc++.a(eh_terminate.o)
                              /home/ishyro/.arduino15/packages/chipKIT/tools/pic32-tools/1.43-pic32gcc/bin/bin/../../lib/gcc/pic32mx/4.8.3/../../../../pic32mx/lib/size/libsupc++.a(pure.o) (std::terminate())
/home/ishyro/.arduino15/packages/chipKIT/tools/pic32-tools/1.43-pic32gcc/bin/bin/../../lib/gcc/pic32mx/4.8.3/../../../../pic32mx/lib/size/libsupc++.a(eh_unex_handler.o)
                              /home/ishyro/.arduino15/packages/chipKIT/tools/pic32-tools/1.43-pic32gcc/bin/bin/../../lib/gcc/pic32mx/4.8.3/../../../../pic32mx/lib/size/libsupc++.a(eh_terminate.o) (__cxxabiv1::__unexpected_handler)
/home/ishyro/.arduino15/packages/chipKIT/tools/pic32-tools/1.43-pic32gcc/bin/bin/../../lib/gcc/pic32mx/4.8.3/../../../../pic32mx/lib/size/libsupc++.a(eh_term_handler.o)
                              /home/ishyro/.arduino15/packages/chipKIT/tools/pic32-tools/1.43-pic32gcc/bin/bin/../../lib/gcc/pic32mx/4.8.3/../../../../pic32mx/lib/size/libsupc++.a(eh_terminate.o) (__cxxabiv1::__terminate_handler)
/home/ishyro/.arduino15/packages/chipKIT/tools/pic32-tools/1.43-pic32gcc/bin/bin/../../lib/gcc/pic32mx/4.8.3/../../../../pic32mx/lib/size/libm.a(lib_a-s_cos.o)
                              /tmp/ccpHnSIR.o (cos)
/home/ishyro/.arduino15/packages/chipKIT/tools/pic32-tools/1.43-pic32gcc/bin/bin/../../lib/gcc/pic32mx/4.8.3/../../../../pic32mx/lib/size/libm.a(lib_a-s_fpclassify.o)
                              /home/ishyro/Documents/Info/M1/S2/OMicroB-next/src/byterun/pic32/cores/core.a(Print.cpp.o) (__fpclassifyd)
/home/ishyro/.arduino15/packages/chipKIT/tools/pic32-tools/1.43-pic32gcc/bin/bin/../../lib/gcc/pic32mx/4.8.3/../../../../pic32mx/lib/size/libm.a(lib_a-s_modf.o)
                              /home/ishyro/Documents/Info/M1/S2/OMicroB-next/src/byterun/pic32/cores/core.a(doprnt.cpp.o) (modf)
/home/ishyro/.arduino15/packages/chipKIT/tools/pic32-tools/1.43-pic32gcc/bin/bin/../../lib/gcc/pic32mx/4.8.3/../../../../pic32mx/lib/size/libm.a(lib_a-s_sin.o)
                              /tmp/ccpHnSIR.o (sin)
/home/ishyro/.arduino15/packages/chipKIT/tools/pic32-tools/1.43-pic32gcc/bin/bin/../../lib/gcc/pic32mx/4.8.3/../../../../pic32mx/lib/size/libm.a(lib_a-w_atan2.o)
                              /tmp/ccpHnSIR.o (atan2)
/home/ishyro/.arduino15/packages/chipKIT/tools/pic32-tools/1.43-pic32gcc/bin/bin/../../lib/gcc/pic32mx/4.8.3/../../../../pic32mx/lib/size/libm.a(lib_a-w_fmod.o)
                              /tmp/ccpHnSIR.o (fmod)
/home/ishyro/.arduino15/packages/chipKIT/tools/pic32-tools/1.43-pic32gcc/bin/bin/../../lib/gcc/pic32mx/4.8.3/../../../../pic32mx/lib/size/libm.a(lib_a-w_sqrt.o)
                              /tmp/ccpHnSIR.o (sqrt)
/home/ishyro/.arduino15/packages/chipKIT/tools/pic32-tools/1.43-pic32gcc/bin/bin/../../lib/gcc/pic32mx/4.8.3/../../../../pic32mx/lib/size/libm.a(lib_a-e_atan2.o)
                              /home/ishyro/.arduino15/packages/chipKIT/tools/pic32-tools/1.43-pic32gcc/bin/bin/../../lib/gcc/pic32mx/4.8.3/../../../../pic32mx/lib/size/libm.a(lib_a-w_atan2.o) (__ieee754_atan2)
/home/ishyro/.arduino15/packages/chipKIT/tools/pic32-tools/1.43-pic32gcc/bin/bin/../../lib/gcc/pic32mx/4.8.3/../../../../pic32mx/lib/size/libm.a(lib_a-e_fmod.o)
                              /home/ishyro/.arduino15/packages/chipKIT/tools/pic32-tools/1.43-pic32gcc/bin/bin/../../lib/gcc/pic32mx/4.8.3/../../../../pic32mx/lib/size/libm.a(lib_a-w_fmod.o) (__ieee754_fmod)
/home/ishyro/.arduino15/packages/chipKIT/tools/pic32-tools/1.43-pic32gcc/bin/bin/../../lib/gcc/pic32mx/4.8.3/../../../../pic32mx/lib/size/libm.a(lib_a-e_rem_pio2.o)
                              /home/ishyro/.arduino15/packages/chipKIT/tools/pic32-tools/1.43-pic32gcc/bin/bin/../../lib/gcc/pic32mx/4.8.3/../../../../pic32mx/lib/size/libm.a(lib_a-s_cos.o) (__ieee754_rem_pio2)
/home/ishyro/.arduino15/packages/chipKIT/tools/pic32-tools/1.43-pic32gcc/bin/bin/../../lib/gcc/pic32mx/4.8.3/../../../../pic32mx/lib/size/libm.a(lib_a-e_sqrt.o)
                              /home/ishyro/.arduino15/packages/chipKIT/tools/pic32-tools/1.43-pic32gcc/bin/bin/../../lib/gcc/pic32mx/4.8.3/../../../../pic32mx/lib/size/libm.a(lib_a-w_sqrt.o) (__ieee754_sqrt)
/home/ishyro/.arduino15/packages/chipKIT/tools/pic32-tools/1.43-pic32gcc/bin/bin/../../lib/gcc/pic32mx/4.8.3/../../../../pic32mx/lib/size/libm.a(lib_a-k_cos.o)
                              /home/ishyro/.arduino15/packages/chipKIT/tools/pic32-tools/1.43-pic32gcc/bin/bin/../../lib/gcc/pic32mx/4.8.3/../../../../pic32mx/lib/size/libm.a(lib_a-s_cos.o) (__kernel_cos)
/home/ishyro/.arduino15/packages/chipKIT/tools/pic32-tools/1.43-pic32gcc/bin/bin/../../lib/gcc/pic32mx/4.8.3/../../../../pic32mx/lib/size/libm.a(lib_a-k_rem_pio2.o)
                              /home/ishyro/.arduino15/packages/chipKIT/tools/pic32-tools/1.43-pic32gcc/bin/bin/../../lib/gcc/pic32mx/4.8.3/../../../../pic32mx/lib/size/libm.a(lib_a-e_rem_pio2.o) (__kernel_rem_pio2)
/home/ishyro/.arduino15/packages/chipKIT/tools/pic32-tools/1.43-pic32gcc/bin/bin/../../lib/gcc/pic32mx/4.8.3/../../../../pic32mx/lib/size/libm.a(lib_a-k_sin.o)
                              /home/ishyro/.arduino15/packages/chipKIT/tools/pic32-tools/1.43-pic32gcc/bin/bin/../../lib/gcc/pic32mx/4.8.3/../../../../pic32mx/lib/size/libm.a(lib_a-s_cos.o) (__kernel_sin)
/home/ishyro/.arduino15/packages/chipKIT/tools/pic32-tools/1.43-pic32gcc/bin/bin/../../lib/gcc/pic32mx/4.8.3/../../../../pic32mx/lib/size/libm.a(lib_a-s_atan.o)
                              /home/ishyro/.arduino15/packages/chipKIT/tools/pic32-tools/1.43-pic32gcc/bin/bin/../../lib/gcc/pic32mx/4.8.3/../../../../pic32mx/lib/size/libm.a(lib_a-e_atan2.o) (atan)
/home/ishyro/.arduino15/packages/chipKIT/tools/pic32-tools/1.43-pic32gcc/bin/bin/../../lib/gcc/pic32mx/4.8.3/../../../../pic32mx/lib/size/libm.a(lib_a-s_fabs.o)
                              /home/ishyro/.arduino15/packages/chipKIT/tools/pic32-tools/1.43-pic32gcc/bin/bin/../../lib/gcc/pic32mx/4.8.3/../../../../pic32mx/lib/size/libm.a(lib_a-e_atan2.o) (fabs)
/home/ishyro/.arduino15/packages/chipKIT/tools/pic32-tools/1.43-pic32gcc/bin/bin/../../lib/gcc/pic32mx/4.8.3/../../../../pic32mx/lib/size/libm.a(lib_a-s_floor.o)
                              /home/ishyro/.arduino15/packages/chipKIT/tools/pic32-tools/1.43-pic32gcc/bin/bin/../../lib/gcc/pic32mx/4.8.3/../../../../pic32mx/lib/size/libm.a(lib_a-k_rem_pio2.o) (floor)
/home/ishyro/.arduino15/packages/chipKIT/tools/pic32-tools/1.43-pic32gcc/bin/bin/../../lib/gcc/pic32mx/4.8.3/../../../../pic32mx/lib/size/libm.a(lib_a-s_lib_ver.o)
                              /home/ishyro/.arduino15/packages/chipKIT/tools/pic32-tools/1.43-pic32gcc/bin/bin/../../lib/gcc/pic32mx/4.8.3/../../../../pic32mx/lib/size/libm.a(lib_a-w_fmod.o) (__fdlib_version)
/home/ishyro/.arduino15/packages/chipKIT/tools/pic32-tools/1.43-pic32gcc/bin/bin/../../lib/gcc/pic32mx/4.8.3/../../../../pic32mx/lib/size/libm.a(lib_a-s_matherr.o)
                              /home/ishyro/.arduino15/packages/chipKIT/tools/pic32-tools/1.43-pic32gcc/bin/bin/../../lib/gcc/pic32mx/4.8.3/../../../../pic32mx/lib/size/libm.a(lib_a-w_fmod.o) (matherr)
/home/ishyro/.arduino15/packages/chipKIT/tools/pic32-tools/1.43-pic32gcc/bin/bin/../../lib/gcc/pic32mx/4.8.3/../../../../pic32mx/lib/size/libm.a(lib_a-s_scalbn.o)
                              /home/ishyro/.arduino15/packages/chipKIT/tools/pic32-tools/1.43-pic32gcc/bin/bin/../../lib/gcc/pic32mx/4.8.3/../../../../pic32mx/lib/size/libm.a(lib_a-k_rem_pio2.o) (scalbn)
/home/ishyro/.arduino15/packages/chipKIT/tools/pic32-tools/1.43-pic32gcc/bin/bin/../../lib/gcc/pic32mx/4.8.3/../../../../pic32mx/lib/size/libm.a(lib_a-s_copysign.o)
                              /home/ishyro/.arduino15/packages/chipKIT/tools/pic32-tools/1.43-pic32gcc/bin/bin/../../lib/gcc/pic32mx/4.8.3/../../../../pic32mx/lib/size/libm.a(lib_a-s_scalbn.o) (copysign)

Optional file libmchp_peripheral_32MX250F128D.a not found

Optional file libmchp_peripheral.a not found
/home/ishyro/.arduino15/packages/chipKIT/tools/pic32-tools/1.43-pic32gcc/bin/bin/../../lib/gcc/pic32mx/4.8.3/size/libgcc.a(_lshrdi3.o)
                              /tmp/ccpHnSIR.o (__lshrdi3)
/home/ishyro/.arduino15/packages/chipKIT/tools/pic32-tools/1.43-pic32gcc/bin/bin/../../lib/gcc/pic32mx/4.8.3/size/libgcc.a(_ashldi3.o)
                              /tmp/ccpHnSIR.o (__ashldi3)
/home/ishyro/.arduino15/packages/chipKIT/tools/pic32-tools/1.43-pic32gcc/bin/bin/../../lib/gcc/pic32mx/4.8.3/size/libgcc.a(_ashrdi3.o)
                              /tmp/ccpHnSIR.o (__ashrdi3)
/home/ishyro/.arduino15/packages/chipKIT/tools/pic32-tools/1.43-pic32gcc/bin/bin/../../lib/gcc/pic32mx/4.8.3/size/libgcc.a(_divdi3.o)
                              /tmp/ccpHnSIR.o (__divdi3)
/home/ishyro/.arduino15/packages/chipKIT/tools/pic32-tools/1.43-pic32gcc/bin/bin/../../lib/gcc/pic32mx/4.8.3/size/libgcc.a(_moddi3.o)
                              /tmp/ccpHnSIR.o (__moddi3)
/home/ishyro/.arduino15/packages/chipKIT/tools/pic32-tools/1.43-pic32gcc/bin/bin/../../lib/gcc/pic32mx/4.8.3/size/libgcc.a(addsf3.o)
                              /tmp/ccpHnSIR.o (__addsf3)
/home/ishyro/.arduino15/packages/chipKIT/tools/pic32-tools/1.43-pic32gcc/bin/bin/../../lib/gcc/pic32mx/4.8.3/size/libgcc.a(divsf3.o)
                              /tmp/ccpHnSIR.o (__divsf3)
/home/ishyro/.arduino15/packages/chipKIT/tools/pic32-tools/1.43-pic32gcc/bin/bin/../../lib/gcc/pic32mx/4.8.3/size/libgcc.a(eqsf2.o)
                              /tmp/ccpHnSIR.o (__eqsf2)
/home/ishyro/.arduino15/packages/chipKIT/tools/pic32-tools/1.43-pic32gcc/bin/bin/../../lib/gcc/pic32mx/4.8.3/size/libgcc.a(gesf2.o)
                              /tmp/ccpHnSIR.o (__gesf2)
/home/ishyro/.arduino15/packages/chipKIT/tools/pic32-tools/1.43-pic32gcc/bin/bin/../../lib/gcc/pic32mx/4.8.3/size/libgcc.a(lesf2.o)
                              /tmp/ccpHnSIR.o (__lesf2)
/home/ishyro/.arduino15/packages/chipKIT/tools/pic32-tools/1.43-pic32gcc/bin/bin/../../lib/gcc/pic32mx/4.8.3/size/libgcc.a(mulsf3.o)
                              /tmp/ccpHnSIR.o (__mulsf3)
/home/ishyro/.arduino15/packages/chipKIT/tools/pic32-tools/1.43-pic32gcc/bin/bin/../../lib/gcc/pic32mx/4.8.3/size/libgcc.a(subsf3.o)
                              /tmp/ccpHnSIR.o (__subsf3)
/home/ishyro/.arduino15/packages/chipKIT/tools/pic32-tools/1.43-pic32gcc/bin/bin/../../lib/gcc/pic32mx/4.8.3/size/libgcc.a(fixsfsi.o)
                              /tmp/ccpHnSIR.o (__fixsfsi)
/home/ishyro/.arduino15/packages/chipKIT/tools/pic32-tools/1.43-pic32gcc/bin/bin/../../lib/gcc/pic32mx/4.8.3/size/libgcc.a(floatsisf.o)
                              /tmp/ccpHnSIR.o (__floatsisf)
/home/ishyro/.arduino15/packages/chipKIT/tools/pic32-tools/1.43-pic32gcc/bin/bin/../../lib/gcc/pic32mx/4.8.3/size/libgcc.a(fixsfdi.o)
                              /tmp/ccpHnSIR.o (__fixsfdi)
/home/ishyro/.arduino15/packages/chipKIT/tools/pic32-tools/1.43-pic32gcc/bin/bin/../../lib/gcc/pic32mx/4.8.3/size/libgcc.a(floatdisf.o)
                              /tmp/ccpHnSIR.o (__floatdisf)
/home/ishyro/.arduino15/packages/chipKIT/tools/pic32-tools/1.43-pic32gcc/bin/bin/../../lib/gcc/pic32mx/4.8.3/size/libgcc.a(adddf3.o)
                              /home/ishyro/Documents/Info/M1/S2/OMicroB-next/src/byterun/pic32/cores/core.a(Print.cpp.o) (__adddf3)
/home/ishyro/.arduino15/packages/chipKIT/tools/pic32-tools/1.43-pic32gcc/bin/bin/../../lib/gcc/pic32mx/4.8.3/size/libgcc.a(divdf3.o)
                              /home/ishyro/Documents/Info/M1/S2/OMicroB-next/src/byterun/pic32/cores/core.a(Print.cpp.o) (__divdf3)
/home/ishyro/.arduino15/packages/chipKIT/tools/pic32-tools/1.43-pic32gcc/bin/bin/../../lib/gcc/pic32mx/4.8.3/size/libgcc.a(eqdf2.o)
                              /home/ishyro/.arduino15/packages/chipKIT/tools/pic32-tools/1.43-pic32gcc/bin/bin/../../lib/gcc/pic32mx/4.8.3/../../../../pic32mx/lib/size/libm.a(lib_a-w_fmod.o) (__eqdf2)
/home/ishyro/.arduino15/packages/chipKIT/tools/pic32-tools/1.43-pic32gcc/bin/bin/../../lib/gcc/pic32mx/4.8.3/size/libgcc.a(gedf2.o)
                              /home/ishyro/.arduino15/packages/chipKIT/tools/pic32-tools/1.43-pic32gcc/bin/bin/../../lib/gcc/pic32mx/4.8.3/../../../../pic32mx/lib/size/libm.a(lib_a-k_rem_pio2.o) (__gedf2)
/home/ishyro/.arduino15/packages/chipKIT/tools/pic32-tools/1.43-pic32gcc/bin/bin/../../lib/gcc/pic32mx/4.8.3/size/libgcc.a(ledf2.o)
                              /home/ishyro/Documents/Info/M1/S2/OMicroB-next/src/byterun/pic32/cores/core.a(Print.cpp.o) (__ltdf2)
/home/ishyro/.arduino15/packages/chipKIT/tools/pic32-tools/1.43-pic32gcc/bin/bin/../../lib/gcc/pic32mx/4.8.3/size/libgcc.a(muldf3.o)
                              /home/ishyro/Documents/Info/M1/S2/OMicroB-next/src/byterun/pic32/cores/core.a(Print.cpp.o) (__muldf3)
/home/ishyro/.arduino15/packages/chipKIT/tools/pic32-tools/1.43-pic32gcc/bin/bin/../../lib/gcc/pic32mx/4.8.3/size/libgcc.a(subdf3.o)
                              /home/ishyro/Documents/Info/M1/S2/OMicroB-next/src/byterun/pic32/cores/core.a(Print.cpp.o) (__subdf3)
/home/ishyro/.arduino15/packages/chipKIT/tools/pic32-tools/1.43-pic32gcc/bin/bin/../../lib/gcc/pic32mx/4.8.3/size/libgcc.a(fixdfsi.o)
                              /home/ishyro/Documents/Info/M1/S2/OMicroB-next/src/byterun/pic32/cores/core.a(Print.cpp.o) (__fixdfsi)
/home/ishyro/.arduino15/packages/chipKIT/tools/pic32-tools/1.43-pic32gcc/bin/bin/../../lib/gcc/pic32mx/4.8.3/size/libgcc.a(fixunsdfsi.o)
                              /home/ishyro/Documents/Info/M1/S2/OMicroB-next/src/byterun/pic32/cores/core.a(Print.cpp.o) (__fixunsdfsi)
/home/ishyro/.arduino15/packages/chipKIT/tools/pic32-tools/1.43-pic32gcc/bin/bin/../../lib/gcc/pic32mx/4.8.3/size/libgcc.a(floatsidf.o)
                              /home/ishyro/Documents/Info/M1/S2/OMicroB-next/src/byterun/pic32/cores/core.a(Print.cpp.o) (__floatsidf)
/home/ishyro/.arduino15/packages/chipKIT/tools/pic32-tools/1.43-pic32gcc/bin/bin/../../lib/gcc/pic32mx/4.8.3/size/libgcc.a(floatunsidf.o)
                              /home/ishyro/Documents/Info/M1/S2/OMicroB-next/src/byterun/pic32/cores/core.a(Print.cpp.o) (__floatunsidf)
/home/ishyro/.arduino15/packages/chipKIT/tools/pic32-tools/1.43-pic32gcc/bin/bin/../../lib/gcc/pic32mx/4.8.3/size/libgcc.a(extendsfdf2.o)
                              /tmp/ccpHnSIR.o (__extendsfdf2)
/home/ishyro/.arduino15/packages/chipKIT/tools/pic32-tools/1.43-pic32gcc/bin/bin/../../lib/gcc/pic32mx/4.8.3/size/libgcc.a(truncdfsf2.o)
                              /tmp/ccpHnSIR.o (__truncdfsf2)
/home/ishyro/.arduino15/packages/chipKIT/tools/pic32-tools/1.43-pic32gcc/bin/bin/../../lib/gcc/pic32mx/4.8.3/../../../../pic32mx/lib/size/libc.a(lib_a-abort.o)
                              /home/ishyro/.arduino15/packages/chipKIT/tools/pic32-tools/1.43-pic32gcc/bin/bin/../../lib/gcc/pic32mx/4.8.3/../../../../pic32mx/lib/size/libsupc++.a(eh_terminate.o) (abort)
/home/ishyro/.arduino15/packages/chipKIT/tools/pic32-tools/1.43-pic32gcc/bin/bin/../../lib/gcc/pic32mx/4.8.3/../../../../pic32mx/lib/size/libc.a(lib_a-errno.o)
                              /home/ishyro/Documents/Info/M1/S2/OMicroB-next/src/byterun/pic32/cores/core.a(wiring.c.o) (__errno)
/home/ishyro/.arduino15/packages/chipKIT/tools/pic32-tools/1.43-pic32gcc/bin/bin/../../lib/gcc/pic32mx/4.8.3/../../../../pic32mx/lib/size/libc.a(lib_a-impure.o)
                              /home/ishyro/.arduino15/packages/chipKIT/tools/pic32-tools/1.43-pic32gcc/bin/bin/../../lib/gcc/pic32mx/4.8.3/../../../../pic32mx/lib/size/libc.a(lib_a-errno.o) (_impure_ptr)
/home/ishyro/.arduino15/packages/chipKIT/tools/pic32-tools/1.43-pic32gcc/bin/bin/../../lib/gcc/pic32mx/4.8.3/../../../../pic32mx/lib/size/libc.a(lib_a-malloc.o)
                              /home/ishyro/Documents/Info/M1/S2/OMicroB-next/src/byterun/pic32/cores/core.a(USB.cpp.o) (malloc)
/home/ishyro/.arduino15/packages/chipKIT/tools/pic32-tools/1.43-pic32gcc/bin/bin/../../lib/gcc/pic32mx/4.8.3/../../../../pic32mx/lib/size/libc.a(lib_a-mallocr.o)
                              /home/ishyro/.arduino15/packages/chipKIT/tools/pic32-tools/1.43-pic32gcc/bin/bin/../../lib/gcc/pic32mx/4.8.3/../../../../pic32mx/lib/size/libc.a(lib_a-malloc.o) (_malloc_r)
/home/ishyro/.arduino15/packages/chipKIT/tools/pic32-tools/1.43-pic32gcc/bin/bin/../../lib/gcc/pic32mx/4.8.3/../../../../pic32mx/lib/size/libc.a(lib_a-memcpy.o)
                              /tmp/ccpHnSIR.o (memcpy)
/home/ishyro/.arduino15/packages/chipKIT/tools/pic32-tools/1.43-pic32gcc/bin/bin/../../lib/gcc/pic32mx/4.8.3/../../../../pic32mx/lib/size/libc.a(lib_a-memmove.o)
                              /tmp/ccpHnSIR.o (memmove)
/home/ishyro/.arduino15/packages/chipKIT/tools/pic32-tools/1.43-pic32gcc/bin/bin/../../lib/gcc/pic32mx/4.8.3/../../../../pic32mx/lib/size/libc.a(lib_a-mlock.o)
                              /home/ishyro/.arduino15/packages/chipKIT/tools/pic32-tools/1.43-pic32gcc/bin/bin/../../lib/gcc/pic32mx/4.8.3/../../../../pic32mx/lib/size/libc.a(lib_a-mallocr.o) (__malloc_lock)
/home/ishyro/.arduino15/packages/chipKIT/tools/pic32-tools/1.43-pic32gcc/bin/bin/../../lib/gcc/pic32mx/4.8.3/../../../../pic32mx/lib/size/libc.a(lib_a-sbrkr.o)
                              /home/ishyro/.arduino15/packages/chipKIT/tools/pic32-tools/1.43-pic32gcc/bin/bin/../../lib/gcc/pic32mx/4.8.3/../../../../pic32mx/lib/size/libc.a(lib_a-mallocr.o) (_sbrk_r)
/home/ishyro/.arduino15/packages/chipKIT/tools/pic32-tools/1.43-pic32gcc/bin/bin/../../lib/gcc/pic32mx/4.8.3/../../../../pic32mx/lib/size/libc.a(lib_a-setjmp.o)
                              /tmp/ccpHnSIR.o (setjmp)
/home/ishyro/.arduino15/packages/chipKIT/tools/pic32-tools/1.43-pic32gcc/bin/bin/../../lib/gcc/pic32mx/4.8.3/../../../../pic32mx/lib/size/libc.a(lib_a-signal.o)
                              /home/ishyro/.arduino15/packages/chipKIT/tools/pic32-tools/1.43-pic32gcc/bin/bin/../../lib/gcc/pic32mx/4.8.3/../../../../pic32mx/lib/size/libc.a(lib_a-abort.o) (raise)
/home/ishyro/.arduino15/packages/chipKIT/tools/pic32-tools/1.43-pic32gcc/bin/bin/../../lib/gcc/pic32mx/4.8.3/../../../../pic32mx/lib/size/libc.a(lib_a-signalr.o)
                              /home/ishyro/.arduino15/packages/chipKIT/tools/pic32-tools/1.43-pic32gcc/bin/bin/../../lib/gcc/pic32mx/4.8.3/../../../../pic32mx/lib/size/libc.a(lib_a-signal.o) (_kill_r)
/home/ishyro/.arduino15/packages/chipKIT/tools/pic32-tools/1.43-pic32gcc/bin/bin/../../lib/gcc/pic32mx/4.8.3/../../../../pic32mx/lib/size/libc.a(lib_a-snprintf.o)
                              /tmp/ccpHnSIR.o (snprintf)
/home/ishyro/.arduino15/packages/chipKIT/tools/pic32-tools/1.43-pic32gcc/bin/bin/../../lib/gcc/pic32mx/4.8.3/../../../../pic32mx/lib/size/libc.a(lib_a-strcmp.o)
                              /home/ishyro/.arduino15/packages/chipKIT/tools/pic32-tools/1.43-pic32gcc/bin/bin/../../lib/gcc/pic32mx/4.8.3/../../../../pic32mx/lib/size/libsupc++.a(class_type_info.o) (strcmp)
/home/ishyro/.arduino15/packages/chipKIT/tools/pic32-tools/1.43-pic32gcc/bin/bin/../../lib/gcc/pic32mx/4.8.3/../../../../pic32mx/lib/size/libc.a(lib_a-strlen.o)
                              /tmp/ccpHnSIR.o (strlen)
/home/ishyro/.arduino15/packages/chipKIT/tools/pic32-tools/1.43-pic32gcc/bin/bin/../../lib/gcc/pic32mx/4.8.3/../../../../pic32mx/lib/size/libc.a(lib_a-svfprintf.o)
                              /home/ishyro/.arduino15/packages/chipKIT/tools/pic32-tools/1.43-pic32gcc/bin/bin/../../lib/gcc/pic32mx/4.8.3/../../../../pic32mx/lib/size/libc.a(lib_a-snprintf.o) (_svfprintf_r)
/home/ishyro/.arduino15/packages/chipKIT/tools/pic32-tools/1.43-pic32gcc/bin/bin/../../lib/gcc/pic32mx/4.8.3/../../../../pic32mx/lib/size/libc.a(lib_a-dtoa.o)
                              /home/ishyro/.arduino15/packages/chipKIT/tools/pic32-tools/1.43-pic32gcc/bin/bin/../../lib/gcc/pic32mx/4.8.3/../../../../pic32mx/lib/size/libc.a(lib_a-svfprintf.o) (_dtoa_r)
/home/ishyro/.arduino15/packages/chipKIT/tools/pic32-tools/1.43-pic32gcc/bin/bin/../../lib/gcc/pic32mx/4.8.3/../../../../pic32mx/lib/size/libc.a(lib_a-freer.o)
                              /home/ishyro/.arduino15/packages/chipKIT/tools/pic32-tools/1.43-pic32gcc/bin/bin/../../lib/gcc/pic32mx/4.8.3/../../../../pic32mx/lib/size/libc.a(lib_a-malloc.o) (_free_r)
/home/ishyro/.arduino15/packages/chipKIT/tools/pic32-tools/1.43-pic32gcc/bin/bin/../../lib/gcc/pic32mx/4.8.3/../../../../pic32mx/lib/size/libc.a(lib_a-locale.o)
                              /home/ishyro/.arduino15/packages/chipKIT/tools/pic32-tools/1.43-pic32gcc/bin/bin/../../lib/gcc/pic32mx/4.8.3/../../../../pic32mx/lib/size/libc.a(lib_a-svfprintf.o) (_localeconv_r)
/home/ishyro/.arduino15/packages/chipKIT/tools/pic32-tools/1.43-pic32gcc/bin/bin/../../lib/gcc/pic32mx/4.8.3/../../../../pic32mx/lib/size/libc.a(lib_a-memchr.o)
                              /home/ishyro/.arduino15/packages/chipKIT/tools/pic32-tools/1.43-pic32gcc/bin/bin/../../lib/gcc/pic32mx/4.8.3/../../../../pic32mx/lib/size/libc.a(lib_a-svfprintf.o) (memchr)
/home/ishyro/.arduino15/packages/chipKIT/tools/pic32-tools/1.43-pic32gcc/bin/bin/../../lib/gcc/pic32mx/4.8.3/../../../../pic32mx/lib/size/libc.a(lib_a-mprec.o)
                              /home/ishyro/.arduino15/packages/chipKIT/tools/pic32-tools/1.43-pic32gcc/bin/bin/../../lib/gcc/pic32mx/4.8.3/../../../../pic32mx/lib/size/libc.a(lib_a-dtoa.o) (_Balloc)
/home/ishyro/.arduino15/packages/chipKIT/tools/pic32-tools/1.43-pic32gcc/bin/bin/../../lib/gcc/pic32mx/4.8.3/../../../../pic32mx/lib/size/libc.a(lib_a-reent.o)
                              /home/ishyro/.arduino15/packages/chipKIT/tools/pic32-tools/1.43-pic32gcc/bin/bin/../../lib/gcc/pic32mx/4.8.3/../../../../pic32mx/lib/size/libc.a(lib_a-sbrkr.o) (errno)
/home/ishyro/.arduino15/packages/chipKIT/tools/pic32-tools/1.43-pic32gcc/bin/bin/../../lib/gcc/pic32mx/4.8.3/../../../../pic32mx/lib/size/libc.a(lib_a-svfiprintf.o)
                              /home/ishyro/.arduino15/packages/chipKIT/tools/pic32-tools/1.43-pic32gcc/bin/bin/../../lib/gcc/pic32mx/4.8.3/../../../../pic32mx/lib/size/libc.a(lib_a-svfprintf.o) (__ssprint_r)
/home/ishyro/.arduino15/packages/chipKIT/tools/pic32-tools/1.43-pic32gcc/bin/bin/../../lib/gcc/pic32mx/4.8.3/../../../../pic32mx/lib/size/libc.a(lib_a-callocr.o)
                              /home/ishyro/.arduino15/packages/chipKIT/tools/pic32-tools/1.43-pic32gcc/bin/bin/../../lib/gcc/pic32mx/4.8.3/../../../../pic32mx/lib/size/libc.a(lib_a-mprec.o) (_calloc_r)
/home/ishyro/.arduino15/packages/chipKIT/tools/pic32-tools/1.43-pic32gcc/bin/bin/../../lib/gcc/pic32mx/4.8.3/../../../../pic32mx/lib/size/libc.a(lib_a-memset.o)
                              /home/ishyro/.arduino15/packages/chipKIT/tools/pic32-tools/1.43-pic32gcc/bin/bin/../../lib/gcc/pic32mx/4.8.3/../../../../pic32mx/lib/size/libc.a(lib_a-callocr.o) (memset)
/home/ishyro/.arduino15/packages/chipKIT/tools/pic32-tools/1.43-pic32gcc/bin/bin/../../lib/gcc/pic32mx/4.8.3/../../../../pic32mx/lib/size/libc.a(lib_a-reallocr.o)
                              /home/ishyro/.arduino15/packages/chipKIT/tools/pic32-tools/1.43-pic32gcc/bin/bin/../../lib/gcc/pic32mx/4.8.3/../../../../pic32mx/lib/size/libc.a(lib_a-svfiprintf.o) (_realloc_r)
/home/ishyro/.arduino15/packages/chipKIT/tools/pic32-tools/1.43-pic32gcc/bin/bin/../../lib/gcc/pic32mx/4.8.3/../../../../pic32mx/lib/size/libpic32.a(sbrk.o)
                              /home/ishyro/.arduino15/packages/chipKIT/tools/pic32-tools/1.43-pic32gcc/bin/bin/../../lib/gcc/pic32mx/4.8.3/../../../../pic32mx/lib/size/libc.a(lib_a-sbrkr.o) (sbrk)
/home/ishyro/.arduino15/packages/chipKIT/tools/pic32-tools/1.43-pic32gcc/bin/bin/../../lib/gcc/pic32mx/4.8.3/../../../../pic32mx/lib/size/libpic32.a(default-bootstrap-exception-handler.o)
                              /tmp/ccqWBQHT.o (_bootstrap_exception_handler)
/home/ishyro/.arduino15/packages/chipKIT/tools/pic32-tools/1.43-pic32gcc/bin/bin/../../lib/gcc/pic32mx/4.8.3/../../../../pic32mx/lib/size/libpic32.a(default-on-reset.o)
                              /tmp/ccqWBQHT.o (_on_reset)
/home/ishyro/.arduino15/packages/chipKIT/tools/pic32-tools/1.43-pic32gcc/bin/bin/../../lib/gcc/pic32mx/4.8.3/../../../../pic32mx/lib/size/libpic32.a(default-on-bootstrap.o)
                              /tmp/ccqWBQHT.o (_on_bootstrap)
/home/ishyro/.arduino15/packages/chipKIT/tools/pic32-tools/1.43-pic32gcc/bin/bin/../../lib/gcc/pic32mx/4.8.3/../../../../pic32mx/lib/size/libpic32.a(default-nmi-handler.o)
                              /tmp/ccqWBQHT.o (_nmi_handler)
/home/ishyro/.arduino15/packages/chipKIT/tools/pic32-tools/1.43-pic32gcc/bin/bin/../../lib/gcc/pic32mx/4.8.3/../../../../pic32mx/lib/size/libpic32.a(_exit.o)
                              /home/ishyro/.arduino15/packages/chipKIT/tools/pic32-tools/1.43-pic32gcc/bin/bin/../../lib/gcc/pic32mx/4.8.3/../../../../pic32mx/lib/size/libc.a(lib_a-abort.o) (_exit)
/home/ishyro/.arduino15/packages/chipKIT/tools/pic32-tools/1.43-pic32gcc/bin/bin/../../lib/gcc/pic32mx/4.8.3/../../../../pic32mx/lib/size/libpic32.a(kill.o)
                              /home/ishyro/.arduino15/packages/chipKIT/tools/pic32-tools/1.43-pic32gcc/bin/bin/../../lib/gcc/pic32mx/4.8.3/../../../../pic32mx/lib/size/libc.a(lib_a-signalr.o) (kill)
/home/ishyro/.arduino15/packages/chipKIT/tools/pic32-tools/1.43-pic32gcc/bin/bin/../../lib/gcc/pic32mx/4.8.3/../../../../pic32mx/lib/size/libpic32.a(getpid.o)
                              /home/ishyro/.arduino15/packages/chipKIT/tools/pic32-tools/1.43-pic32gcc/bin/bin/../../lib/gcc/pic32mx/4.8.3/../../../../pic32mx/lib/size/libc.a(lib_a-signalr.o) (getpid)
/home/ishyro/.arduino15/packages/chipKIT/tools/pic32-tools/1.43-pic32gcc/bin/bin/../../lib/gcc/pic32mx/4.8.3/size/libgcc.a(_udivdi3.o)
                              /home/ishyro/.arduino15/packages/chipKIT/tools/pic32-tools/1.43-pic32gcc/bin/bin/../../lib/gcc/pic32mx/4.8.3/../../../../pic32mx/lib/size/libc.a(lib_a-svfprintf.o) (__udivdi3)
/home/ishyro/.arduino15/packages/chipKIT/tools/pic32-tools/1.43-pic32gcc/bin/bin/../../lib/gcc/pic32mx/4.8.3/size/libgcc.a(_umoddi3.o)
                              /home/ishyro/.arduino15/packages/chipKIT/tools/pic32-tools/1.43-pic32gcc/bin/bin/../../lib/gcc/pic32mx/4.8.3/../../../../pic32mx/lib/size/libc.a(lib_a-svfprintf.o) (__umoddi3)

Allocating common symbols
Common symbol       size              file

_analogRead_channelNumber
                    0x1               /home/ishyro/Documents/Info/M1/S2/OMicroB-next/src/byterun/pic32/cores/core.a(wiring_analog.c.o)
__PIC32_pbClk       0x4               /home/ishyro/Documents/Info/M1/S2/OMicroB-next/src/byterun/pic32/cores/core.a(wiring.c.o)

Microchip PIC32 Memory-Usage Report

kseg0 Program-Memory Usage
section                    address  length [bytes]      (dec)  Description
-------                 ----------  -------------------------  -----------
.reset                  0x9d001000            0x8           8  Reset handler 
.startup                0x9d001008          0x200         512  C startup code 
.text                   0x9d001208          0x1bc         444  App's exec code 
.init                   0x9d0013c4           0x30          48   
.fini                   0x9d0013f4           0x28          40   
.ctors                  0x9d00141c            0xc          12   
.dtors                  0x9d001428            0x8           8   
.header_info            0x9d001430           0x4c          76   
.rodata                 0x9d00147c          0x1f4         500  Read-only const 
.text                   0x9d001670         0x4594       17812  App's exec code 
.text._svfprintf_r      0x9d005c04         0x1970        6512   
.text._dtoa_r           0x9d007574         0x1320        4896   
.text.__kernel_rem_pio2 0x9d008894          0xc28        3112   
.dinit                  0x9d0094bc          0xbb0        2992   
.text                   0x9d00a06c          0xfa8        4008  App's exec code 
.text.__ieee754_rem_pio 0x9d00b014          0x6ec        1772   
.text                   0x9d00b700          0x6e4        1764  App's exec code 
.text._malloc_r         0x9d00bde4          0x68c        1676   
.text._ZN10USBManager13 0x9d00c470          0x614        1556   
.text._ZN5USBFS11addEnd 0x9d00ca84          0x5f4        1524   
.text._realloc_r        0x9d00d078          0x5bc        1468   
.text.atan              0x9d00d634          0x58c        1420   
.text                   0x9d00dbc0          0x930        2352  App's exec code 
.text._ZNK10__cxxabiv12 0x9d00e4f0          0x490        1168   
.text                   0x9d00e980          0x8f4        2292  App's exec code 
.text                   0x9d00f274          0x89c        2204  App's exec code 
.text                   0x9d00fb10          0x410        1040  App's exec code 
.text._ZN5USBFS15handle 0x9d00ff20          0x3b0         944   
.text                   0x9d0102d0          0x378         888  App's exec code 
.text._ZN5USBFS21popula 0x9d010648          0x370         880   
.text.__kernel_cos      0x9d0109b8          0x354         852   
.text.__ieee754_fmod    0x9d010d0c          0x308         776   
.text.__ieee754_atan2   0x9d011014          0x2ec         748   
.text                   0x9d011300          0x2c0         704  App's exec code 
.text.__kernel_sin      0x9d0115c0          0x2b8         696   
.text._ZN5USBFS10sendBu 0x9d011878          0x28c         652   
.text._free_r           0x9d011b04          0x278         632   
.text.__ieee754_sqrt    0x9d011d7c          0x260         608   
.text                   0x9d011fdc          0x24c         588  App's exec code 
.text._ZNK10__cxxabiv12 0x9d012228          0x240         576   
.text.CoreTimerHandler  0x9d012468          0x23c         572   
.text._ZN6CDCACM31popul 0x9d0126a4          0x224         548   
.text.quorem            0x9d0128c8          0x200         512   
.text.floor             0x9d012ac8          0x1e8         488   
.text.__multiply        0x9d012cb0          0x1e0         480   
.text.__ssprint_r       0x9d012e90          0x1d4         468   
.text._scheduleTask     0x9d013064          0x1b8         440   
.text                   0x9d01321c          0x1b0         432  App's exec code 
.rodata                 0x9d0133cc          0x1ac         428  Read-only const 
.text._ZN6CDCACM11onOut 0x9d013578          0x194         404   
.text.analogWrite       0x9d01370c          0x18c         396   
.text.pinMode           0x9d013898          0x18c         396   
.text                   0x9d013a24          0x184         388  App's exec code 
.text._ZN6CDCACM5writeE 0x9d013ba8          0x180         384   
.text.__mdiff           0x9d013d28          0x164         356   
.text._ZN5USBFS9enableU 0x9d013e8c          0x160         352   
.text.fmod              0x9d013fec          0x160         352   
.text._sbrk_init        0x9d01414c          0x158         344   
.text.scalbn            0x9d0142a4          0x154         340   
.text.__lshift          0x9d0143f8          0x154         340   
.text._ZN6CDCACM13onSet 0x9d01454c          0x138         312   
.text.sqrt              0x9d014684          0x138         312   
.text.__d2b             0x9d0147bc          0x130         304   
.text._ZNK10__cxxabiv12 0x9d0148ec          0x128         296   
.text                   0x9d014a14          0x11c         284  App's exec code 
.text._malloc_trim_r    0x9d014b30          0x114         276   
.text._ZN6CDCACM10onInP 0x9d014c44          0x110         272   
.text._ZN5USBFS13enqueu 0x9d014d54          0x110         272   
.text                   0x9d014e64          0x10c         268  App's exec code 
.text.__multadd         0x9d014f70          0x10c         268   
.rodata.two_over_pi.two 0x9d01507c          0x108         264   
.text.__pow5mult        0x9d015184          0x108         264   
.text                   0x9d01528c          0x104         260  App's exec code 
.text._ZNK10__cxxabiv12 0x9d015390          0x100         256   
.text.configurePWM      0x9d015490           0xf0         240   
.text._ZN10USBManagerC2 0x9d015580           0xf0         240   
.text._ZN6CDCACM18confi 0x9d015670           0xf0         240   
.text.analogReadConvers 0x9d015760           0xe8         232   
.text.digitalWrite      0x9d015848           0xe8         232   
.text                   0x9d015930           0xe8         232  App's exec code 
.text.init              0x9d015a18           0xe0         224   
.text.sin               0x9d015af8           0xd4         212   
.text                   0x9d015bcc           0xd4         212  App's exec code 
.text._ZN6CDCACM4readEv 0x9d015ca0           0xc8         200   
.text.cos               0x9d015d68           0xc8         200   
.rodata.__mprec_tens.__ 0x9d015e30           0xc8         200   
.text.__lo0bits         0x9d015ef8           0xbc         188   
.text._sbrk             0x9d015fb4           0xbc         188   
.text._ZN10USBManager10 0x9d016070           0xb8         184   
.text                   0x9d016128          0x160         352  App's exec code 
.text._calloc_r         0x9d016288           0xb0         176   
.text._Balloc           0x9d016338           0xac         172   
.text.snprintf          0x9d0163e4           0xa4         164   
.text._GLOBAL__sub_I_us 0x9d016488           0x98         152   
.text.executeSoftReset  0x9d016520           0x94         148   
.text._ZNK10__cxxabiv11 0x9d0165b4           0x94         148   
.rodata                 0x9d016648           0x90         144  Read-only const 
.text._ZN10USBManager11 0x9d0166d8           0x8c         140   
.text._ZN10USBManager9a 0x9d016764           0x88         136   
.text.micros            0x9d0167ec           0x80         128   
.rodata.npio2_hw.npio2_ 0x9d01686c           0x80         128   
.text                   0x9d0168ec           0x80         128  App's exec code 
.text._ZNK10__cxxabiv11 0x9d01696c           0x7c         124   
.text._ZNK10__cxxabiv12 0x9d0169e8           0x7c         124   
.text._ZN6CDCACM5writeE 0x9d016a64           0x78         120   
.text                   0x9d016adc           0x78         120  App's exec code 
.text.memmove           0x9d016b54           0x78         120   
.text.initIntVector     0x9d016bcc           0x74         116   
.text._ZNK10__cxxabiv12 0x9d016c40           0x74         116   
.text                   0x9d016cb4           0x74         116  App's exec code 
.text.__hi0bits         0x9d016d28           0x74         116   
.text                   0x9d016d9c           0x70         112  App's exec code 
.text.digitalRead       0x9d016e0c           0x68         104   
.text._ZNK10__cxxabiv11 0x9d016e74           0x68         104   
.text                   0x9d016edc           0xd0         208  App's exec code 
.text.__fpclassifyd     0x9d016fac           0x64         100   
.text.strcmp            0x9d017010           0x64         100   
.text.__mcmp            0x9d017074           0x64         100   
.text._ZN10USBManager5b 0x9d0170d8           0x60          96   
.rodata                 0x9d017138           0x60          96  Read-only const 
.text.turnOffPWM        0x9d017198           0x5c          92   
.text.setIntPriority    0x9d0171f4           0x5c          92   
.text._ZNK10__cxxabiv11 0x9d017250           0x5c          92   
.text.delay             0x9d0172ac           0x58          88   
.text._ZN6CDCACM10initD 0x9d017304           0x54          84   
.text._ZNKSt9type_info1 0x9d017358           0x50          80   
.rodata                 0x9d0173a8           0x50          80  Read-only const 
.text._sbrk_r           0x9d0173f8           0x50          80   
.text.sbrk              0x9d017448           0x50          80   
.text._ZN5USBFS6resumeE 0x9d017498           0x48          72   
.text._ZNKSt9type_infoe 0x9d0174e0           0x90         144   
.text._ZNKSt9type_infoe 0x9d017570           0x48          72   
.rodata                 0x9d0175b8           0x90         144  Read-only const 
.text                   0x9d017648           0x48          72  App's exec code 
.text._bootstrap_except 0x9d017690           0x48          72   
.text.pic32softwarerese 0x9d0176d8           0x44          68   
.text.delayMicroseconds 0x9d01771c           0x44          68   
.rodata.digital_pin_to_ 0x9d017760           0x44          68   
.rodata.digital_pin_to_ 0x9d0177a4           0x44          68   
.text                   0x9d0177e8           0x44          68  App's exec code 
.text.analogRead        0x9d01782c           0x40          64   
.text._ZN5USBFS16canEnq 0x9d01786c           0x40          64   
.rodata                 0x9d0178ac            0x4           4  Read-only const 
.rodata.PIo2.PIo2       0x9d0178b0           0x40          64   
.text                   0x9d0178f0           0x80         128  App's exec code 
.text                   0x9d017970           0x40          64  App's exec code 
.text.millisecondCoreTi 0x9d0179b0           0x3c          60   
.rodata                 0x9d0179ec           0x3c          60  Read-only const 
.text._general_exceptio 0x9d017a28           0x38          56   
.text.setIntEnable      0x9d017a60           0x38          56   
.text._softwareReset    0x9d017a98           0x38          56   
.rodata                 0x9d017ad0           0x38          56  Read-only const 
.text.main_entry        0x9d017b08           0x34          52   
.text.clearIntFlag      0x9d017b3c           0x34          52   
.text.memchr            0x9d017b70           0x34          52   
.text.__i2b             0x9d017ba4           0x34          52   
.rodata                 0x9d017bd8           0x30          48  Read-only const 
.text.setIntVector      0x9d017c08           0x2c          44   
.text._configSystem     0x9d017c34           0x2c          44   
.text._ZN10__cxxabiv117 0x9d017c60           0x2c          44   
.text._ZN10__cxxabiv120 0x9d017c8c           0x2c          44   
.text._ZN10__cxxabiv121 0x9d017cb8           0x2c          44   
.text.memcpy            0x9d017ce4           0x2c          44   
.text._Bfree            0x9d017d10           0x2c          44   
.text._stub_sbd_memlayo 0x9d017d3c           0x2c          44   
.text._ZN6CDCACM4peekEv 0x9d017d68           0x28          40   
.text._enableMultiVecto 0x9d017d90           0x28          40   
.text._ZdlPv            0x9d017db8           0x28          40   
.rodata.__mprec_bigtens 0x9d017de0           0x28          40   
.text._initTaskManager  0x9d017e08           0x24          36   
.text.usb_boot_system   0x9d017e2c           0x24          36   
.rodata.digital_pin_to_ 0x9d017e50           0x24          36   
.rodata.digital_pin_to_ 0x9d017e74           0x24          36   
.rodata.digital_pin_to_ 0x9d017e98           0x24          36   
.rodata.port_to_tris_PG 0x9d017ebc           0x24          36   
.text._ZN10__cxxabiv117 0x9d017ee0           0x24          36   
.text._ZN10__cxxabiv120 0x9d017f04           0x24          36   
.text._ZNSt9type_infoD0 0x9d017f28           0x24          36   
.text._ZN10__cxxabiv121 0x9d017f4c           0x24          36   
.text.malloc            0x9d017f70           0x24          36   
.text.free              0x9d017f94           0x24          36   
.text.memset            0x9d017fb8           0x24          36   
.rodata.psval.psval     0x9d017fdc           0x20          32   
.rodata.atanhi.atanhi   0x9d018000           0x20          32   
.rodata.atanlo.atanlo   0x9d018020           0x20          32   
.rodata                 0x9d018040           0x20          32  Read-only const 
.text._ZN5USBFS10disabl 0x9d018060           0x1c          28   
.text._ZN5USBFS6isIdleE 0x9d01807c           0x1c          28   
.text.restoreInterrupts 0x9d018098           0x1c          28   
.text.getPeripheralCloc 0x9d0180b4           0x1c          28   
.text._ZNK10__cxxabiv11 0x9d0180d0           0x1c          28   
.text.atan2             0x9d0180ec           0x1c          28   
.rodata                 0x9d018108           0x18          24  Read-only const 
.text.copysign          0x9d018120           0x18          24   
.text                   0x9d018138           0x30          48  App's exec code 
.text._ZN6CDCACM9availa 0x9d018168           0x14          20   
.text._ZN6CDCACM17avail 0x9d01817c           0x14          20   
.text._board_init       0x9d018190           0x14          20   
.rodata                 0x9d0181a4           0x14          20  Read-only const 
.text._ZN10USBManager17 0x9d0181b8           0x10          16   
.text._ZN10USBManager16 0x9d0181c8           0x10          16   
.text._ZN5USBFS10setAdd 0x9d0181d8           0x10          16   
.text._initCoreTimer    0x9d0181e8           0x10          16   
.rodata.analog_pin_to_c 0x9d0181f8           0x10          16   
.text._ZNSt9type_infoD2 0x9d018208           0x10          16   
.rodata.Zero.Zero       0x9d018218           0x10          16   
.rodata.init_jk.init_jk 0x9d018228           0x10          16   
.text.fabs              0x9d018238           0x10          16   
.rodata.blanks.4081.bla 0x9d018248           0x10          16   
.rodata.zeroes.4082.zer 0x9d018258           0x10          16   
.text.millis            0x9d018268            0xc          12   
.text.disableInterrupts 0x9d018274            0xc          12   
.text.readCoreTimer     0x9d018280            0xc          12   
.text.__errno           0x9d01828c            0xc          12   
.text._localeconv_r     0x9d018298            0xc          12   
.rodata.p05.2611.p05    0x9d0182a4            0xc          12   
.text._general_exceptio 0x9d0182b0            0x8           8   
.text._ZN6CDCACM19getDe 0x9d0182b8            0x8           8   
.text._ZN6CDCACM17getIn 0x9d0182c0            0x8           8   
.text._ZN6CDCACM13getDe 0x9d0182c8            0x8           8   
.text._ZThn4_N6CDCACM9a 0x9d0182d0            0x8           8   
.text._ZThn4_N6CDCACM17 0x9d0182d8            0x8           8   
.text._ZThn4_N6CDCACM4r 0x9d0182e0            0x8           8   
.text._ZN6CDCACM5flushE 0x9d0182e8            0x8           8   
.text._ZThn4_N6CDCACM5f 0x9d0182f0            0x8           8   
.text._ZThn4_N6CDCACM4p 0x9d0182f8            0x8           8   
.text._ZN6CDCACM12onEnu 0x9d018300            0x8           8   
.text._ZThn4_N6CDCACM5w 0x9d018308            0x8           8   
.text._ZThn4_N6CDCACM5w 0x9d018310            0x8           8   
.rodata.output_compare_ 0x9d018318            0x8           8   
.text._ZNKSt9type_info1 0x9d018320            0x8           8   
.text._ZNKSt9type_info1 0x9d018328            0x8           8   
.text._ZNKSt9type_info1 0x9d018330            0x8           8   
.rodata                 0x9d018338           0x10          16  Read-only const 
.rodata                 0x9d018348            0x8           8  Read-only const 
.text.matherr           0x9d018350            0x8           8   
.rodata                 0x9d018358            0x8           8  Read-only const 
.text.__malloc_lock     0x9d018360            0x8           8   
.text.__malloc_unlock   0x9d018368            0x8           8   
.text._on_reset         0x9d018370            0x8           8   
.text._on_bootstrap     0x9d018378            0x8           8   
      Total kseg0_program_mem used  :     0x1737c       95100  80.1% of 0x1d000

kseg0 Boot-Memory Usage
section                    address  length [bytes]      (dec)  Description
-------                 ----------  -------------------------  -----------
         Total kseg0_boot_mem used  :           0           0  

Exception-Memory Usage 
section                    address  length [bytes]      (dec)  Description
-------                 ----------  -------------------------  -----------
.image_ptr_table        0x9d0000f8            0x8           8   
.app_excpt              0x9d000180           0x10          16  General-Exception 
.vector_0               0x9d000200           0x14          20  Interrupt Vector 0 
.vector_1               0x9d000220           0x14          20  Interrupt Vector 1 
.vector_2               0x9d000240           0x14          20  Interrupt Vector 2 
.vector_3               0x9d000260           0x14          20  Interrupt Vector 3 
.vector_4               0x9d000280           0x14          20  Interrupt Vector 4 
.vector_5               0x9d0002a0           0x14          20  Interrupt Vector 5 
.vector_6               0x9d0002c0           0x14          20  Interrupt Vector 6 
.vector_7               0x9d0002e0           0x14          20  Interrupt Vector 7 
.vector_8               0x9d000300           0x14          20  Interrupt Vector 8 
.vector_9               0x9d000320           0x14          20  Interrupt Vector 9 
.vector_10              0x9d000340           0x14          20  Interrupt Vector 10 
.vector_11              0x9d000360           0x14          20  Interrupt Vector 11 
.vector_12              0x9d000380           0x14          20  Interrupt Vector 12 
.vector_13              0x9d0003a0           0x14          20  Interrupt Vector 13 
.vector_14              0x9d0003c0           0x14          20  Interrupt Vector 14 
.vector_15              0x9d0003e0           0x14          20  Interrupt Vector 15 
.vector_16              0x9d000400           0x14          20  Interrupt Vector 16 
.vector_17              0x9d000420           0x14          20  Interrupt Vector 17 
.vector_18              0x9d000440           0x14          20  Interrupt Vector 18 
.vector_19              0x9d000460           0x14          20  Interrupt Vector 19 
.vector_20              0x9d000480           0x14          20  Interrupt Vector 20 
.vector_21              0x9d0004a0           0x14          20  Interrupt Vector 21 
.vector_22              0x9d0004c0           0x14          20  Interrupt Vector 22 
.vector_23              0x9d0004e0           0x14          20  Interrupt Vector 23 
.vector_24              0x9d000500           0x14          20  Interrupt Vector 24 
.vector_25              0x9d000520           0x14          20  Interrupt Vector 25 
.vector_26              0x9d000540           0x14          20  Interrupt Vector 26 
.vector_27              0x9d000560           0x14          20  Interrupt Vector 27 
.vector_28              0x9d000580           0x14          20  Interrupt Vector 28 
.vector_29              0x9d0005a0           0x14          20  Interrupt Vector 29 
.vector_30              0x9d0005c0           0x14          20  Interrupt Vector 30 
.vector_31              0x9d0005e0           0x14          20  Interrupt Vector 31 
.vector_32              0x9d000600           0x14          20  Interrupt Vector 32 
.vector_33              0x9d000620           0x14          20  Interrupt Vector 33 
.vector_34              0x9d000640           0x14          20  Interrupt Vector 34 
.vector_35              0x9d000660           0x14          20  Interrupt Vector 35 
.vector_36              0x9d000680           0x14          20  Interrupt Vector 36 
.vector_37              0x9d0006a0           0x14          20  Interrupt Vector 37 
.vector_38              0x9d0006c0           0x14          20  Interrupt Vector 38 
.vector_39              0x9d0006e0           0x14          20  Interrupt Vector 39 
.vector_40              0x9d000700           0x14          20  Interrupt Vector 40 
.vector_41              0x9d000720           0x14          20  Interrupt Vector 41 
.vector_42              0x9d000740           0x14          20  Interrupt Vector 42 
.vector_43              0x9d000760           0x14          20  Interrupt Vector 43 
.vector_44              0x9d000780           0x14          20  Interrupt Vector 44 
.vector_45              0x9d0007a0           0x14          20  Interrupt Vector 45 
.vector_46              0x9d0007c0           0x14          20  Interrupt Vector 46 
.vector_47              0x9d0007e0           0x14          20  Interrupt Vector 47 
.vector_48              0x9d000800           0x14          20  Interrupt Vector 48 
.vector_49              0x9d000820           0x14          20  Interrupt Vector 49 
.vector_50              0x9d000840           0x14          20  Interrupt Vector 50 
.vector_51              0x9d000860           0x14          20  Interrupt Vector 51 
.vector_52              0x9d000880           0x14          20  Interrupt Vector 52 
.vector_53              0x9d0008a0           0x14          20  Interrupt Vector 53 
.vector_54              0x9d0008c0           0x14          20  Interrupt Vector 54 
.vector_55              0x9d0008e0           0x14          20  Interrupt Vector 55 
.vector_56              0x9d000900           0x14          20  Interrupt Vector 56 
.vector_57              0x9d000920           0x14          20  Interrupt Vector 57 
.vector_58              0x9d000940           0x14          20  Interrupt Vector 58 
.vector_59              0x9d000960           0x14          20  Interrupt Vector 59 
.vector_60              0x9d000980           0x14          20  Interrupt Vector 60 
.vector_61              0x9d0009a0           0x14          20  Interrupt Vector 61 
.vector_62              0x9d0009c0           0x14          20  Interrupt Vector 62 
.vector_63              0x9d0009e0           0x14          20  Interrupt Vector 63 
          Total exception_mem used  :       0x518        1304  31.8% of 0x1000

kseg1 Boot-Memory Usage
section                    address  length [bytes]      (dec)  Description
-------                 ----------  -------------------------  -----------
         Total kseg1_boot_mem used  :           0           0  
        --------------------------------------------------------------------------
         Total Program Memory used  :     0x17894       96404  78.5% of 0x1e000
        --------------------------------------------------------------------------


kseg1 Data-Memory Usage
section                    address  length [bytes]      (dec)  Description
-------                 ----------  -------------------------  -----------
.dbg_data               0xa0000000          0x200         512  Memory reserved for debugger exec 
.ram_exchange_data      0xa0000200            0x8           8   
.sdata                  0xa0000208           0xf0         240  Small init data 
.sbss                   0xa00002f8          0x494        1172  Small uninit data 
.bss                    0xa000078c          0x66c        1644  Uninitialized data 
.libc.data.__fdlib_vers 0xa0000df8            0x4           4   
.libc.data._impure_ptr  0xa0000dfc            0x4           4   
.bss.usbDriver.usbDrive 0xa0000e00          0x600        1536   
.data.impure_data.impur 0xa0001400          0x418        1048   
.data.__malloc_av_.__ma 0xa0001818          0x408        1032   
.data.lconv.lconv       0xa0001c20           0x38          56   
.bss.__malloc_current_m 0xa0001c58           0x28          40   
.bss                    0xa0001c80           0x20          32  Uninitialized data 
.bss.mem.1296.mem       0xa0001ca0           0x18          24   
.data.__malloc_trim_thr 0xa0001cb8            0x4           4   
.bss.__malloc_top_pad._ 0xa0001cbc            0x4           4   
.data.__malloc_sbrk_bas 0xa0001cc0            0x4           4   
.bss.__malloc_max_sbrke 0xa0001cc4            0x4           4   
.bss.__malloc_max_total 0xa0001cc8            0x4           4   
.bss.errno.errno        0xa0001ccc            0x4           4   
.bss._minbrk._minbrk    0xa0001cd0            0x4           4   
.bss._maxbrk._maxbrk    0xa0001cd4            0x4           4   
.bss.curbrk.curbrk      0xa0001cd8            0x4           4   
         Total kseg1_data_mem used  :      0x1cdc        7388  22.5% of 0x8000
        --------------------------------------------------------------------------
            Total Data Memory used  :      0x1cdc        7388  22.5% of 0x8000
        --------------------------------------------------------------------------


Dynamic Data-Memory Reservation
section                    address  length [bytes]      (dec)  Description
-------                 ----------  -------------------------  -----------
heap                    0xa0001ce0          0x800        2048  Reserved for heap 
stack                   0xa00024f8         0x5af8       23288  Reserved for stack 

        --------------------------------------------------------------------------

Discarded input sections

 .data          0x00000000        0x0 /tmp/ccpHnSIR.o
 .reginfo       0x00000000       0x18 /tmp/ccpHnSIR.o
 .comment       0x00000000       0x40 /tmp/ccpHnSIR.o
 .text          0x00000000        0x0 /home/ishyro/Documents/Info/M1/S2/OMicroB-next/src/byterun/pic32/Board_Data.o
 .data          0x00000000        0x0 /home/ishyro/Documents/Info/M1/S2/OMicroB-next/src/byterun/pic32/Board_Data.o
 .bss           0x00000000        0x0 /home/ishyro/Documents/Info/M1/S2/OMicroB-next/src/byterun/pic32/Board_Data.o
 .reginfo       0x00000000       0x18 /home/ishyro/Documents/Info/M1/S2/OMicroB-next/src/byterun/pic32/Board_Data.o
 .text          0x00000000        0x0 /tmp/cc94H11c.o
 .data          0x00000000        0x0 /tmp/cc94H11c.o
 .bss           0x00000000        0x0 /tmp/cc94H11c.o
 .reginfo       0x00000000       0x18 /tmp/cc94H11c.o
 .text          0x00000000        0x0 /tmp/cc1iCQly.o
 .data          0x00000000        0x0 /tmp/cc1iCQly.o
 .bss           0x00000000        0x0 /tmp/cc1iCQly.o
 .reginfo       0x00000000       0x18 /tmp/cc1iCQly.o
 .text          0x00000000        0x0 /tmp/ccqWBQHT.o
 .data          0x00000000        0x0 /tmp/ccqWBQHT.o
 .bss           0x00000000        0x0 /tmp/ccqWBQHT.o
 .reginfo       0x00000000       0x18 /tmp/ccqWBQHT.o
 .text          0x00000000        0x0 /tmp/cc5bvK4e.o
 .data          0x00000000        0x0 /tmp/cc5bvK4e.o
 .bss           0x00000000        0x0 /tmp/cc5bvK4e.o
 .reginfo       0x00000000       0x18 /tmp/cc5bvK4e.o
 .text          0x00000000        0x0 /home/ishyro/Documents/Info/M1/S2/OMicroB-next/src/byterun/pic32/cores/core.a(exceptions.c.o)
 .data          0x00000000        0x0 /home/ishyro/Documents/Info/M1/S2/OMicroB-next/src/byterun/pic32/cores/core.a(exceptions.c.o)
 .bss           0x00000000        0x0 /home/ishyro/Documents/Info/M1/S2/OMicroB-next/src/byterun/pic32/cores/core.a(exceptions.c.o)
 .reginfo       0x00000000       0x18 /home/ishyro/Documents/Info/M1/S2/OMicroB-next/src/byterun/pic32/cores/core.a(exceptions.c.o)
 .text          0x00000000        0x0 /home/ishyro/Documents/Info/M1/S2/OMicroB-next/src/byterun/pic32/cores/core.a(task_manager.c.o)
 .data          0x00000000        0x0 /home/ishyro/Documents/Info/M1/S2/OMicroB-next/src/byterun/pic32/cores/core.a(task_manager.c.o)
 .bss           0x00000000        0x0 /home/ishyro/Documents/Info/M1/S2/OMicroB-next/src/byterun/pic32/cores/core.a(task_manager.c.o)
 .reginfo       0x00000000       0x18 /home/ishyro/Documents/Info/M1/S2/OMicroB-next/src/byterun/pic32/cores/core.a(task_manager.c.o)
 .text.getTaskId
                0x00000000       0x30 /home/ishyro/Documents/Info/M1/S2/OMicroB-next/src/byterun/pic32/cores/core.a(task_manager.c.o)
 .text.getTaskNextExec
                0x00000000       0x44 /home/ishyro/Documents/Info/M1/S2/OMicroB-next/src/byterun/pic32/cores/core.a(task_manager.c.o)
 .text.getTaskState
                0x00000000       0x40 /home/ishyro/Documents/Info/M1/S2/OMicroB-next/src/byterun/pic32/cores/core.a(task_manager.c.o)
 .text.getTaskPeriod
                0x00000000       0x40 /home/ishyro/Documents/Info/M1/S2/OMicroB-next/src/byterun/pic32/cores/core.a(task_manager.c.o)
 .text.setTaskVar
                0x00000000       0x38 /home/ishyro/Documents/Info/M1/S2/OMicroB-next/src/byterun/pic32/cores/core.a(task_manager.c.o)
 .text.getTaskVar
                0x00000000       0x44 /home/ishyro/Documents/Info/M1/S2/OMicroB-next/src/byterun/pic32/cores/core.a(task_manager.c.o)
 .text._updateTaskEvent
                0x00000000       0x68 /home/ishyro/Documents/Info/M1/S2/OMicroB-next/src/byterun/pic32/cores/core.a(task_manager.c.o)
 .text.createTask
                0x00000000      0x130 /home/ishyro/Documents/Info/M1/S2/OMicroB-next/src/byterun/pic32/cores/core.a(task_manager.c.o)
 .text.destroyTask
                0x00000000       0x78 /home/ishyro/Documents/Info/M1/S2/OMicroB-next/src/byterun/pic32/cores/core.a(task_manager.c.o)
 .text.startTaskAt
                0x00000000       0x60 /home/ishyro/Documents/Info/M1/S2/OMicroB-next/src/byterun/pic32/cores/core.a(task_manager.c.o)
 .text.setTaskState
                0x00000000       0x98 /home/ishyro/Documents/Info/M1/S2/OMicroB-next/src/byterun/pic32/cores/core.a(task_manager.c.o)
 .text.setTaskPeriod
                0x00000000       0x88 /home/ishyro/Documents/Info/M1/S2/OMicroB-next/src/byterun/pic32/cores/core.a(task_manager.c.o)
 .text          0x00000000        0x0 /home/ishyro/Documents/Info/M1/S2/OMicroB-next/src/byterun/pic32/cores/core.a(vector_table.S.o)
 .data          0x00000000        0x0 /home/ishyro/Documents/Info/M1/S2/OMicroB-next/src/byterun/pic32/cores/core.a(vector_table.S.o)
 .bss           0x00000000        0x0 /home/ishyro/Documents/Info/M1/S2/OMicroB-next/src/byterun/pic32/cores/core.a(vector_table.S.o)
 .reginfo       0x00000000       0x18 /home/ishyro/Documents/Info/M1/S2/OMicroB-next/src/byterun/pic32/cores/core.a(vector_table.S.o)
 .text          0x00000000        0x0 /home/ishyro/Documents/Info/M1/S2/OMicroB-next/src/byterun/pic32/cores/core.a(wiring.c.o)
 .data          0x00000000        0x0 /home/ishyro/Documents/Info/M1/S2/OMicroB-next/src/byterun/pic32/cores/core.a(wiring.c.o)
 .bss           0x00000000        0x0 /home/ishyro/Documents/Info/M1/S2/OMicroB-next/src/byterun/pic32/cores/core.a(wiring.c.o)
 .reginfo       0x00000000       0x18 /home/ishyro/Documents/Info/M1/S2/OMicroB-next/src/byterun/pic32/cores/core.a(wiring.c.o)
 .text.lockPps  0x00000000        0xc /home/ishyro/Documents/Info/M1/S2/OMicroB-next/src/byterun/pic32/cores/core.a(wiring.c.o)
 .text.unlockPps
                0x00000000        0x8 /home/ishyro/Documents/Info/M1/S2/OMicroB-next/src/byterun/pic32/cores/core.a(wiring.c.o)
 .text.mapPps   0x00000000      0x140 /home/ishyro/Documents/Info/M1/S2/OMicroB-next/src/byterun/pic32/cores/core.a(wiring.c.o)
 .text.attachCoreTimerService
                0x00000000       0xb4 /home/ishyro/Documents/Info/M1/S2/OMicroB-next/src/byterun/pic32/cores/core.a(wiring.c.o)
 .text.detachCoreTimerService
                0x00000000       0x4c /home/ishyro/Documents/Info/M1/S2/OMicroB-next/src/byterun/pic32/cores/core.a(wiring.c.o)
 .text.callCoreTimerServiceNow
                0x00000000       0x78 /home/ishyro/Documents/Info/M1/S2/OMicroB-next/src/byterun/pic32/cores/core.a(wiring.c.o)
 .text          0x00000000        0x0 /home/ishyro/Documents/Info/M1/S2/OMicroB-next/src/byterun/pic32/cores/core.a(wiring_analog.c.o)
 .data          0x00000000        0x0 /home/ishyro/Documents/Info/M1/S2/OMicroB-next/src/byterun/pic32/cores/core.a(wiring_analog.c.o)
 .bss           0x00000000        0x0 /home/ishyro/Documents/Info/M1/S2/OMicroB-next/src/byterun/pic32/cores/core.a(wiring_analog.c.o)
 .reginfo       0x00000000       0x18 /home/ishyro/Documents/Info/M1/S2/OMicroB-next/src/byterun/pic32/cores/core.a(wiring_analog.c.o)
 .text.analogReference
                0x00000000       0x40 /home/ishyro/Documents/Info/M1/S2/OMicroB-next/src/byterun/pic32/cores/core.a(wiring_analog.c.o)
 .text.analogReadConversionComplete
                0x00000000       0x10 /home/ishyro/Documents/Info/M1/S2/OMicroB-next/src/byterun/pic32/cores/core.a(wiring_analog.c.o)
 .text.analogReadConversion
                0x00000000       0x10 /home/ishyro/Documents/Info/M1/S2/OMicroB-next/src/byterun/pic32/cores/core.a(wiring_analog.c.o)
 .text.analogWriteFrequency
                0x00000000      0x114 /home/ishyro/Documents/Info/M1/S2/OMicroB-next/src/byterun/pic32/cores/core.a(wiring_analog.c.o)
 .text.analogWriteResolution
                0x00000000      0x120 /home/ishyro/Documents/Info/M1/S2/OMicroB-next/src/byterun/pic32/cores/core.a(wiring_analog.c.o)
 .text          0x00000000        0x0 /home/ishyro/Documents/Info/M1/S2/OMicroB-next/src/byterun/pic32/cores/core.a(wiring_digital.c.o)
 .data          0x00000000        0x0 /home/ishyro/Documents/Info/M1/S2/OMicroB-next/src/byterun/pic32/cores/core.a(wiring_digital.c.o)
 .bss           0x00000000        0x0 /home/ishyro/Documents/Info/M1/S2/OMicroB-next/src/byterun/pic32/cores/core.a(wiring_digital.c.o)
 .reginfo       0x00000000       0x18 /home/ishyro/Documents/Info/M1/S2/OMicroB-next/src/byterun/pic32/cores/core.a(wiring_digital.c.o)
 .text.getPinMode
                0x00000000       0x80 /home/ishyro/Documents/Info/M1/S2/OMicroB-next/src/byterun/pic32/cores/core.a(wiring_digital.c.o)
 .text          0x00000000        0x0 /home/ishyro/Documents/Info/M1/S2/OMicroB-next/src/byterun/pic32/cores/core.a(USB.cpp.o)
 .data          0x00000000        0x0 /home/ishyro/Documents/Info/M1/S2/OMicroB-next/src/byterun/pic32/cores/core.a(USB.cpp.o)
 .bss           0x00000000        0x0 /home/ishyro/Documents/Info/M1/S2/OMicroB-next/src/byterun/pic32/cores/core.a(USB.cpp.o)
 .reginfo       0x00000000       0x18 /home/ishyro/Documents/Info/M1/S2/OMicroB-next/src/byterun/pic32/cores/core.a(USB.cpp.o)
 .gnu.linkonce.t._ZN5Print17availableForWriteEv
                0x00000000        0x8 /home/ishyro/Documents/Info/M1/S2/OMicroB-next/src/byterun/pic32/cores/core.a(USB.cpp.o)
 .text._ZN10USBManager14allocateStringEv
                0x00000000       0x10 /home/ishyro/Documents/Info/M1/S2/OMicroB-next/src/byterun/pic32/cores/core.a(USB.cpp.o)
 .text._ZN10USBManager3endEv
                0x00000000       0x14 /home/ishyro/Documents/Info/M1/S2/OMicroB-next/src/byterun/pic32/cores/core.a(USB.cpp.o)
 .text._ZN10USBManager12isEnumeratedEv
                0x00000000        0x8 /home/ishyro/Documents/Info/M1/S2/OMicroB-next/src/byterun/pic32/cores/core.a(USB.cpp.o)
 .text          0x00000000        0x0 /home/ishyro/Documents/Info/M1/S2/OMicroB-next/src/byterun/pic32/cores/core.a(USB_CDCACM.cpp.o)
 .data          0x00000000        0x0 /home/ishyro/Documents/Info/M1/S2/OMicroB-next/src/byterun/pic32/cores/core.a(USB_CDCACM.cpp.o)
 .bss           0x00000000        0x0 /home/ishyro/Documents/Info/M1/S2/OMicroB-next/src/byterun/pic32/cores/core.a(USB_CDCACM.cpp.o)
 .reginfo       0x00000000       0x18 /home/ishyro/Documents/Info/M1/S2/OMicroB-next/src/byterun/pic32/cores/core.a(USB_CDCACM.cpp.o)
 .text._ZN6CDCACMcviEv
                0x00000000        0xc /home/ishyro/Documents/Info/M1/S2/OMicroB-next/src/byterun/pic32/cores/core.a(USB_CDCACM.cpp.o)
 .text          0x00000000        0x0 /home/ishyro/Documents/Info/M1/S2/OMicroB-next/src/byterun/pic32/cores/core.a(USB_FS.cpp.o)
 .data          0x00000000        0x0 /home/ishyro/Documents/Info/M1/S2/OMicroB-next/src/byterun/pic32/cores/core.a(USB_FS.cpp.o)
 .bss           0x00000000        0x0 /home/ishyro/Documents/Info/M1/S2/OMicroB-next/src/byterun/pic32/cores/core.a(USB_FS.cpp.o)
 .reginfo       0x00000000       0x18 /home/ishyro/Documents/Info/M1/S2/OMicroB-next/src/byterun/pic32/cores/core.a(USB_FS.cpp.o)
 .gnu.linkonce.t._ZN9USBDriver10setManagerEP10USBManager
                0x00000000        0x8 /home/ishyro/Documents/Info/M1/S2/OMicroB-next/src/byterun/pic32/cores/core.a(USB_FS.cpp.o)
 .text          0x00000000        0x0 /home/ishyro/Documents/Info/M1/S2/OMicroB-next/src/byterun/pic32/cores/core.a(WSystem.c.o)
 .data          0x00000000        0x0 /home/ishyro/Documents/Info/M1/S2/OMicroB-next/src/byterun/pic32/cores/core.a(WSystem.c.o)
 .bss           0x00000000        0x0 /home/ishyro/Documents/Info/M1/S2/OMicroB-next/src/byterun/pic32/cores/core.a(WSystem.c.o)
 .reginfo       0x00000000       0x18 /home/ishyro/Documents/Info/M1/S2/OMicroB-next/src/byterun/pic32/cores/core.a(WSystem.c.o)
 .text.getIntVector
                0x00000000       0x28 /home/ishyro/Documents/Info/M1/S2/OMicroB-next/src/byterun/pic32/cores/core.a(WSystem.c.o)
 .text.clearIntVector
                0x00000000       0x7c /home/ishyro/Documents/Info/M1/S2/OMicroB-next/src/byterun/pic32/cores/core.a(WSystem.c.o)
 .text.enableInterrupts
                0x00000000        0xc /home/ishyro/Documents/Info/M1/S2/OMicroB-next/src/byterun/pic32/cores/core.a(WSystem.c.o)
 .text.getIntFlag
                0x00000000       0x38 /home/ishyro/Documents/Info/M1/S2/OMicroB-next/src/byterun/pic32/cores/core.a(WSystem.c.o)
 .text.clearIntEnable
                0x00000000       0x38 /home/ishyro/Documents/Info/M1/S2/OMicroB-next/src/byterun/pic32/cores/core.a(WSystem.c.o)
 .text.restoreIntEnable
                0x00000000       0x48 /home/ishyro/Documents/Info/M1/S2/OMicroB-next/src/byterun/pic32/cores/core.a(WSystem.c.o)
 .text.getIntPriority
                0x00000000       0x60 /home/ishyro/Documents/Info/M1/S2/OMicroB-next/src/byterun/pic32/cores/core.a(WSystem.c.o)
 .text.writeCoreTimer
                0x00000000        0xc /home/ishyro/Documents/Info/M1/S2/OMicroB-next/src/byterun/pic32/cores/core.a(WSystem.c.o)
 .text._disableSeconaryOscillator
                0x00000000       0x54 /home/ishyro/Documents/Info/M1/S2/OMicroB-next/src/byterun/pic32/cores/core.a(WSystem.c.o)
 .text          0x00000000        0x0 /home/ishyro/Documents/Info/M1/S2/OMicroB-next/src/byterun/pic32/cores/core.a(pins_arduino.c.o)
 .data          0x00000000        0x0 /home/ishyro/Documents/Info/M1/S2/OMicroB-next/src/byterun/pic32/cores/core.a(pins_arduino.c.o)
 .bss           0x00000000        0x0 /home/ishyro/Documents/Info/M1/S2/OMicroB-next/src/byterun/pic32/cores/core.a(pins_arduino.c.o)
 .reginfo       0x00000000       0x18 /home/ishyro/Documents/Info/M1/S2/OMicroB-next/src/byterun/pic32/cores/core.a(pins_arduino.c.o)
 .rodata.external_int_to_digital_pin_PGM.external_int_to_digital_pin_PGM
                0x00000000        0x8 /home/ishyro/Documents/Info/M1/S2/OMicroB-next/src/byterun/pic32/cores/core.a(pins_arduino.c.o)
 .rodata.output_compare_to_digital_pin_PGM.output_compare_to_digital_pin_PGM
                0x00000000        0x8 /home/ishyro/Documents/Info/M1/S2/OMicroB-next/src/byterun/pic32/cores/core.a(pins_arduino.c.o)
 .rodata.digital_pin_to_pps_in_PGM.digital_pin_to_pps_in_PGM
                0x00000000       0x24 /home/ishyro/Documents/Info/M1/S2/OMicroB-next/src/byterun/pic32/cores/core.a(pins_arduino.c.o)
 .rodata.ext_int_to_pps_sel_PGM.ext_int_to_pps_sel_PGM
                0x00000000        0x8 /home/ishyro/Documents/Info/M1/S2/OMicroB-next/src/byterun/pic32/cores/core.a(pins_arduino.c.o)
 .text          0x00000000        0x0 /home/ishyro/Documents/Info/M1/S2/OMicroB-next/src/byterun/pic32/cores/core.a(Print.cpp.o)
 .data          0x00000000        0x0 /home/ishyro/Documents/Info/M1/S2/OMicroB-next/src/byterun/pic32/cores/core.a(Print.cpp.o)
 .bss           0x00000000        0x0 /home/ishyro/Documents/Info/M1/S2/OMicroB-next/src/byterun/pic32/cores/core.a(Print.cpp.o)
 .reginfo       0x00000000       0x18 /home/ishyro/Documents/Info/M1/S2/OMicroB-next/src/byterun/pic32/cores/core.a(Print.cpp.o)
 .gnu.linkonce.t._ZN5Print17availableForWriteEv
                0x00000000        0x8 /home/ishyro/Documents/Info/M1/S2/OMicroB-next/src/byterun/pic32/cores/core.a(Print.cpp.o)
 .text._ZN5Print5writeEPKhm
                0x00000000       0x78 /home/ishyro/Documents/Info/M1/S2/OMicroB-next/src/byterun/pic32/cores/core.a(Print.cpp.o)
 .text._ZN5Print5printERK6String
                0x00000000       0x18 /home/ishyro/Documents/Info/M1/S2/OMicroB-next/src/byterun/pic32/cores/core.a(Print.cpp.o)
 .text._ZN5Print5printEPK19__FlashStringHelper
                0x00000000       0x50 /home/ishyro/Documents/Info/M1/S2/OMicroB-next/src/byterun/pic32/cores/core.a(Print.cpp.o)
 .text._ZN5Print5printEPKc
                0x00000000       0x50 /home/ishyro/Documents/Info/M1/S2/OMicroB-next/src/byterun/pic32/cores/core.a(Print.cpp.o)
 .text._ZN5Print5printEc
                0x00000000       0x10 /home/ishyro/Documents/Info/M1/S2/OMicroB-next/src/byterun/pic32/cores/core.a(Print.cpp.o)
 .text._ZN5Print5printERK9Printable
                0x00000000       0x18 /home/ishyro/Documents/Info/M1/S2/OMicroB-next/src/byterun/pic32/cores/core.a(Print.cpp.o)
 .text._ZN5Print7printlnEv
                0x00000000       0x54 /home/ishyro/Documents/Info/M1/S2/OMicroB-next/src/byterun/pic32/cores/core.a(Print.cpp.o)
 .text._ZN5Print7printlnERK6String
                0x00000000       0x50 /home/ishyro/Documents/Info/M1/S2/OMicroB-next/src/byterun/pic32/cores/core.a(Print.cpp.o)
 .text._ZN5Print7printlnEPKc
                0x00000000       0x84 /home/ishyro/Documents/Info/M1/S2/OMicroB-next/src/byterun/pic32/cores/core.a(Print.cpp.o)
 .text._ZN5Print7printlnEPK19__FlashStringHelper
                0x00000000        0x8 /home/ishyro/Documents/Info/M1/S2/OMicroB-next/src/byterun/pic32/cores/core.a(Print.cpp.o)
 .text._ZN5Print7printlnEc
                0x00000000       0x48 /home/ishyro/Documents/Info/M1/S2/OMicroB-next/src/byterun/pic32/cores/core.a(Print.cpp.o)
 .text._ZN5Print7printlnERK9Printable
                0x00000000       0x50 /home/ishyro/Documents/Info/M1/S2/OMicroB-next/src/byterun/pic32/cores/core.a(Print.cpp.o)
 .text._ZN5Print11printNumberEmh
                0x00000000       0xac /home/ishyro/Documents/Info/M1/S2/OMicroB-next/src/byterun/pic32/cores/core.a(Print.cpp.o)
 .text._ZN5Print5printEli
                0x00000000       0xb0 /home/ishyro/Documents/Info/M1/S2/OMicroB-next/src/byterun/pic32/cores/core.a(Print.cpp.o)
 .text._ZN5Print5printEii
                0x00000000        0x8 /home/ishyro/Documents/Info/M1/S2/OMicroB-next/src/byterun/pic32/cores/core.a(Print.cpp.o)
 .text._ZN5Print7printlnEii
                0x00000000       0x3c /home/ishyro/Documents/Info/M1/S2/OMicroB-next/src/byterun/pic32/cores/core.a(Print.cpp.o)
 .text._ZN5Print7printlnEli
                0x00000000       0x3c /home/ishyro/Documents/Info/M1/S2/OMicroB-next/src/byterun/pic32/cores/core.a(Print.cpp.o)
 .text._ZN5Print5printEmi
                0x00000000       0x1c /home/ishyro/Documents/Info/M1/S2/OMicroB-next/src/byterun/pic32/cores/core.a(Print.cpp.o)
 .text._ZN5Print5printEhi
                0x00000000        0x8 /home/ishyro/Documents/Info/M1/S2/OMicroB-next/src/byterun/pic32/cores/core.a(Print.cpp.o)
 .text._ZN5Print7printlnEhi
                0x00000000       0x3c /home/ishyro/Documents/Info/M1/S2/OMicroB-next/src/byterun/pic32/cores/core.a(Print.cpp.o)
 .text._ZN5Print5printEji
                0x00000000        0x8 /home/ishyro/Documents/Info/M1/S2/OMicroB-next/src/byterun/pic32/cores/core.a(Print.cpp.o)
 .text._ZN5Print7printlnEji
                0x00000000       0x3c /home/ishyro/Documents/Info/M1/S2/OMicroB-next/src/byterun/pic32/cores/core.a(Print.cpp.o)
 .text._ZN5Print7printlnEmi
                0x00000000       0x3c /home/ishyro/Documents/Info/M1/S2/OMicroB-next/src/byterun/pic32/cores/core.a(Print.cpp.o)
 .rodata        0x00000000       0x30 /home/ishyro/Documents/Info/M1/S2/OMicroB-next/src/byterun/pic32/cores/core.a(Print.cpp.o)
 .text._ZN5Print10printFloatEdh
                0x00000000      0x31c /home/ishyro/Documents/Info/M1/S2/OMicroB-next/src/byterun/pic32/cores/core.a(Print.cpp.o)
 .text._ZN5Print5printEdi
                0x00000000        0xc /home/ishyro/Documents/Info/M1/S2/OMicroB-next/src/byterun/pic32/cores/core.a(Print.cpp.o)
 .text._ZN5Print7printlnEdi
                0x00000000       0x44 /home/ishyro/Documents/Info/M1/S2/OMicroB-next/src/byterun/pic32/cores/core.a(Print.cpp.o)
 .text._ZN5Print6printfEPKcz
                0x00000000       0x38 /home/ishyro/Documents/Info/M1/S2/OMicroB-next/src/byterun/pic32/cores/core.a(Print.cpp.o)
 .gnu.linkonce.r._ZTV5Print._ZTV5Print
                0x00000000       0x18 /home/ishyro/Documents/Info/M1/S2/OMicroB-next/src/byterun/pic32/cores/core.a(Print.cpp.o)
 .text          0x00000000        0x0 /home/ishyro/Documents/Info/M1/S2/OMicroB-next/src/byterun/pic32/cores/core.a(doprnt.cpp.o)
 .data          0x00000000        0x0 /home/ishyro/Documents/Info/M1/S2/OMicroB-next/src/byterun/pic32/cores/core.a(doprnt.cpp.o)
 .bss           0x00000000        0x0 /home/ishyro/Documents/Info/M1/S2/OMicroB-next/src/byterun/pic32/cores/core.a(doprnt.cpp.o)
 .reginfo       0x00000000       0x18 /home/ishyro/Documents/Info/M1/S2/OMicroB-next/src/byterun/pic32/cores/core.a(doprnt.cpp.o)
 .text._ZL8cvtrounddPiPhS0_hS0_
                0x00000000      0x1b4 /home/ishyro/Documents/Info/M1/S2/OMicroB-next/src/byterun/pic32/cores/core.a(doprnt.cpp.o)
 .rodata        0x00000000       0x40 /home/ishyro/Documents/Info/M1/S2/OMicroB-next/src/byterun/pic32/cores/core.a(doprnt.cpp.o)
 .text._Z7_doprntPKcPvP5Print
                0x00000000     0x1dd8 /home/ishyro/Documents/Info/M1/S2/OMicroB-next/src/byterun/pic32/cores/core.a(doprnt.cpp.o)
 .text          0x00000000        0x0 /home/ishyro/.arduino15/packages/chipKIT/tools/pic32-tools/1.43-pic32gcc/bin/bin/../../lib/gcc/pic32mx/4.8.3/../../../../pic32mx/lib/size/libsupc++.a(class_type_info.o)
 .data          0x00000000        0x0 /home/ishyro/.arduino15/packages/chipKIT/tools/pic32-tools/1.43-pic32gcc/bin/bin/../../lib/gcc/pic32mx/4.8.3/../../../../pic32mx/lib/size/libsupc++.a(class_type_info.o)
 .bss           0x00000000        0x0 /home/ishyro/.arduino15/packages/chipKIT/tools/pic32-tools/1.43-pic32gcc/bin/bin/../../lib/gcc/pic32mx/4.8.3/../../../../pic32mx/lib/size/libsupc++.a(class_type_info.o)
 .reginfo       0x00000000       0x18 /home/ishyro/.arduino15/packages/chipKIT/tools/pic32-tools/1.43-pic32gcc/bin/bin/../../lib/gcc/pic32mx/4.8.3/../../../../pic32mx/lib/size/libsupc++.a(class_type_info.o)
 .rodata._ZN10__cxxabiv112_GLOBAL__N_1L20nonvirtual_base_typeE.nonvirtual_base_type
                0x00000000        0x4 /home/ishyro/.arduino15/packages/chipKIT/tools/pic32-tools/1.43-pic32gcc/bin/bin/../../lib/gcc/pic32mx/4.8.3/../../../../pic32mx/lib/size/libsupc++.a(class_type_info.o)
 .text          0x00000000        0x0 /home/ishyro/.arduino15/packages/chipKIT/tools/pic32-tools/1.43-pic32gcc/bin/bin/../../lib/gcc/pic32mx/4.8.3/../../../../pic32mx/lib/size/libsupc++.a(del_op.o)
 .data          0x00000000        0x0 /home/ishyro/.arduino15/packages/chipKIT/tools/pic32-tools/1.43-pic32gcc/bin/bin/../../lib/gcc/pic32mx/4.8.3/../../../../pic32mx/lib/size/libsupc++.a(del_op.o)
 .bss           0x00000000        0x0 /home/ishyro/.arduino15/packages/chipKIT/tools/pic32-tools/1.43-pic32gcc/bin/bin/../../lib/gcc/pic32mx/4.8.3/../../../../pic32mx/lib/size/libsupc++.a(del_op.o)
 .reginfo       0x00000000       0x18 /home/ishyro/.arduino15/packages/chipKIT/tools/pic32-tools/1.43-pic32gcc/bin/bin/../../lib/gcc/pic32mx/4.8.3/../../../../pic32mx/lib/size/libsupc++.a(del_op.o)
 .text          0x00000000        0x0 /home/ishyro/.arduino15/packages/chipKIT/tools/pic32-tools/1.43-pic32gcc/bin/bin/../../lib/gcc/pic32mx/4.8.3/../../../../pic32mx/lib/size/libsupc++.a(si_class_type_info.o)
 .data          0x00000000        0x0 /home/ishyro/.arduino15/packages/chipKIT/tools/pic32-tools/1.43-pic32gcc/bin/bin/../../lib/gcc/pic32mx/4.8.3/../../../../pic32mx/lib/size/libsupc++.a(si_class_type_info.o)
 .bss           0x00000000        0x0 /home/ishyro/.arduino15/packages/chipKIT/tools/pic32-tools/1.43-pic32gcc/bin/bin/../../lib/gcc/pic32mx/4.8.3/../../../../pic32mx/lib/size/libsupc++.a(si_class_type_info.o)
 .reginfo       0x00000000       0x18 /home/ishyro/.arduino15/packages/chipKIT/tools/pic32-tools/1.43-pic32gcc/bin/bin/../../lib/gcc/pic32mx/4.8.3/../../../../pic32mx/lib/size/libsupc++.a(si_class_type_info.o)
 .text          0x00000000        0x0 /home/ishyro/.arduino15/packages/chipKIT/tools/pic32-tools/1.43-pic32gcc/bin/bin/../../lib/gcc/pic32mx/4.8.3/../../../../pic32mx/lib/size/libsupc++.a(tinfo.o)
 .data          0x00000000        0x0 /home/ishyro/.arduino15/packages/chipKIT/tools/pic32-tools/1.43-pic32gcc/bin/bin/../../lib/gcc/pic32mx/4.8.3/../../../../pic32mx/lib/size/libsupc++.a(tinfo.o)
 .bss           0x00000000        0x0 /home/ishyro/.arduino15/packages/chipKIT/tools/pic32-tools/1.43-pic32gcc/bin/bin/../../lib/gcc/pic32mx/4.8.3/../../../../pic32mx/lib/size/libsupc++.a(tinfo.o)
 .reginfo       0x00000000       0x18 /home/ishyro/.arduino15/packages/chipKIT/tools/pic32-tools/1.43-pic32gcc/bin/bin/../../lib/gcc/pic32mx/4.8.3/../../../../pic32mx/lib/size/libsupc++.a(tinfo.o)
 .text          0x00000000        0x0 /home/ishyro/.arduino15/packages/chipKIT/tools/pic32-tools/1.43-pic32gcc/bin/bin/../../lib/gcc/pic32mx/4.8.3/../../../../pic32mx/lib/size/libsupc++.a(vmi_class_type_info.o)
 .data          0x00000000        0x0 /home/ishyro/.arduino15/packages/chipKIT/tools/pic32-tools/1.43-pic32gcc/bin/bin/../../lib/gcc/pic32mx/4.8.3/../../../../pic32mx/lib/size/libsupc++.a(vmi_class_type_info.o)
 .bss           0x00000000        0x0 /home/ishyro/.arduino15/packages/chipKIT/tools/pic32-tools/1.43-pic32gcc/bin/bin/../../lib/gcc/pic32mx/4.8.3/../../../../pic32mx/lib/size/libsupc++.a(vmi_class_type_info.o)
 .reginfo       0x00000000       0x18 /home/ishyro/.arduino15/packages/chipKIT/tools/pic32-tools/1.43-pic32gcc/bin/bin/../../lib/gcc/pic32mx/4.8.3/../../../../pic32mx/lib/size/libsupc++.a(vmi_class_type_info.o)
 .rodata._ZN10__cxxabiv112_GLOBAL__N_1L20nonvirtual_base_typeE.nonvirtual_base_type
                0x00000000        0x4 /home/ishyro/.arduino15/packages/chipKIT/tools/pic32-tools/1.43-pic32gcc/bin/bin/../../lib/gcc/pic32mx/4.8.3/../../../../pic32mx/lib/size/libsupc++.a(vmi_class_type_info.o)
 .text          0x00000000        0x0 /home/ishyro/.arduino15/packages/chipKIT/tools/pic32-tools/1.43-pic32gcc/bin/bin/../../lib/gcc/pic32mx/4.8.3/../../../../pic32mx/lib/size/libsupc++.a(pure.o)
 .data          0x00000000        0x0 /home/ishyro/.arduino15/packages/chipKIT/tools/pic32-tools/1.43-pic32gcc/bin/bin/../../lib/gcc/pic32mx/4.8.3/../../../../pic32mx/lib/size/libsupc++.a(pure.o)
 .bss           0x00000000        0x0 /home/ishyro/.arduino15/packages/chipKIT/tools/pic32-tools/1.43-pic32gcc/bin/bin/../../lib/gcc/pic32mx/4.8.3/../../../../pic32mx/lib/size/libsupc++.a(pure.o)
 .reginfo       0x00000000       0x18 /home/ishyro/.arduino15/packages/chipKIT/tools/pic32-tools/1.43-pic32gcc/bin/bin/../../lib/gcc/pic32mx/4.8.3/../../../../pic32mx/lib/size/libsupc++.a(pure.o)
 .text.__cxa_pure_virtual
                0x00000000       0x10 /home/ishyro/.arduino15/packages/chipKIT/tools/pic32-tools/1.43-pic32gcc/bin/bin/../../lib/gcc/pic32mx/4.8.3/../../../../pic32mx/lib/size/libsupc++.a(pure.o)
 .text.__cxa_deleted_virtual
                0x00000000       0x10 /home/ishyro/.arduino15/packages/chipKIT/tools/pic32-tools/1.43-pic32gcc/bin/bin/../../lib/gcc/pic32mx/4.8.3/../../../../pic32mx/lib/size/libsupc++.a(pure.o)
 .rodata._ZN10__cxxabiv1L29__gxx_primary_exception_classE.__gxx_primary_exception_class
                0x00000000        0x8 /home/ishyro/.arduino15/packages/chipKIT/tools/pic32-tools/1.43-pic32gcc/bin/bin/../../lib/gcc/pic32mx/4.8.3/../../../../pic32mx/lib/size/libsupc++.a(pure.o)
 .rodata._ZN10__cxxabiv1L31__gxx_dependent_exception_classE.__gxx_dependent_exception_class
                0x00000000        0x8 /home/ishyro/.arduino15/packages/chipKIT/tools/pic32-tools/1.43-pic32gcc/bin/bin/../../lib/gcc/pic32mx/4.8.3/../../../../pic32mx/lib/size/libsupc++.a(pure.o)
 .text          0x00000000        0x0 /home/ishyro/.arduino15/packages/chipKIT/tools/pic32-tools/1.43-pic32gcc/bin/bin/../../lib/gcc/pic32mx/4.8.3/../../../../pic32mx/lib/size/libsupc++.a(eh_terminate.o)
 .data          0x00000000        0x0 /home/ishyro/.arduino15/packages/chipKIT/tools/pic32-tools/1.43-pic32gcc/bin/bin/../../lib/gcc/pic32mx/4.8.3/../../../../pic32mx/lib/size/libsupc++.a(eh_terminate.o)
 .bss           0x00000000        0x0 /home/ishyro/.arduino15/packages/chipKIT/tools/pic32-tools/1.43-pic32gcc/bin/bin/../../lib/gcc/pic32mx/4.8.3/../../../../pic32mx/lib/size/libsupc++.a(eh_terminate.o)
 .reginfo       0x00000000       0x18 /home/ishyro/.arduino15/packages/chipKIT/tools/pic32-tools/1.43-pic32gcc/bin/bin/../../lib/gcc/pic32mx/4.8.3/../../../../pic32mx/lib/size/libsupc++.a(eh_terminate.o)
 .text._ZN10__cxxabiv111__terminateEPFvvE
                0x00000000       0x18 /home/ishyro/.arduino15/packages/chipKIT/tools/pic32-tools/1.43-pic32gcc/bin/bin/../../lib/gcc/pic32mx/4.8.3/../../../../pic32mx/lib/size/libsupc++.a(eh_terminate.o)
 .text._ZSt9terminatev
                0x00000000       0x14 /home/ishyro/.arduino15/packages/chipKIT/tools/pic32-tools/1.43-pic32gcc/bin/bin/../../lib/gcc/pic32mx/4.8.3/../../../../pic32mx/lib/size/libsupc++.a(eh_terminate.o)
 .text._ZN10__cxxabiv112__unexpectedEPFvvE
                0x00000000       0x18 /home/ishyro/.arduino15/packages/chipKIT/tools/pic32-tools/1.43-pic32gcc/bin/bin/../../lib/gcc/pic32mx/4.8.3/../../../../pic32mx/lib/size/libsupc++.a(eh_terminate.o)
 .text._ZSt10unexpectedv
                0x00000000       0x14 /home/ishyro/.arduino15/packages/chipKIT/tools/pic32-tools/1.43-pic32gcc/bin/bin/../../lib/gcc/pic32mx/4.8.3/../../../../pic32mx/lib/size/libsupc++.a(eh_terminate.o)
 .text._ZSt13set_terminatePFvvE
                0x00000000       0x10 /home/ishyro/.arduino15/packages/chipKIT/tools/pic32-tools/1.43-pic32gcc/bin/bin/../../lib/gcc/pic32mx/4.8.3/../../../../pic32mx/lib/size/libsupc++.a(eh_terminate.o)
 .text._ZSt14set_unexpectedPFvvE
                0x00000000       0x10 /home/ishyro/.arduino15/packages/chipKIT/tools/pic32-tools/1.43-pic32gcc/bin/bin/../../lib/gcc/pic32mx/4.8.3/../../../../pic32mx/lib/size/libsupc++.a(eh_terminate.o)
 .rodata._ZN10__cxxabiv1L29__gxx_primary_exception_classE.__gxx_primary_exception_class
                0x00000000        0x8 /home/ishyro/.arduino15/packages/chipKIT/tools/pic32-tools/1.43-pic32gcc/bin/bin/../../lib/gcc/pic32mx/4.8.3/../../../../pic32mx/lib/size/libsupc++.a(eh_terminate.o)
 .rodata._ZN10__cxxabiv1L31__gxx_dependent_exception_classE.__gxx_dependent_exception_class
                0x00000000        0x8 /home/ishyro/.arduino15/packages/chipKIT/tools/pic32-tools/1.43-pic32gcc/bin/bin/../../lib/gcc/pic32mx/4.8.3/../../../../pic32mx/lib/size/libsupc++.a(eh_terminate.o)
 .text          0x00000000        0x0 /home/ishyro/.arduino15/packages/chipKIT/tools/pic32-tools/1.43-pic32gcc/bin/bin/../../lib/gcc/pic32mx/4.8.3/../../../../pic32mx/lib/size/libsupc++.a(eh_unex_handler.o)
 .data          0x00000000        0x0 /home/ishyro/.arduino15/packages/chipKIT/tools/pic32-tools/1.43-pic32gcc/bin/bin/../../lib/gcc/pic32mx/4.8.3/../../../../pic32mx/lib/size/libsupc++.a(eh_unex_handler.o)
 .bss           0x00000000        0x0 /home/ishyro/.arduino15/packages/chipKIT/tools/pic32-tools/1.43-pic32gcc/bin/bin/../../lib/gcc/pic32mx/4.8.3/../../../../pic32mx/lib/size/libsupc++.a(eh_unex_handler.o)
 .reginfo       0x00000000       0x18 /home/ishyro/.arduino15/packages/chipKIT/tools/pic32-tools/1.43-pic32gcc/bin/bin/../../lib/gcc/pic32mx/4.8.3/../../../../pic32mx/lib/size/libsupc++.a(eh_unex_handler.o)
 .data._ZN10__cxxabiv120__unexpected_handlerE.__unexpected_handler
                0x00000000        0x4 /home/ishyro/.arduino15/packages/chipKIT/tools/pic32-tools/1.43-pic32gcc/bin/bin/../../lib/gcc/pic32mx/4.8.3/../../../../pic32mx/lib/size/libsupc++.a(eh_unex_handler.o)
 .rodata._ZN10__cxxabiv1L29__gxx_primary_exception_classE.__gxx_primary_exception_class
                0x00000000        0x8 /home/ishyro/.arduino15/packages/chipKIT/tools/pic32-tools/1.43-pic32gcc/bin/bin/../../lib/gcc/pic32mx/4.8.3/../../../../pic32mx/lib/size/libsupc++.a(eh_unex_handler.o)
 .rodata._ZN10__cxxabiv1L31__gxx_dependent_exception_classE.__gxx_dependent_exception_class
                0x00000000        0x8 /home/ishyro/.arduino15/packages/chipKIT/tools/pic32-tools/1.43-pic32gcc/bin/bin/../../lib/gcc/pic32mx/4.8.3/../../../../pic32mx/lib/size/libsupc++.a(eh_unex_handler.o)
 .text          0x00000000        0x0 /home/ishyro/.arduino15/packages/chipKIT/tools/pic32-tools/1.43-pic32gcc/bin/bin/../../lib/gcc/pic32mx/4.8.3/../../../../pic32mx/lib/size/libsupc++.a(eh_term_handler.o)
 .data          0x00000000        0x0 /home/ishyro/.arduino15/packages/chipKIT/tools/pic32-tools/1.43-pic32gcc/bin/bin/../../lib/gcc/pic32mx/4.8.3/../../../../pic32mx/lib/size/libsupc++.a(eh_term_handler.o)
 .bss           0x00000000        0x0 /home/ishyro/.arduino15/packages/chipKIT/tools/pic32-tools/1.43-pic32gcc/bin/bin/../../lib/gcc/pic32mx/4.8.3/../../../../pic32mx/lib/size/libsupc++.a(eh_term_handler.o)
 .reginfo       0x00000000       0x18 /home/ishyro/.arduino15/packages/chipKIT/tools/pic32-tools/1.43-pic32gcc/bin/bin/../../lib/gcc/pic32mx/4.8.3/../../../../pic32mx/lib/size/libsupc++.a(eh_term_handler.o)
 .data._ZN10__cxxabiv119__terminate_handlerE.__terminate_handler
                0x00000000        0x4 /home/ishyro/.arduino15/packages/chipKIT/tools/pic32-tools/1.43-pic32gcc/bin/bin/../../lib/gcc/pic32mx/4.8.3/../../../../pic32mx/lib/size/libsupc++.a(eh_term_handler.o)
 .rodata._ZN10__cxxabiv1L29__gxx_primary_exception_classE.__gxx_primary_exception_class
                0x00000000        0x8 /home/ishyro/.arduino15/packages/chipKIT/tools/pic32-tools/1.43-pic32gcc/bin/bin/../../lib/gcc/pic32mx/4.8.3/../../../../pic32mx/lib/size/libsupc++.a(eh_term_handler.o)
 .rodata._ZN10__cxxabiv1L31__gxx_dependent_exception_classE.__gxx_dependent_exception_class
                0x00000000        0x8 /home/ishyro/.arduino15/packages/chipKIT/tools/pic32-tools/1.43-pic32gcc/bin/bin/../../lib/gcc/pic32mx/4.8.3/../../../../pic32mx/lib/size/libsupc++.a(eh_term_handler.o)
 .text          0x00000000        0x0 /home/ishyro/.arduino15/packages/chipKIT/tools/pic32-tools/1.43-pic32gcc/bin/bin/../../lib/gcc/pic32mx/4.8.3/../../../../pic32mx/lib/size/libm.a(lib_a-s_cos.o)
 .data          0x00000000        0x0 /home/ishyro/.arduino15/packages/chipKIT/tools/pic32-tools/1.43-pic32gcc/bin/bin/../../lib/gcc/pic32mx/4.8.3/../../../../pic32mx/lib/size/libm.a(lib_a-s_cos.o)
 .bss           0x00000000        0x0 /home/ishyro/.arduino15/packages/chipKIT/tools/pic32-tools/1.43-pic32gcc/bin/bin/../../lib/gcc/pic32mx/4.8.3/../../../../pic32mx/lib/size/libm.a(lib_a-s_cos.o)
 .reginfo       0x00000000       0x18 /home/ishyro/.arduino15/packages/chipKIT/tools/pic32-tools/1.43-pic32gcc/bin/bin/../../lib/gcc/pic32mx/4.8.3/../../../../pic32mx/lib/size/libm.a(lib_a-s_cos.o)
 .text          0x00000000        0x0 /home/ishyro/.arduino15/packages/chipKIT/tools/pic32-tools/1.43-pic32gcc/bin/bin/../../lib/gcc/pic32mx/4.8.3/../../../../pic32mx/lib/size/libm.a(lib_a-s_fpclassify.o)
 .data          0x00000000        0x0 /home/ishyro/.arduino15/packages/chipKIT/tools/pic32-tools/1.43-pic32gcc/bin/bin/../../lib/gcc/pic32mx/4.8.3/../../../../pic32mx/lib/size/libm.a(lib_a-s_fpclassify.o)
 .bss           0x00000000        0x0 /home/ishyro/.arduino15/packages/chipKIT/tools/pic32-tools/1.43-pic32gcc/bin/bin/../../lib/gcc/pic32mx/4.8.3/../../../../pic32mx/lib/size/libm.a(lib_a-s_fpclassify.o)
 .reginfo       0x00000000       0x18 /home/ishyro/.arduino15/packages/chipKIT/tools/pic32-tools/1.43-pic32gcc/bin/bin/../../lib/gcc/pic32mx/4.8.3/../../../../pic32mx/lib/size/libm.a(lib_a-s_fpclassify.o)
 .text          0x00000000        0x0 /home/ishyro/.arduino15/packages/chipKIT/tools/pic32-tools/1.43-pic32gcc/bin/bin/../../lib/gcc/pic32mx/4.8.3/../../../../pic32mx/lib/size/libm.a(lib_a-s_modf.o)
 .data          0x00000000        0x0 /home/ishyro/.arduino15/packages/chipKIT/tools/pic32-tools/1.43-pic32gcc/bin/bin/../../lib/gcc/pic32mx/4.8.3/../../../../pic32mx/lib/size/libm.a(lib_a-s_modf.o)
 .bss           0x00000000        0x0 /home/ishyro/.arduino15/packages/chipKIT/tools/pic32-tools/1.43-pic32gcc/bin/bin/../../lib/gcc/pic32mx/4.8.3/../../../../pic32mx/lib/size/libm.a(lib_a-s_modf.o)
 .reginfo       0x00000000       0x18 /home/ishyro/.arduino15/packages/chipKIT/tools/pic32-tools/1.43-pic32gcc/bin/bin/../../lib/gcc/pic32mx/4.8.3/../../../../pic32mx/lib/size/libm.a(lib_a-s_modf.o)
 .rodata.one.one
                0x00000000        0x8 /home/ishyro/.arduino15/packages/chipKIT/tools/pic32-tools/1.43-pic32gcc/bin/bin/../../lib/gcc/pic32mx/4.8.3/../../../../pic32mx/lib/size/libm.a(lib_a-s_modf.o)
 .text.modf     0x00000000       0xe4 /home/ishyro/.arduino15/packages/chipKIT/tools/pic32-tools/1.43-pic32gcc/bin/bin/../../lib/gcc/pic32mx/4.8.3/../../../../pic32mx/lib/size/libm.a(lib_a-s_modf.o)
 .text          0x00000000        0x0 /home/ishyro/.arduino15/packages/chipKIT/tools/pic32-tools/1.43-pic32gcc/bin/bin/../../lib/gcc/pic32mx/4.8.3/../../../../pic32mx/lib/size/libm.a(lib_a-s_sin.o)
 .data          0x00000000        0x0 /home/ishyro/.arduino15/packages/chipKIT/tools/pic32-tools/1.43-pic32gcc/bin/bin/../../lib/gcc/pic32mx/4.8.3/../../../../pic32mx/lib/size/libm.a(lib_a-s_sin.o)
 .bss           0x00000000        0x0 /home/ishyro/.arduino15/packages/chipKIT/tools/pic32-tools/1.43-pic32gcc/bin/bin/../../lib/gcc/pic32mx/4.8.3/../../../../pic32mx/lib/size/libm.a(lib_a-s_sin.o)
 .reginfo       0x00000000       0x18 /home/ishyro/.arduino15/packages/chipKIT/tools/pic32-tools/1.43-pic32gcc/bin/bin/../../lib/gcc/pic32mx/4.8.3/../../../../pic32mx/lib/size/libm.a(lib_a-s_sin.o)
 .text          0x00000000        0x0 /home/ishyro/.arduino15/packages/chipKIT/tools/pic32-tools/1.43-pic32gcc/bin/bin/../../lib/gcc/pic32mx/4.8.3/../../../../pic32mx/lib/size/libm.a(lib_a-w_atan2.o)
 .data          0x00000000        0x0 /home/ishyro/.arduino15/packages/chipKIT/tools/pic32-tools/1.43-pic32gcc/bin/bin/../../lib/gcc/pic32mx/4.8.3/../../../../pic32mx/lib/size/libm.a(lib_a-w_atan2.o)
 .bss           0x00000000        0x0 /home/ishyro/.arduino15/packages/chipKIT/tools/pic32-tools/1.43-pic32gcc/bin/bin/../../lib/gcc/pic32mx/4.8.3/../../../../pic32mx/lib/size/libm.a(lib_a-w_atan2.o)
 .reginfo       0x00000000       0x18 /home/ishyro/.arduino15/packages/chipKIT/tools/pic32-tools/1.43-pic32gcc/bin/bin/../../lib/gcc/pic32mx/4.8.3/../../../../pic32mx/lib/size/libm.a(lib_a-w_atan2.o)
 .text          0x00000000        0x0 /home/ishyro/.arduino15/packages/chipKIT/tools/pic32-tools/1.43-pic32gcc/bin/bin/../../lib/gcc/pic32mx/4.8.3/../../../../pic32mx/lib/size/libm.a(lib_a-w_fmod.o)
 .data          0x00000000        0x0 /home/ishyro/.arduino15/packages/chipKIT/tools/pic32-tools/1.43-pic32gcc/bin/bin/../../lib/gcc/pic32mx/4.8.3/../../../../pic32mx/lib/size/libm.a(lib_a-w_fmod.o)
 .bss           0x00000000        0x0 /home/ishyro/.arduino15/packages/chipKIT/tools/pic32-tools/1.43-pic32gcc/bin/bin/../../lib/gcc/pic32mx/4.8.3/../../../../pic32mx/lib/size/libm.a(lib_a-w_fmod.o)
 .reginfo       0x00000000       0x18 /home/ishyro/.arduino15/packages/chipKIT/tools/pic32-tools/1.43-pic32gcc/bin/bin/../../lib/gcc/pic32mx/4.8.3/../../../../pic32mx/lib/size/libm.a(lib_a-w_fmod.o)
 .text          0x00000000        0x0 /home/ishyro/.arduino15/packages/chipKIT/tools/pic32-tools/1.43-pic32gcc/bin/bin/../../lib/gcc/pic32mx/4.8.3/../../../../pic32mx/lib/size/libm.a(lib_a-w_sqrt.o)
 .data          0x00000000        0x0 /home/ishyro/.arduino15/packages/chipKIT/tools/pic32-tools/1.43-pic32gcc/bin/bin/../../lib/gcc/pic32mx/4.8.3/../../../../pic32mx/lib/size/libm.a(lib_a-w_sqrt.o)
 .bss           0x00000000        0x0 /home/ishyro/.arduino15/packages/chipKIT/tools/pic32-tools/1.43-pic32gcc/bin/bin/../../lib/gcc/pic32mx/4.8.3/../../../../pic32mx/lib/size/libm.a(lib_a-w_sqrt.o)
 .reginfo       0x00000000       0x18 /home/ishyro/.arduino15/packages/chipKIT/tools/pic32-tools/1.43-pic32gcc/bin/bin/../../lib/gcc/pic32mx/4.8.3/../../../../pic32mx/lib/size/libm.a(lib_a-w_sqrt.o)
 .text          0x00000000        0x0 /home/ishyro/.arduino15/packages/chipKIT/tools/pic32-tools/1.43-pic32gcc/bin/bin/../../lib/gcc/pic32mx/4.8.3/../../../../pic32mx/lib/size/libm.a(lib_a-e_atan2.o)
 .data          0x00000000        0x0 /home/ishyro/.arduino15/packages/chipKIT/tools/pic32-tools/1.43-pic32gcc/bin/bin/../../lib/gcc/pic32mx/4.8.3/../../../../pic32mx/lib/size/libm.a(lib_a-e_atan2.o)
 .bss           0x00000000        0x0 /home/ishyro/.arduino15/packages/chipKIT/tools/pic32-tools/1.43-pic32gcc/bin/bin/../../lib/gcc/pic32mx/4.8.3/../../../../pic32mx/lib/size/libm.a(lib_a-e_atan2.o)
 .reginfo       0x00000000       0x18 /home/ishyro/.arduino15/packages/chipKIT/tools/pic32-tools/1.43-pic32gcc/bin/bin/../../lib/gcc/pic32mx/4.8.3/../../../../pic32mx/lib/size/libm.a(lib_a-e_atan2.o)
 .rodata.tiny.tiny
                0x00000000        0x8 /home/ishyro/.arduino15/packages/chipKIT/tools/pic32-tools/1.43-pic32gcc/bin/bin/../../lib/gcc/pic32mx/4.8.3/../../../../pic32mx/lib/size/libm.a(lib_a-e_atan2.o)
 .rodata.zero.zero
                0x00000000        0x8 /home/ishyro/.arduino15/packages/chipKIT/tools/pic32-tools/1.43-pic32gcc/bin/bin/../../lib/gcc/pic32mx/4.8.3/../../../../pic32mx/lib/size/libm.a(lib_a-e_atan2.o)
 .rodata.pi_o_4.pi_o_4
                0x00000000        0x8 /home/ishyro/.arduino15/packages/chipKIT/tools/pic32-tools/1.43-pic32gcc/bin/bin/../../lib/gcc/pic32mx/4.8.3/../../../../pic32mx/lib/size/libm.a(lib_a-e_atan2.o)
 .rodata.pi_o_2.pi_o_2
                0x00000000        0x8 /home/ishyro/.arduino15/packages/chipKIT/tools/pic32-tools/1.43-pic32gcc/bin/bin/../../lib/gcc/pic32mx/4.8.3/../../../../pic32mx/lib/size/libm.a(lib_a-e_atan2.o)
 .rodata.pi.pi  0x00000000        0x8 /home/ishyro/.arduino15/packages/chipKIT/tools/pic32-tools/1.43-pic32gcc/bin/bin/../../lib/gcc/pic32mx/4.8.3/../../../../pic32mx/lib/size/libm.a(lib_a-e_atan2.o)
 .rodata.pi_lo.pi_lo
                0x00000000        0x8 /home/ishyro/.arduino15/packages/chipKIT/tools/pic32-tools/1.43-pic32gcc/bin/bin/../../lib/gcc/pic32mx/4.8.3/../../../../pic32mx/lib/size/libm.a(lib_a-e_atan2.o)
 .text          0x00000000        0x0 /home/ishyro/.arduino15/packages/chipKIT/tools/pic32-tools/1.43-pic32gcc/bin/bin/../../lib/gcc/pic32mx/4.8.3/../../../../pic32mx/lib/size/libm.a(lib_a-e_fmod.o)
 .data          0x00000000        0x0 /home/ishyro/.arduino15/packages/chipKIT/tools/pic32-tools/1.43-pic32gcc/bin/bin/../../lib/gcc/pic32mx/4.8.3/../../../../pic32mx/lib/size/libm.a(lib_a-e_fmod.o)
 .bss           0x00000000        0x0 /home/ishyro/.arduino15/packages/chipKIT/tools/pic32-tools/1.43-pic32gcc/bin/bin/../../lib/gcc/pic32mx/4.8.3/../../../../pic32mx/lib/size/libm.a(lib_a-e_fmod.o)
 .reginfo       0x00000000       0x18 /home/ishyro/.arduino15/packages/chipKIT/tools/pic32-tools/1.43-pic32gcc/bin/bin/../../lib/gcc/pic32mx/4.8.3/../../../../pic32mx/lib/size/libm.a(lib_a-e_fmod.o)
 .rodata.one.one
                0x00000000        0x8 /home/ishyro/.arduino15/packages/chipKIT/tools/pic32-tools/1.43-pic32gcc/bin/bin/../../lib/gcc/pic32mx/4.8.3/../../../../pic32mx/lib/size/libm.a(lib_a-e_fmod.o)
 .text          0x00000000        0x0 /home/ishyro/.arduino15/packages/chipKIT/tools/pic32-tools/1.43-pic32gcc/bin/bin/../../lib/gcc/pic32mx/4.8.3/../../../../pic32mx/lib/size/libm.a(lib_a-e_rem_pio2.o)
 .data          0x00000000        0x0 /home/ishyro/.arduino15/packages/chipKIT/tools/pic32-tools/1.43-pic32gcc/bin/bin/../../lib/gcc/pic32mx/4.8.3/../../../../pic32mx/lib/size/libm.a(lib_a-e_rem_pio2.o)
 .bss           0x00000000        0x0 /home/ishyro/.arduino15/packages/chipKIT/tools/pic32-tools/1.43-pic32gcc/bin/bin/../../lib/gcc/pic32mx/4.8.3/../../../../pic32mx/lib/size/libm.a(lib_a-e_rem_pio2.o)
 .reginfo       0x00000000       0x18 /home/ishyro/.arduino15/packages/chipKIT/tools/pic32-tools/1.43-pic32gcc/bin/bin/../../lib/gcc/pic32mx/4.8.3/../../../../pic32mx/lib/size/libm.a(lib_a-e_rem_pio2.o)
 .rodata.zero.zero
                0x00000000        0x8 /home/ishyro/.arduino15/packages/chipKIT/tools/pic32-tools/1.43-pic32gcc/bin/bin/../../lib/gcc/pic32mx/4.8.3/../../../../pic32mx/lib/size/libm.a(lib_a-e_rem_pio2.o)
 .rodata.half.half
                0x00000000        0x8 /home/ishyro/.arduino15/packages/chipKIT/tools/pic32-tools/1.43-pic32gcc/bin/bin/../../lib/gcc/pic32mx/4.8.3/../../../../pic32mx/lib/size/libm.a(lib_a-e_rem_pio2.o)
 .rodata.two24.two24
                0x00000000        0x8 /home/ishyro/.arduino15/packages/chipKIT/tools/pic32-tools/1.43-pic32gcc/bin/bin/../../lib/gcc/pic32mx/4.8.3/../../../../pic32mx/lib/size/libm.a(lib_a-e_rem_pio2.o)
 .rodata.invpio2.invpio2
                0x00000000        0x8 /home/ishyro/.arduino15/packages/chipKIT/tools/pic32-tools/1.43-pic32gcc/bin/bin/../../lib/gcc/pic32mx/4.8.3/../../../../pic32mx/lib/size/libm.a(lib_a-e_rem_pio2.o)
 .rodata.pio2_1.pio2_1
                0x00000000        0x8 /home/ishyro/.arduino15/packages/chipKIT/tools/pic32-tools/1.43-pic32gcc/bin/bin/../../lib/gcc/pic32mx/4.8.3/../../../../pic32mx/lib/size/libm.a(lib_a-e_rem_pio2.o)
 .rodata.pio2_1t.pio2_1t
                0x00000000        0x8 /home/ishyro/.arduino15/packages/chipKIT/tools/pic32-tools/1.43-pic32gcc/bin/bin/../../lib/gcc/pic32mx/4.8.3/../../../../pic32mx/lib/size/libm.a(lib_a-e_rem_pio2.o)
 .rodata.pio2_2.pio2_2
                0x00000000        0x8 /home/ishyro/.arduino15/packages/chipKIT/tools/pic32-tools/1.43-pic32gcc/bin/bin/../../lib/gcc/pic32mx/4.8.3/../../../../pic32mx/lib/size/libm.a(lib_a-e_rem_pio2.o)
 .rodata.pio2_2t.pio2_2t
                0x00000000        0x8 /home/ishyro/.arduino15/packages/chipKIT/tools/pic32-tools/1.43-pic32gcc/bin/bin/../../lib/gcc/pic32mx/4.8.3/../../../../pic32mx/lib/size/libm.a(lib_a-e_rem_pio2.o)
 .rodata.pio2_3.pio2_3
                0x00000000        0x8 /home/ishyro/.arduino15/packages/chipKIT/tools/pic32-tools/1.43-pic32gcc/bin/bin/../../lib/gcc/pic32mx/4.8.3/../../../../pic32mx/lib/size/libm.a(lib_a-e_rem_pio2.o)
 .rodata.pio2_3t.pio2_3t
                0x00000000        0x8 /home/ishyro/.arduino15/packages/chipKIT/tools/pic32-tools/1.43-pic32gcc/bin/bin/../../lib/gcc/pic32mx/4.8.3/../../../../pic32mx/lib/size/libm.a(lib_a-e_rem_pio2.o)
 .text          0x00000000        0x0 /home/ishyro/.arduino15/packages/chipKIT/tools/pic32-tools/1.43-pic32gcc/bin/bin/../../lib/gcc/pic32mx/4.8.3/../../../../pic32mx/lib/size/libm.a(lib_a-e_sqrt.o)
 .data          0x00000000        0x0 /home/ishyro/.arduino15/packages/chipKIT/tools/pic32-tools/1.43-pic32gcc/bin/bin/../../lib/gcc/pic32mx/4.8.3/../../../../pic32mx/lib/size/libm.a(lib_a-e_sqrt.o)
 .bss           0x00000000        0x0 /home/ishyro/.arduino15/packages/chipKIT/tools/pic32-tools/1.43-pic32gcc/bin/bin/../../lib/gcc/pic32mx/4.8.3/../../../../pic32mx/lib/size/libm.a(lib_a-e_sqrt.o)
 .reginfo       0x00000000       0x18 /home/ishyro/.arduino15/packages/chipKIT/tools/pic32-tools/1.43-pic32gcc/bin/bin/../../lib/gcc/pic32mx/4.8.3/../../../../pic32mx/lib/size/libm.a(lib_a-e_sqrt.o)
 .rodata.one.one
                0x00000000        0x8 /home/ishyro/.arduino15/packages/chipKIT/tools/pic32-tools/1.43-pic32gcc/bin/bin/../../lib/gcc/pic32mx/4.8.3/../../../../pic32mx/lib/size/libm.a(lib_a-e_sqrt.o)
 .rodata.tiny.tiny
                0x00000000        0x8 /home/ishyro/.arduino15/packages/chipKIT/tools/pic32-tools/1.43-pic32gcc/bin/bin/../../lib/gcc/pic32mx/4.8.3/../../../../pic32mx/lib/size/libm.a(lib_a-e_sqrt.o)
 .text          0x00000000        0x0 /home/ishyro/.arduino15/packages/chipKIT/tools/pic32-tools/1.43-pic32gcc/bin/bin/../../lib/gcc/pic32mx/4.8.3/../../../../pic32mx/lib/size/libm.a(lib_a-k_cos.o)
 .data          0x00000000        0x0 /home/ishyro/.arduino15/packages/chipKIT/tools/pic32-tools/1.43-pic32gcc/bin/bin/../../lib/gcc/pic32mx/4.8.3/../../../../pic32mx/lib/size/libm.a(lib_a-k_cos.o)
 .bss           0x00000000        0x0 /home/ishyro/.arduino15/packages/chipKIT/tools/pic32-tools/1.43-pic32gcc/bin/bin/../../lib/gcc/pic32mx/4.8.3/../../../../pic32mx/lib/size/libm.a(lib_a-k_cos.o)
 .reginfo       0x00000000       0x18 /home/ishyro/.arduino15/packages/chipKIT/tools/pic32-tools/1.43-pic32gcc/bin/bin/../../lib/gcc/pic32mx/4.8.3/../../../../pic32mx/lib/size/libm.a(lib_a-k_cos.o)
 .rodata.one.one
                0x00000000        0x8 /home/ishyro/.arduino15/packages/chipKIT/tools/pic32-tools/1.43-pic32gcc/bin/bin/../../lib/gcc/pic32mx/4.8.3/../../../../pic32mx/lib/size/libm.a(lib_a-k_cos.o)
 .rodata.C1.C1  0x00000000        0x8 /home/ishyro/.arduino15/packages/chipKIT/tools/pic32-tools/1.43-pic32gcc/bin/bin/../../lib/gcc/pic32mx/4.8.3/../../../../pic32mx/lib/size/libm.a(lib_a-k_cos.o)
 .rodata.C2.C2  0x00000000        0x8 /home/ishyro/.arduino15/packages/chipKIT/tools/pic32-tools/1.43-pic32gcc/bin/bin/../../lib/gcc/pic32mx/4.8.3/../../../../pic32mx/lib/size/libm.a(lib_a-k_cos.o)
 .rodata.C3.C3  0x00000000        0x8 /home/ishyro/.arduino15/packages/chipKIT/tools/pic32-tools/1.43-pic32gcc/bin/bin/../../lib/gcc/pic32mx/4.8.3/../../../../pic32mx/lib/size/libm.a(lib_a-k_cos.o)
 .rodata.C4.C4  0x00000000        0x8 /home/ishyro/.arduino15/packages/chipKIT/tools/pic32-tools/1.43-pic32gcc/bin/bin/../../lib/gcc/pic32mx/4.8.3/../../../../pic32mx/lib/size/libm.a(lib_a-k_cos.o)
 .rodata.C5.C5  0x00000000        0x8 /home/ishyro/.arduino15/packages/chipKIT/tools/pic32-tools/1.43-pic32gcc/bin/bin/../../lib/gcc/pic32mx/4.8.3/../../../../pic32mx/lib/size/libm.a(lib_a-k_cos.o)
 .rodata.C6.C6  0x00000000        0x8 /home/ishyro/.arduino15/packages/chipKIT/tools/pic32-tools/1.43-pic32gcc/bin/bin/../../lib/gcc/pic32mx/4.8.3/../../../../pic32mx/lib/size/libm.a(lib_a-k_cos.o)
 .text          0x00000000        0x0 /home/ishyro/.arduino15/packages/chipKIT/tools/pic32-tools/1.43-pic32gcc/bin/bin/../../lib/gcc/pic32mx/4.8.3/../../../../pic32mx/lib/size/libm.a(lib_a-k_rem_pio2.o)
 .data          0x00000000        0x0 /home/ishyro/.arduino15/packages/chipKIT/tools/pic32-tools/1.43-pic32gcc/bin/bin/../../lib/gcc/pic32mx/4.8.3/../../../../pic32mx/lib/size/libm.a(lib_a-k_rem_pio2.o)
 .bss           0x00000000        0x0 /home/ishyro/.arduino15/packages/chipKIT/tools/pic32-tools/1.43-pic32gcc/bin/bin/../../lib/gcc/pic32mx/4.8.3/../../../../pic32mx/lib/size/libm.a(lib_a-k_rem_pio2.o)
 .reginfo       0x00000000       0x18 /home/ishyro/.arduino15/packages/chipKIT/tools/pic32-tools/1.43-pic32gcc/bin/bin/../../lib/gcc/pic32mx/4.8.3/../../../../pic32mx/lib/size/libm.a(lib_a-k_rem_pio2.o)
 .rodata.zero.zero
                0x00000000        0x8 /home/ishyro/.arduino15/packages/chipKIT/tools/pic32-tools/1.43-pic32gcc/bin/bin/../../lib/gcc/pic32mx/4.8.3/../../../../pic32mx/lib/size/libm.a(lib_a-k_rem_pio2.o)
 .rodata.one.one
                0x00000000        0x8 /home/ishyro/.arduino15/packages/chipKIT/tools/pic32-tools/1.43-pic32gcc/bin/bin/../../lib/gcc/pic32mx/4.8.3/../../../../pic32mx/lib/size/libm.a(lib_a-k_rem_pio2.o)
 .rodata.two24.two24
                0x00000000        0x8 /home/ishyro/.arduino15/packages/chipKIT/tools/pic32-tools/1.43-pic32gcc/bin/bin/../../lib/gcc/pic32mx/4.8.3/../../../../pic32mx/lib/size/libm.a(lib_a-k_rem_pio2.o)
 .rodata.twon24.twon24
                0x00000000        0x8 /home/ishyro/.arduino15/packages/chipKIT/tools/pic32-tools/1.43-pic32gcc/bin/bin/../../lib/gcc/pic32mx/4.8.3/../../../../pic32mx/lib/size/libm.a(lib_a-k_rem_pio2.o)
 .text          0x00000000        0x0 /home/ishyro/.arduino15/packages/chipKIT/tools/pic32-tools/1.43-pic32gcc/bin/bin/../../lib/gcc/pic32mx/4.8.3/../../../../pic32mx/lib/size/libm.a(lib_a-k_sin.o)
 .data          0x00000000        0x0 /home/ishyro/.arduino15/packages/chipKIT/tools/pic32-tools/1.43-pic32gcc/bin/bin/../../lib/gcc/pic32mx/4.8.3/../../../../pic32mx/lib/size/libm.a(lib_a-k_sin.o)
 .bss           0x00000000        0x0 /home/ishyro/.arduino15/packages/chipKIT/tools/pic32-tools/1.43-pic32gcc/bin/bin/../../lib/gcc/pic32mx/4.8.3/../../../../pic32mx/lib/size/libm.a(lib_a-k_sin.o)
 .reginfo       0x00000000       0x18 /home/ishyro/.arduino15/packages/chipKIT/tools/pic32-tools/1.43-pic32gcc/bin/bin/../../lib/gcc/pic32mx/4.8.3/../../../../pic32mx/lib/size/libm.a(lib_a-k_sin.o)
 .rodata.half.half
                0x00000000        0x8 /home/ishyro/.arduino15/packages/chipKIT/tools/pic32-tools/1.43-pic32gcc/bin/bin/../../lib/gcc/pic32mx/4.8.3/../../../../pic32mx/lib/size/libm.a(lib_a-k_sin.o)
 .rodata.S1.S1  0x00000000        0x8 /home/ishyro/.arduino15/packages/chipKIT/tools/pic32-tools/1.43-pic32gcc/bin/bin/../../lib/gcc/pic32mx/4.8.3/../../../../pic32mx/lib/size/libm.a(lib_a-k_sin.o)
 .rodata.S2.S2  0x00000000        0x8 /home/ishyro/.arduino15/packages/chipKIT/tools/pic32-tools/1.43-pic32gcc/bin/bin/../../lib/gcc/pic32mx/4.8.3/../../../../pic32mx/lib/size/libm.a(lib_a-k_sin.o)
 .rodata.S3.S3  0x00000000        0x8 /home/ishyro/.arduino15/packages/chipKIT/tools/pic32-tools/1.43-pic32gcc/bin/bin/../../lib/gcc/pic32mx/4.8.3/../../../../pic32mx/lib/size/libm.a(lib_a-k_sin.o)
 .rodata.S4.S4  0x00000000        0x8 /home/ishyro/.arduino15/packages/chipKIT/tools/pic32-tools/1.43-pic32gcc/bin/bin/../../lib/gcc/pic32mx/4.8.3/../../../../pic32mx/lib/size/libm.a(lib_a-k_sin.o)
 .rodata.S5.S5  0x00000000        0x8 /home/ishyro/.arduino15/packages/chipKIT/tools/pic32-tools/1.43-pic32gcc/bin/bin/../../lib/gcc/pic32mx/4.8.3/../../../../pic32mx/lib/size/libm.a(lib_a-k_sin.o)
 .rodata.S6.S6  0x00000000        0x8 /home/ishyro/.arduino15/packages/chipKIT/tools/pic32-tools/1.43-pic32gcc/bin/bin/../../lib/gcc/pic32mx/4.8.3/../../../../pic32mx/lib/size/libm.a(lib_a-k_sin.o)
 .text          0x00000000        0x0 /home/ishyro/.arduino15/packages/chipKIT/tools/pic32-tools/1.43-pic32gcc/bin/bin/../../lib/gcc/pic32mx/4.8.3/../../../../pic32mx/lib/size/libm.a(lib_a-s_atan.o)
 .data          0x00000000        0x0 /home/ishyro/.arduino15/packages/chipKIT/tools/pic32-tools/1.43-pic32gcc/bin/bin/../../lib/gcc/pic32mx/4.8.3/../../../../pic32mx/lib/size/libm.a(lib_a-s_atan.o)
 .bss           0x00000000        0x0 /home/ishyro/.arduino15/packages/chipKIT/tools/pic32-tools/1.43-pic32gcc/bin/bin/../../lib/gcc/pic32mx/4.8.3/../../../../pic32mx/lib/size/libm.a(lib_a-s_atan.o)
 .reginfo       0x00000000       0x18 /home/ishyro/.arduino15/packages/chipKIT/tools/pic32-tools/1.43-pic32gcc/bin/bin/../../lib/gcc/pic32mx/4.8.3/../../../../pic32mx/lib/size/libm.a(lib_a-s_atan.o)
 .rodata.aT.aT  0x00000000       0x58 /home/ishyro/.arduino15/packages/chipKIT/tools/pic32-tools/1.43-pic32gcc/bin/bin/../../lib/gcc/pic32mx/4.8.3/../../../../pic32mx/lib/size/libm.a(lib_a-s_atan.o)
 .rodata.one.one
                0x00000000        0x8 /home/ishyro/.arduino15/packages/chipKIT/tools/pic32-tools/1.43-pic32gcc/bin/bin/../../lib/gcc/pic32mx/4.8.3/../../../../pic32mx/lib/size/libm.a(lib_a-s_atan.o)
 .rodata.huge.huge
                0x00000000        0x8 /home/ishyro/.arduino15/packages/chipKIT/tools/pic32-tools/1.43-pic32gcc/bin/bin/../../lib/gcc/pic32mx/4.8.3/../../../../pic32mx/lib/size/libm.a(lib_a-s_atan.o)
 .text          0x00000000        0x0 /home/ishyro/.arduino15/packages/chipKIT/tools/pic32-tools/1.43-pic32gcc/bin/bin/../../lib/gcc/pic32mx/4.8.3/../../../../pic32mx/lib/size/libm.a(lib_a-s_fabs.o)
 .data          0x00000000        0x0 /home/ishyro/.arduino15/packages/chipKIT/tools/pic32-tools/1.43-pic32gcc/bin/bin/../../lib/gcc/pic32mx/4.8.3/../../../../pic32mx/lib/size/libm.a(lib_a-s_fabs.o)
 .bss           0x00000000        0x0 /home/ishyro/.arduino15/packages/chipKIT/tools/pic32-tools/1.43-pic32gcc/bin/bin/../../lib/gcc/pic32mx/4.8.3/../../../../pic32mx/lib/size/libm.a(lib_a-s_fabs.o)
 .reginfo       0x00000000       0x18 /home/ishyro/.arduino15/packages/chipKIT/tools/pic32-tools/1.43-pic32gcc/bin/bin/../../lib/gcc/pic32mx/4.8.3/../../../../pic32mx/lib/size/libm.a(lib_a-s_fabs.o)
 .text          0x00000000        0x0 /home/ishyro/.arduino15/packages/chipKIT/tools/pic32-tools/1.43-pic32gcc/bin/bin/../../lib/gcc/pic32mx/4.8.3/../../../../pic32mx/lib/size/libm.a(lib_a-s_floor.o)
 .data          0x00000000        0x0 /home/ishyro/.arduino15/packages/chipKIT/tools/pic32-tools/1.43-pic32gcc/bin/bin/../../lib/gcc/pic32mx/4.8.3/../../../../pic32mx/lib/size/libm.a(lib_a-s_floor.o)
 .bss           0x00000000        0x0 /home/ishyro/.arduino15/packages/chipKIT/tools/pic32-tools/1.43-pic32gcc/bin/bin/../../lib/gcc/pic32mx/4.8.3/../../../../pic32mx/lib/size/libm.a(lib_a-s_floor.o)
 .reginfo       0x00000000       0x18 /home/ishyro/.arduino15/packages/chipKIT/tools/pic32-tools/1.43-pic32gcc/bin/bin/../../lib/gcc/pic32mx/4.8.3/../../../../pic32mx/lib/size/libm.a(lib_a-s_floor.o)
 .rodata.huge.huge
                0x00000000        0x8 /home/ishyro/.arduino15/packages/chipKIT/tools/pic32-tools/1.43-pic32gcc/bin/bin/../../lib/gcc/pic32mx/4.8.3/../../../../pic32mx/lib/size/libm.a(lib_a-s_floor.o)
 .text          0x00000000        0x0 /home/ishyro/.arduino15/packages/chipKIT/tools/pic32-tools/1.43-pic32gcc/bin/bin/../../lib/gcc/pic32mx/4.8.3/../../../../pic32mx/lib/size/libm.a(lib_a-s_lib_ver.o)
 .data          0x00000000        0x0 /home/ishyro/.arduino15/packages/chipKIT/tools/pic32-tools/1.43-pic32gcc/bin/bin/../../lib/gcc/pic32mx/4.8.3/../../../../pic32mx/lib/size/libm.a(lib_a-s_lib_ver.o)
 .bss           0x00000000        0x0 /home/ishyro/.arduino15/packages/chipKIT/tools/pic32-tools/1.43-pic32gcc/bin/bin/../../lib/gcc/pic32mx/4.8.3/../../../../pic32mx/lib/size/libm.a(lib_a-s_lib_ver.o)
 .reginfo       0x00000000       0x18 /home/ishyro/.arduino15/packages/chipKIT/tools/pic32-tools/1.43-pic32gcc/bin/bin/../../lib/gcc/pic32mx/4.8.3/../../../../pic32mx/lib/size/libm.a(lib_a-s_lib_ver.o)
 .text          0x00000000        0x0 /home/ishyro/.arduino15/packages/chipKIT/tools/pic32-tools/1.43-pic32gcc/bin/bin/../../lib/gcc/pic32mx/4.8.3/../../../../pic32mx/lib/size/libm.a(lib_a-s_matherr.o)
 .data          0x00000000        0x0 /home/ishyro/.arduino15/packages/chipKIT/tools/pic32-tools/1.43-pic32gcc/bin/bin/../../lib/gcc/pic32mx/4.8.3/../../../../pic32mx/lib/size/libm.a(lib_a-s_matherr.o)
 .bss           0x00000000        0x0 /home/ishyro/.arduino15/packages/chipKIT/tools/pic32-tools/1.43-pic32gcc/bin/bin/../../lib/gcc/pic32mx/4.8.3/../../../../pic32mx/lib/size/libm.a(lib_a-s_matherr.o)
 .reginfo       0x00000000       0x18 /home/ishyro/.arduino15/packages/chipKIT/tools/pic32-tools/1.43-pic32gcc/bin/bin/../../lib/gcc/pic32mx/4.8.3/../../../../pic32mx/lib/size/libm.a(lib_a-s_matherr.o)
 .text          0x00000000        0x0 /home/ishyro/.arduino15/packages/chipKIT/tools/pic32-tools/1.43-pic32gcc/bin/bin/../../lib/gcc/pic32mx/4.8.3/../../../../pic32mx/lib/size/libm.a(lib_a-s_scalbn.o)
 .data          0x00000000        0x0 /home/ishyro/.arduino15/packages/chipKIT/tools/pic32-tools/1.43-pic32gcc/bin/bin/../../lib/gcc/pic32mx/4.8.3/../../../../pic32mx/lib/size/libm.a(lib_a-s_scalbn.o)
 .bss           0x00000000        0x0 /home/ishyro/.arduino15/packages/chipKIT/tools/pic32-tools/1.43-pic32gcc/bin/bin/../../lib/gcc/pic32mx/4.8.3/../../../../pic32mx/lib/size/libm.a(lib_a-s_scalbn.o)
 .reginfo       0x00000000       0x18 /home/ishyro/.arduino15/packages/chipKIT/tools/pic32-tools/1.43-pic32gcc/bin/bin/../../lib/gcc/pic32mx/4.8.3/../../../../pic32mx/lib/size/libm.a(lib_a-s_scalbn.o)
 .rodata.two54.two54
                0x00000000        0x8 /home/ishyro/.arduino15/packages/chipKIT/tools/pic32-tools/1.43-pic32gcc/bin/bin/../../lib/gcc/pic32mx/4.8.3/../../../../pic32mx/lib/size/libm.a(lib_a-s_scalbn.o)
 .rodata.twom54.twom54
                0x00000000        0x8 /home/ishyro/.arduino15/packages/chipKIT/tools/pic32-tools/1.43-pic32gcc/bin/bin/../../lib/gcc/pic32mx/4.8.3/../../../../pic32mx/lib/size/libm.a(lib_a-s_scalbn.o)
 .rodata.huge.huge
                0x00000000        0x8 /home/ishyro/.arduino15/packages/chipKIT/tools/pic32-tools/1.43-pic32gcc/bin/bin/../../lib/gcc/pic32mx/4.8.3/../../../../pic32mx/lib/size/libm.a(lib_a-s_scalbn.o)
 .rodata.tiny.tiny
                0x00000000        0x8 /home/ishyro/.arduino15/packages/chipKIT/tools/pic32-tools/1.43-pic32gcc/bin/bin/../../lib/gcc/pic32mx/4.8.3/../../../../pic32mx/lib/size/libm.a(lib_a-s_scalbn.o)
 .text          0x00000000        0x0 /home/ishyro/.arduino15/packages/chipKIT/tools/pic32-tools/1.43-pic32gcc/bin/bin/../../lib/gcc/pic32mx/4.8.3/../../../../pic32mx/lib/size/libm.a(lib_a-s_copysign.o)
 .data          0x00000000        0x0 /home/ishyro/.arduino15/packages/chipKIT/tools/pic32-tools/1.43-pic32gcc/bin/bin/../../lib/gcc/pic32mx/4.8.3/../../../../pic32mx/lib/size/libm.a(lib_a-s_copysign.o)
 .bss           0x00000000        0x0 /home/ishyro/.arduino15/packages/chipKIT/tools/pic32-tools/1.43-pic32gcc/bin/bin/../../lib/gcc/pic32mx/4.8.3/../../../../pic32mx/lib/size/libm.a(lib_a-s_copysign.o)
 .reginfo       0x00000000       0x18 /home/ishyro/.arduino15/packages/chipKIT/tools/pic32-tools/1.43-pic32gcc/bin/bin/../../lib/gcc/pic32mx/4.8.3/../../../../pic32mx/lib/size/libm.a(lib_a-s_copysign.o)
 .text          0x00000000        0x0 /home/ishyro/.arduino15/packages/chipKIT/tools/pic32-tools/1.43-pic32gcc/bin/bin/../../lib/gcc/pic32mx/4.8.3/../../../../pic32mx/lib/./proc/32MX250F128D/processor.o
 .data          0x00000000        0x0 /home/ishyro/.arduino15/packages/chipKIT/tools/pic32-tools/1.43-pic32gcc/bin/bin/../../lib/gcc/pic32mx/4.8.3/../../../../pic32mx/lib/./proc/32MX250F128D/processor.o
 .bss           0x00000000        0x0 /home/ishyro/.arduino15/packages/chipKIT/tools/pic32-tools/1.43-pic32gcc/bin/bin/../../lib/gcc/pic32mx/4.8.3/../../../../pic32mx/lib/./proc/32MX250F128D/processor.o
 .reginfo       0x00000000       0x18 /home/ishyro/.arduino15/packages/chipKIT/tools/pic32-tools/1.43-pic32gcc/bin/bin/../../lib/gcc/pic32mx/4.8.3/../../../../pic32mx/lib/./proc/32MX250F128D/processor.o
 .data          0x00000000        0x4 /home/ishyro/.arduino15/packages/chipKIT/tools/pic32-tools/1.43-pic32gcc/bin/bin/../../lib/gcc/pic32mx/4.8.3/size/crtbegin.o
 .reginfo       0x00000000       0x18 /home/ishyro/.arduino15/packages/chipKIT/tools/pic32-tools/1.43-pic32gcc/bin/bin/../../lib/gcc/pic32mx/4.8.3/size/crtbegin.o
 .data          0x00000000        0x4 /home/ishyro/.arduino15/packages/chipKIT/tools/pic32-tools/1.43-pic32gcc/bin/bin/../../lib/gcc/pic32mx/4.8.3/size/crtend.o
 .bss           0x00000000        0x0 /home/ishyro/.arduino15/packages/chipKIT/tools/pic32-tools/1.43-pic32gcc/bin/bin/../../lib/gcc/pic32mx/4.8.3/size/crtend.o
 .reginfo       0x00000000       0x18 /home/ishyro/.arduino15/packages/chipKIT/tools/pic32-tools/1.43-pic32gcc/bin/bin/../../lib/gcc/pic32mx/4.8.3/size/crtend.o
 .eh_frame      0x00000000        0x4 /home/ishyro/.arduino15/packages/chipKIT/tools/pic32-tools/1.43-pic32gcc/bin/bin/../../lib/gcc/pic32mx/4.8.3/size/crtend.o
 .jcr           0x00000000        0x4 /home/ishyro/.arduino15/packages/chipKIT/tools/pic32-tools/1.43-pic32gcc/bin/bin/../../lib/gcc/pic32mx/4.8.3/size/crtend.o
 .text          0x00000000        0x0 /home/ishyro/.arduino15/packages/chipKIT/tools/pic32-tools/1.43-pic32gcc/bin/bin/../../lib/gcc/pic32mx/4.8.3/size/crtn.o
 .data          0x00000000        0x0 /home/ishyro/.arduino15/packages/chipKIT/tools/pic32-tools/1.43-pic32gcc/bin/bin/../../lib/gcc/pic32mx/4.8.3/size/crtn.o
 .bss           0x00000000        0x0 /home/ishyro/.arduino15/packages/chipKIT/tools/pic32-tools/1.43-pic32gcc/bin/bin/../../lib/gcc/pic32mx/4.8.3/size/crtn.o
 .reginfo       0x00000000       0x18 /home/ishyro/.arduino15/packages/chipKIT/tools/pic32-tools/1.43-pic32gcc/bin/bin/../../lib/gcc/pic32mx/4.8.3/size/crtn.o
 .data          0x00000000        0x0 /home/ishyro/.arduino15/packages/chipKIT/tools/pic32-tools/1.43-pic32gcc/bin/bin/../../lib/gcc/pic32mx/4.8.3/size/libgcc.a(_lshrdi3.o)
 .bss           0x00000000        0x0 /home/ishyro/.arduino15/packages/chipKIT/tools/pic32-tools/1.43-pic32gcc/bin/bin/../../lib/gcc/pic32mx/4.8.3/size/libgcc.a(_lshrdi3.o)
 .reginfo       0x00000000       0x18 /home/ishyro/.arduino15/packages/chipKIT/tools/pic32-tools/1.43-pic32gcc/bin/bin/../../lib/gcc/pic32mx/4.8.3/size/libgcc.a(_lshrdi3.o)
 .data          0x00000000        0x0 /home/ishyro/.arduino15/packages/chipKIT/tools/pic32-tools/1.43-pic32gcc/bin/bin/../../lib/gcc/pic32mx/4.8.3/size/libgcc.a(_ashldi3.o)
 .bss           0x00000000        0x0 /home/ishyro/.arduino15/packages/chipKIT/tools/pic32-tools/1.43-pic32gcc/bin/bin/../../lib/gcc/pic32mx/4.8.3/size/libgcc.a(_ashldi3.o)
 .reginfo       0x00000000       0x18 /home/ishyro/.arduino15/packages/chipKIT/tools/pic32-tools/1.43-pic32gcc/bin/bin/../../lib/gcc/pic32mx/4.8.3/size/libgcc.a(_ashldi3.o)
 .data          0x00000000        0x0 /home/ishyro/.arduino15/packages/chipKIT/tools/pic32-tools/1.43-pic32gcc/bin/bin/../../lib/gcc/pic32mx/4.8.3/size/libgcc.a(_ashrdi3.o)
 .bss           0x00000000        0x0 /home/ishyro/.arduino15/packages/chipKIT/tools/pic32-tools/1.43-pic32gcc/bin/bin/../../lib/gcc/pic32mx/4.8.3/size/libgcc.a(_ashrdi3.o)
 .reginfo       0x00000000       0x18 /home/ishyro/.arduino15/packages/chipKIT/tools/pic32-tools/1.43-pic32gcc/bin/bin/../../lib/gcc/pic32mx/4.8.3/size/libgcc.a(_ashrdi3.o)
 .data          0x00000000        0x0 /home/ishyro/.arduino15/packages/chipKIT/tools/pic32-tools/1.43-pic32gcc/bin/bin/../../lib/gcc/pic32mx/4.8.3/size/libgcc.a(_divdi3.o)
 .bss           0x00000000        0x0 /home/ishyro/.arduino15/packages/chipKIT/tools/pic32-tools/1.43-pic32gcc/bin/bin/../../lib/gcc/pic32mx/4.8.3/size/libgcc.a(_divdi3.o)
 .reginfo       0x00000000       0x18 /home/ishyro/.arduino15/packages/chipKIT/tools/pic32-tools/1.43-pic32gcc/bin/bin/../../lib/gcc/pic32mx/4.8.3/size/libgcc.a(_divdi3.o)
 .data          0x00000000        0x0 /home/ishyro/.arduino15/packages/chipKIT/tools/pic32-tools/1.43-pic32gcc/bin/bin/../../lib/gcc/pic32mx/4.8.3/size/libgcc.a(_moddi3.o)
 .bss           0x00000000        0x0 /home/ishyro/.arduino15/packages/chipKIT/tools/pic32-tools/1.43-pic32gcc/bin/bin/../../lib/gcc/pic32mx/4.8.3/size/libgcc.a(_moddi3.o)
 .reginfo       0x00000000       0x18 /home/ishyro/.arduino15/packages/chipKIT/tools/pic32-tools/1.43-pic32gcc/bin/bin/../../lib/gcc/pic32mx/4.8.3/size/libgcc.a(_moddi3.o)
 .data          0x00000000        0x0 /home/ishyro/.arduino15/packages/chipKIT/tools/pic32-tools/1.43-pic32gcc/bin/bin/../../lib/gcc/pic32mx/4.8.3/size/libgcc.a(addsf3.o)
 .bss           0x00000000        0x0 /home/ishyro/.arduino15/packages/chipKIT/tools/pic32-tools/1.43-pic32gcc/bin/bin/../../lib/gcc/pic32mx/4.8.3/size/libgcc.a(addsf3.o)
 .reginfo       0x00000000       0x18 /home/ishyro/.arduino15/packages/chipKIT/tools/pic32-tools/1.43-pic32gcc/bin/bin/../../lib/gcc/pic32mx/4.8.3/size/libgcc.a(addsf3.o)
 .data          0x00000000        0x0 /home/ishyro/.arduino15/packages/chipKIT/tools/pic32-tools/1.43-pic32gcc/bin/bin/../../lib/gcc/pic32mx/4.8.3/size/libgcc.a(divsf3.o)
 .bss           0x00000000        0x0 /home/ishyro/.arduino15/packages/chipKIT/tools/pic32-tools/1.43-pic32gcc/bin/bin/../../lib/gcc/pic32mx/4.8.3/size/libgcc.a(divsf3.o)
 .reginfo       0x00000000       0x18 /home/ishyro/.arduino15/packages/chipKIT/tools/pic32-tools/1.43-pic32gcc/bin/bin/../../lib/gcc/pic32mx/4.8.3/size/libgcc.a(divsf3.o)
 .data          0x00000000        0x0 /home/ishyro/.arduino15/packages/chipKIT/tools/pic32-tools/1.43-pic32gcc/bin/bin/../../lib/gcc/pic32mx/4.8.3/size/libgcc.a(eqsf2.o)
 .bss           0x00000000        0x0 /home/ishyro/.arduino15/packages/chipKIT/tools/pic32-tools/1.43-pic32gcc/bin/bin/../../lib/gcc/pic32mx/4.8.3/size/libgcc.a(eqsf2.o)
 .reginfo       0x00000000       0x18 /home/ishyro/.arduino15/packages/chipKIT/tools/pic32-tools/1.43-pic32gcc/bin/bin/../../lib/gcc/pic32mx/4.8.3/size/libgcc.a(eqsf2.o)
 .data          0x00000000        0x0 /home/ishyro/.arduino15/packages/chipKIT/tools/pic32-tools/1.43-pic32gcc/bin/bin/../../lib/gcc/pic32mx/4.8.3/size/libgcc.a(gesf2.o)
 .bss           0x00000000        0x0 /home/ishyro/.arduino15/packages/chipKIT/tools/pic32-tools/1.43-pic32gcc/bin/bin/../../lib/gcc/pic32mx/4.8.3/size/libgcc.a(gesf2.o)
 .reginfo       0x00000000       0x18 /home/ishyro/.arduino15/packages/chipKIT/tools/pic32-tools/1.43-pic32gcc/bin/bin/../../lib/gcc/pic32mx/4.8.3/size/libgcc.a(gesf2.o)
 .data          0x00000000        0x0 /home/ishyro/.arduino15/packages/chipKIT/tools/pic32-tools/1.43-pic32gcc/bin/bin/../../lib/gcc/pic32mx/4.8.3/size/libgcc.a(lesf2.o)
 .bss           0x00000000        0x0 /home/ishyro/.arduino15/packages/chipKIT/tools/pic32-tools/1.43-pic32gcc/bin/bin/../../lib/gcc/pic32mx/4.8.3/size/libgcc.a(lesf2.o)
 .reginfo       0x00000000       0x18 /home/ishyro/.arduino15/packages/chipKIT/tools/pic32-tools/1.43-pic32gcc/bin/bin/../../lib/gcc/pic32mx/4.8.3/size/libgcc.a(lesf2.o)
 .data          0x00000000        0x0 /home/ishyro/.arduino15/packages/chipKIT/tools/pic32-tools/1.43-pic32gcc/bin/bin/../../lib/gcc/pic32mx/4.8.3/size/libgcc.a(mulsf3.o)
 .bss           0x00000000        0x0 /home/ishyro/.arduino15/packages/chipKIT/tools/pic32-tools/1.43-pic32gcc/bin/bin/../../lib/gcc/pic32mx/4.8.3/size/libgcc.a(mulsf3.o)
 .reginfo       0x00000000       0x18 /home/ishyro/.arduino15/packages/chipKIT/tools/pic32-tools/1.43-pic32gcc/bin/bin/../../lib/gcc/pic32mx/4.8.3/size/libgcc.a(mulsf3.o)
 .data          0x00000000        0x0 /home/ishyro/.arduino15/packages/chipKIT/tools/pic32-tools/1.43-pic32gcc/bin/bin/../../lib/gcc/pic32mx/4.8.3/size/libgcc.a(subsf3.o)
 .bss           0x00000000        0x0 /home/ishyro/.arduino15/packages/chipKIT/tools/pic32-tools/1.43-pic32gcc/bin/bin/../../lib/gcc/pic32mx/4.8.3/size/libgcc.a(subsf3.o)
 .reginfo       0x00000000       0x18 /home/ishyro/.arduino15/packages/chipKIT/tools/pic32-tools/1.43-pic32gcc/bin/bin/../../lib/gcc/pic32mx/4.8.3/size/libgcc.a(subsf3.o)
 .data          0x00000000        0x0 /home/ishyro/.arduino15/packages/chipKIT/tools/pic32-tools/1.43-pic32gcc/bin/bin/../../lib/gcc/pic32mx/4.8.3/size/libgcc.a(fixsfsi.o)
 .bss           0x00000000        0x0 /home/ishyro/.arduino15/packages/chipKIT/tools/pic32-tools/1.43-pic32gcc/bin/bin/../../lib/gcc/pic32mx/4.8.3/size/libgcc.a(fixsfsi.o)
 .reginfo       0x00000000       0x18 /home/ishyro/.arduino15/packages/chipKIT/tools/pic32-tools/1.43-pic32gcc/bin/bin/../../lib/gcc/pic32mx/4.8.3/size/libgcc.a(fixsfsi.o)
 .data          0x00000000        0x0 /home/ishyro/.arduino15/packages/chipKIT/tools/pic32-tools/1.43-pic32gcc/bin/bin/../../lib/gcc/pic32mx/4.8.3/size/libgcc.a(floatsisf.o)
 .bss           0x00000000        0x0 /home/ishyro/.arduino15/packages/chipKIT/tools/pic32-tools/1.43-pic32gcc/bin/bin/../../lib/gcc/pic32mx/4.8.3/size/libgcc.a(floatsisf.o)
 .reginfo       0x00000000       0x18 /home/ishyro/.arduino15/packages/chipKIT/tools/pic32-tools/1.43-pic32gcc/bin/bin/../../lib/gcc/pic32mx/4.8.3/size/libgcc.a(floatsisf.o)
 .data          0x00000000        0x0 /home/ishyro/.arduino15/packages/chipKIT/tools/pic32-tools/1.43-pic32gcc/bin/bin/../../lib/gcc/pic32mx/4.8.3/size/libgcc.a(fixsfdi.o)
 .bss           0x00000000        0x0 /home/ishyro/.arduino15/packages/chipKIT/tools/pic32-tools/1.43-pic32gcc/bin/bin/../../lib/gcc/pic32mx/4.8.3/size/libgcc.a(fixsfdi.o)
 .reginfo       0x00000000       0x18 /home/ishyro/.arduino15/packages/chipKIT/tools/pic32-tools/1.43-pic32gcc/bin/bin/../../lib/gcc/pic32mx/4.8.3/size/libgcc.a(fixsfdi.o)
 .data          0x00000000        0x0 /home/ishyro/.arduino15/packages/chipKIT/tools/pic32-tools/1.43-pic32gcc/bin/bin/../../lib/gcc/pic32mx/4.8.3/size/libgcc.a(floatdisf.o)
 .bss           0x00000000        0x0 /home/ishyro/.arduino15/packages/chipKIT/tools/pic32-tools/1.43-pic32gcc/bin/bin/../../lib/gcc/pic32mx/4.8.3/size/libgcc.a(floatdisf.o)
 .reginfo       0x00000000       0x18 /home/ishyro/.arduino15/packages/chipKIT/tools/pic32-tools/1.43-pic32gcc/bin/bin/../../lib/gcc/pic32mx/4.8.3/size/libgcc.a(floatdisf.o)
 .data          0x00000000        0x0 /home/ishyro/.arduino15/packages/chipKIT/tools/pic32-tools/1.43-pic32gcc/bin/bin/../../lib/gcc/pic32mx/4.8.3/size/libgcc.a(adddf3.o)
 .bss           0x00000000        0x0 /home/ishyro/.arduino15/packages/chipKIT/tools/pic32-tools/1.43-pic32gcc/bin/bin/../../lib/gcc/pic32mx/4.8.3/size/libgcc.a(adddf3.o)
 .reginfo       0x00000000       0x18 /home/ishyro/.arduino15/packages/chipKIT/tools/pic32-tools/1.43-pic32gcc/bin/bin/../../lib/gcc/pic32mx/4.8.3/size/libgcc.a(adddf3.o)
 .data          0x00000000        0x0 /home/ishyro/.arduino15/packages/chipKIT/tools/pic32-tools/1.43-pic32gcc/bin/bin/../../lib/gcc/pic32mx/4.8.3/size/libgcc.a(divdf3.o)
 .bss           0x00000000        0x0 /home/ishyro/.arduino15/packages/chipKIT/tools/pic32-tools/1.43-pic32gcc/bin/bin/../../lib/gcc/pic32mx/4.8.3/size/libgcc.a(divdf3.o)
 .reginfo       0x00000000       0x18 /home/ishyro/.arduino15/packages/chipKIT/tools/pic32-tools/1.43-pic32gcc/bin/bin/../../lib/gcc/pic32mx/4.8.3/size/libgcc.a(divdf3.o)
 .data          0x00000000        0x0 /home/ishyro/.arduino15/packages/chipKIT/tools/pic32-tools/1.43-pic32gcc/bin/bin/../../lib/gcc/pic32mx/4.8.3/size/libgcc.a(eqdf2.o)
 .bss           0x00000000        0x0 /home/ishyro/.arduino15/packages/chipKIT/tools/pic32-tools/1.43-pic32gcc/bin/bin/../../lib/gcc/pic32mx/4.8.3/size/libgcc.a(eqdf2.o)
 .reginfo       0x00000000       0x18 /home/ishyro/.arduino15/packages/chipKIT/tools/pic32-tools/1.43-pic32gcc/bin/bin/../../lib/gcc/pic32mx/4.8.3/size/libgcc.a(eqdf2.o)
 .data          0x00000000        0x0 /home/ishyro/.arduino15/packages/chipKIT/tools/pic32-tools/1.43-pic32gcc/bin/bin/../../lib/gcc/pic32mx/4.8.3/size/libgcc.a(gedf2.o)
 .bss           0x00000000        0x0 /home/ishyro/.arduino15/packages/chipKIT/tools/pic32-tools/1.43-pic32gcc/bin/bin/../../lib/gcc/pic32mx/4.8.3/size/libgcc.a(gedf2.o)
 .reginfo       0x00000000       0x18 /home/ishyro/.arduino15/packages/chipKIT/tools/pic32-tools/1.43-pic32gcc/bin/bin/../../lib/gcc/pic32mx/4.8.3/size/libgcc.a(gedf2.o)
 .data          0x00000000        0x0 /home/ishyro/.arduino15/packages/chipKIT/tools/pic32-tools/1.43-pic32gcc/bin/bin/../../lib/gcc/pic32mx/4.8.3/size/libgcc.a(ledf2.o)
 .bss           0x00000000        0x0 /home/ishyro/.arduino15/packages/chipKIT/tools/pic32-tools/1.43-pic32gcc/bin/bin/../../lib/gcc/pic32mx/4.8.3/size/libgcc.a(ledf2.o)
 .reginfo       0x00000000       0x18 /home/ishyro/.arduino15/packages/chipKIT/tools/pic32-tools/1.43-pic32gcc/bin/bin/../../lib/gcc/pic32mx/4.8.3/size/libgcc.a(ledf2.o)
 .data          0x00000000        0x0 /home/ishyro/.arduino15/packages/chipKIT/tools/pic32-tools/1.43-pic32gcc/bin/bin/../../lib/gcc/pic32mx/4.8.3/size/libgcc.a(muldf3.o)
 .bss           0x00000000        0x0 /home/ishyro/.arduino15/packages/chipKIT/tools/pic32-tools/1.43-pic32gcc/bin/bin/../../lib/gcc/pic32mx/4.8.3/size/libgcc.a(muldf3.o)
 .reginfo       0x00000000       0x18 /home/ishyro/.arduino15/packages/chipKIT/tools/pic32-tools/1.43-pic32gcc/bin/bin/../../lib/gcc/pic32mx/4.8.3/size/libgcc.a(muldf3.o)
 .data          0x00000000        0x0 /home/ishyro/.arduino15/packages/chipKIT/tools/pic32-tools/1.43-pic32gcc/bin/bin/../../lib/gcc/pic32mx/4.8.3/size/libgcc.a(subdf3.o)
 .bss           0x00000000        0x0 /home/ishyro/.arduino15/packages/chipKIT/tools/pic32-tools/1.43-pic32gcc/bin/bin/../../lib/gcc/pic32mx/4.8.3/size/libgcc.a(subdf3.o)
 .reginfo       0x00000000       0x18 /home/ishyro/.arduino15/packages/chipKIT/tools/pic32-tools/1.43-pic32gcc/bin/bin/../../lib/gcc/pic32mx/4.8.3/size/libgcc.a(subdf3.o)
 .data          0x00000000        0x0 /home/ishyro/.arduino15/packages/chipKIT/tools/pic32-tools/1.43-pic32gcc/bin/bin/../../lib/gcc/pic32mx/4.8.3/size/libgcc.a(fixdfsi.o)
 .bss           0x00000000        0x0 /home/ishyro/.arduino15/packages/chipKIT/tools/pic32-tools/1.43-pic32gcc/bin/bin/../../lib/gcc/pic32mx/4.8.3/size/libgcc.a(fixdfsi.o)
 .reginfo       0x00000000       0x18 /home/ishyro/.arduino15/packages/chipKIT/tools/pic32-tools/1.43-pic32gcc/bin/bin/../../lib/gcc/pic32mx/4.8.3/size/libgcc.a(fixdfsi.o)
 .text          0x00000000       0x6c /home/ishyro/.arduino15/packages/chipKIT/tools/pic32-tools/1.43-pic32gcc/bin/bin/../../lib/gcc/pic32mx/4.8.3/size/libgcc.a(fixunsdfsi.o)
 .data          0x00000000        0x0 /home/ishyro/.arduino15/packages/chipKIT/tools/pic32-tools/1.43-pic32gcc/bin/bin/../../lib/gcc/pic32mx/4.8.3/size/libgcc.a(fixunsdfsi.o)
 .bss           0x00000000        0x0 /home/ishyro/.arduino15/packages/chipKIT/tools/pic32-tools/1.43-pic32gcc/bin/bin/../../lib/gcc/pic32mx/4.8.3/size/libgcc.a(fixunsdfsi.o)
 .reginfo       0x00000000       0x18 /home/ishyro/.arduino15/packages/chipKIT/tools/pic32-tools/1.43-pic32gcc/bin/bin/../../lib/gcc/pic32mx/4.8.3/size/libgcc.a(fixunsdfsi.o)
 .data          0x00000000        0x0 /home/ishyro/.arduino15/packages/chipKIT/tools/pic32-tools/1.43-pic32gcc/bin/bin/../../lib/gcc/pic32mx/4.8.3/size/libgcc.a(floatsidf.o)
 .bss           0x00000000        0x0 /home/ishyro/.arduino15/packages/chipKIT/tools/pic32-tools/1.43-pic32gcc/bin/bin/../../lib/gcc/pic32mx/4.8.3/size/libgcc.a(floatsidf.o)
 .reginfo       0x00000000       0x18 /home/ishyro/.arduino15/packages/chipKIT/tools/pic32-tools/1.43-pic32gcc/bin/bin/../../lib/gcc/pic32mx/4.8.3/size/libgcc.a(floatsidf.o)
 .data          0x00000000        0x0 /home/ishyro/.arduino15/packages/chipKIT/tools/pic32-tools/1.43-pic32gcc/bin/bin/../../lib/gcc/pic32mx/4.8.3/size/libgcc.a(floatunsidf.o)
 .bss           0x00000000        0x0 /home/ishyro/.arduino15/packages/chipKIT/tools/pic32-tools/1.43-pic32gcc/bin/bin/../../lib/gcc/pic32mx/4.8.3/size/libgcc.a(floatunsidf.o)
 .reginfo       0x00000000       0x18 /home/ishyro/.arduino15/packages/chipKIT/tools/pic32-tools/1.43-pic32gcc/bin/bin/../../lib/gcc/pic32mx/4.8.3/size/libgcc.a(floatunsidf.o)
 .data          0x00000000        0x0 /home/ishyro/.arduino15/packages/chipKIT/tools/pic32-tools/1.43-pic32gcc/bin/bin/../../lib/gcc/pic32mx/4.8.3/size/libgcc.a(extendsfdf2.o)
 .bss           0x00000000        0x0 /home/ishyro/.arduino15/packages/chipKIT/tools/pic32-tools/1.43-pic32gcc/bin/bin/../../lib/gcc/pic32mx/4.8.3/size/libgcc.a(extendsfdf2.o)
 .reginfo       0x00000000       0x18 /home/ishyro/.arduino15/packages/chipKIT/tools/pic32-tools/1.43-pic32gcc/bin/bin/../../lib/gcc/pic32mx/4.8.3/size/libgcc.a(extendsfdf2.o)
 .data          0x00000000        0x0 /home/ishyro/.arduino15/packages/chipKIT/tools/pic32-tools/1.43-pic32gcc/bin/bin/../../lib/gcc/pic32mx/4.8.3/size/libgcc.a(truncdfsf2.o)
 .bss           0x00000000        0x0 /home/ishyro/.arduino15/packages/chipKIT/tools/pic32-tools/1.43-pic32gcc/bin/bin/../../lib/gcc/pic32mx/4.8.3/size/libgcc.a(truncdfsf2.o)
 .reginfo       0x00000000       0x18 /home/ishyro/.arduino15/packages/chipKIT/tools/pic32-tools/1.43-pic32gcc/bin/bin/../../lib/gcc/pic32mx/4.8.3/size/libgcc.a(truncdfsf2.o)
 .text          0x00000000        0x0 /home/ishyro/.arduino15/packages/chipKIT/tools/pic32-tools/1.43-pic32gcc/bin/bin/../../lib/gcc/pic32mx/4.8.3/../../../../pic32mx/lib/size/libc.a(lib_a-abort.o)
 .data          0x00000000        0x0 /home/ishyro/.arduino15/packages/chipKIT/tools/pic32-tools/1.43-pic32gcc/bin/bin/../../lib/gcc/pic32mx/4.8.3/../../../../pic32mx/lib/size/libc.a(lib_a-abort.o)
 .bss           0x00000000        0x0 /home/ishyro/.arduino15/packages/chipKIT/tools/pic32-tools/1.43-pic32gcc/bin/bin/../../lib/gcc/pic32mx/4.8.3/../../../../pic32mx/lib/size/libc.a(lib_a-abort.o)
 .reginfo       0x00000000       0x18 /home/ishyro/.arduino15/packages/chipKIT/tools/pic32-tools/1.43-pic32gcc/bin/bin/../../lib/gcc/pic32mx/4.8.3/../../../../pic32mx/lib/size/libc.a(lib_a-abort.o)
 .text.abort    0x00000000       0x18 /home/ishyro/.arduino15/packages/chipKIT/tools/pic32-tools/1.43-pic32gcc/bin/bin/../../lib/gcc/pic32mx/4.8.3/../../../../pic32mx/lib/size/libc.a(lib_a-abort.o)
 .text          0x00000000        0x0 /home/ishyro/.arduino15/packages/chipKIT/tools/pic32-tools/1.43-pic32gcc/bin/bin/../../lib/gcc/pic32mx/4.8.3/../../../../pic32mx/lib/size/libc.a(lib_a-errno.o)
 .data          0x00000000        0x0 /home/ishyro/.arduino15/packages/chipKIT/tools/pic32-tools/1.43-pic32gcc/bin/bin/../../lib/gcc/pic32mx/4.8.3/../../../../pic32mx/lib/size/libc.a(lib_a-errno.o)
 .bss           0x00000000        0x0 /home/ishyro/.arduino15/packages/chipKIT/tools/pic32-tools/1.43-pic32gcc/bin/bin/../../lib/gcc/pic32mx/4.8.3/../../../../pic32mx/lib/size/libc.a(lib_a-errno.o)
 .reginfo       0x00000000       0x18 /home/ishyro/.arduino15/packages/chipKIT/tools/pic32-tools/1.43-pic32gcc/bin/bin/../../lib/gcc/pic32mx/4.8.3/../../../../pic32mx/lib/size/libc.a(lib_a-errno.o)
 .text          0x00000000        0x0 /home/ishyro/.arduino15/packages/chipKIT/tools/pic32-tools/1.43-pic32gcc/bin/bin/../../lib/gcc/pic32mx/4.8.3/../../../../pic32mx/lib/size/libc.a(lib_a-impure.o)
 .data          0x00000000        0x0 /home/ishyro/.arduino15/packages/chipKIT/tools/pic32-tools/1.43-pic32gcc/bin/bin/../../lib/gcc/pic32mx/4.8.3/../../../../pic32mx/lib/size/libc.a(lib_a-impure.o)
 .bss           0x00000000        0x0 /home/ishyro/.arduino15/packages/chipKIT/tools/pic32-tools/1.43-pic32gcc/bin/bin/../../lib/gcc/pic32mx/4.8.3/../../../../pic32mx/lib/size/libc.a(lib_a-impure.o)
 .reginfo       0x00000000       0x18 /home/ishyro/.arduino15/packages/chipKIT/tools/pic32-tools/1.43-pic32gcc/bin/bin/../../lib/gcc/pic32mx/4.8.3/../../../../pic32mx/lib/size/libc.a(lib_a-impure.o)
 .libc.data._global_impure_ptr
                0x00000000        0x4 /home/ishyro/.arduino15/packages/chipKIT/tools/pic32-tools/1.43-pic32gcc/bin/bin/../../lib/gcc/pic32mx/4.8.3/../../../../pic32mx/lib/size/libc.a(lib_a-impure.o)
 .text          0x00000000        0x0 /home/ishyro/.arduino15/packages/chipKIT/tools/pic32-tools/1.43-pic32gcc/bin/bin/../../lib/gcc/pic32mx/4.8.3/../../../../pic32mx/lib/size/libc.a(lib_a-malloc.o)
 .data          0x00000000        0x0 /home/ishyro/.arduino15/packages/chipKIT/tools/pic32-tools/1.43-pic32gcc/bin/bin/../../lib/gcc/pic32mx/4.8.3/../../../../pic32mx/lib/size/libc.a(lib_a-malloc.o)
 .bss           0x00000000        0x0 /home/ishyro/.arduino15/packages/chipKIT/tools/pic32-tools/1.43-pic32gcc/bin/bin/../../lib/gcc/pic32mx/4.8.3/../../../../pic32mx/lib/size/libc.a(lib_a-malloc.o)
 .reginfo       0x00000000       0x18 /home/ishyro/.arduino15/packages/chipKIT/tools/pic32-tools/1.43-pic32gcc/bin/bin/../../lib/gcc/pic32mx/4.8.3/../../../../pic32mx/lib/size/libc.a(lib_a-malloc.o)
 .text          0x00000000        0x0 /home/ishyro/.arduino15/packages/chipKIT/tools/pic32-tools/1.43-pic32gcc/bin/bin/../../lib/gcc/pic32mx/4.8.3/../../../../pic32mx/lib/size/libc.a(lib_a-mallocr.o)
 .data          0x00000000        0x0 /home/ishyro/.arduino15/packages/chipKIT/tools/pic32-tools/1.43-pic32gcc/bin/bin/../../lib/gcc/pic32mx/4.8.3/../../../../pic32mx/lib/size/libc.a(lib_a-mallocr.o)
 .bss           0x00000000        0x0 /home/ishyro/.arduino15/packages/chipKIT/tools/pic32-tools/1.43-pic32gcc/bin/bin/../../lib/gcc/pic32mx/4.8.3/../../../../pic32mx/lib/size/libc.a(lib_a-mallocr.o)
 .reginfo       0x00000000       0x18 /home/ishyro/.arduino15/packages/chipKIT/tools/pic32-tools/1.43-pic32gcc/bin/bin/../../lib/gcc/pic32mx/4.8.3/../../../../pic32mx/lib/size/libc.a(lib_a-mallocr.o)
 .text          0x00000000        0x0 /home/ishyro/.arduino15/packages/chipKIT/tools/pic32-tools/1.43-pic32gcc/bin/bin/../../lib/gcc/pic32mx/4.8.3/../../../../pic32mx/lib/size/libc.a(lib_a-memcpy.o)
 .data          0x00000000        0x0 /home/ishyro/.arduino15/packages/chipKIT/tools/pic32-tools/1.43-pic32gcc/bin/bin/../../lib/gcc/pic32mx/4.8.3/../../../../pic32mx/lib/size/libc.a(lib_a-memcpy.o)
 .bss           0x00000000        0x0 /home/ishyro/.arduino15/packages/chipKIT/tools/pic32-tools/1.43-pic32gcc/bin/bin/../../lib/gcc/pic32mx/4.8.3/../../../../pic32mx/lib/size/libc.a(lib_a-memcpy.o)
 .reginfo       0x00000000       0x18 /home/ishyro/.arduino15/packages/chipKIT/tools/pic32-tools/1.43-pic32gcc/bin/bin/../../lib/gcc/pic32mx/4.8.3/../../../../pic32mx/lib/size/libc.a(lib_a-memcpy.o)
 .text          0x00000000        0x0 /home/ishyro/.arduino15/packages/chipKIT/tools/pic32-tools/1.43-pic32gcc/bin/bin/../../lib/gcc/pic32mx/4.8.3/../../../../pic32mx/lib/size/libc.a(lib_a-memmove.o)
 .data          0x00000000        0x0 /home/ishyro/.arduino15/packages/chipKIT/tools/pic32-tools/1.43-pic32gcc/bin/bin/../../lib/gcc/pic32mx/4.8.3/../../../../pic32mx/lib/size/libc.a(lib_a-memmove.o)
 .bss           0x00000000        0x0 /home/ishyro/.arduino15/packages/chipKIT/tools/pic32-tools/1.43-pic32gcc/bin/bin/../../lib/gcc/pic32mx/4.8.3/../../../../pic32mx/lib/size/libc.a(lib_a-memmove.o)
 .reginfo       0x00000000       0x18 /home/ishyro/.arduino15/packages/chipKIT/tools/pic32-tools/1.43-pic32gcc/bin/bin/../../lib/gcc/pic32mx/4.8.3/../../../../pic32mx/lib/size/libc.a(lib_a-memmove.o)
 .text          0x00000000        0x0 /home/ishyro/.arduino15/packages/chipKIT/tools/pic32-tools/1.43-pic32gcc/bin/bin/../../lib/gcc/pic32mx/4.8.3/../../../../pic32mx/lib/size/libc.a(lib_a-mlock.o)
 .data          0x00000000        0x0 /home/ishyro/.arduino15/packages/chipKIT/tools/pic32-tools/1.43-pic32gcc/bin/bin/../../lib/gcc/pic32mx/4.8.3/../../../../pic32mx/lib/size/libc.a(lib_a-mlock.o)
 .bss           0x00000000        0x0 /home/ishyro/.arduino15/packages/chipKIT/tools/pic32-tools/1.43-pic32gcc/bin/bin/../../lib/gcc/pic32mx/4.8.3/../../../../pic32mx/lib/size/libc.a(lib_a-mlock.o)
 .reginfo       0x00000000       0x18 /home/ishyro/.arduino15/packages/chipKIT/tools/pic32-tools/1.43-pic32gcc/bin/bin/../../lib/gcc/pic32mx/4.8.3/../../../../pic32mx/lib/size/libc.a(lib_a-mlock.o)
 .text          0x00000000        0x0 /home/ishyro/.arduino15/packages/chipKIT/tools/pic32-tools/1.43-pic32gcc/bin/bin/../../lib/gcc/pic32mx/4.8.3/../../../../pic32mx/lib/size/libc.a(lib_a-sbrkr.o)
 .data          0x00000000        0x0 /home/ishyro/.arduino15/packages/chipKIT/tools/pic32-tools/1.43-pic32gcc/bin/bin/../../lib/gcc/pic32mx/4.8.3/../../../../pic32mx/lib/size/libc.a(lib_a-sbrkr.o)
 .bss           0x00000000        0x0 /home/ishyro/.arduino15/packages/chipKIT/tools/pic32-tools/1.43-pic32gcc/bin/bin/../../lib/gcc/pic32mx/4.8.3/../../../../pic32mx/lib/size/libc.a(lib_a-sbrkr.o)
 .reginfo       0x00000000       0x18 /home/ishyro/.arduino15/packages/chipKIT/tools/pic32-tools/1.43-pic32gcc/bin/bin/../../lib/gcc/pic32mx/4.8.3/../../../../pic32mx/lib/size/libc.a(lib_a-sbrkr.o)
 .data          0x00000000        0x0 /home/ishyro/.arduino15/packages/chipKIT/tools/pic32-tools/1.43-pic32gcc/bin/bin/../../lib/gcc/pic32mx/4.8.3/../../../../pic32mx/lib/size/libc.a(lib_a-setjmp.o)
 .bss           0x00000000        0x0 /home/ishyro/.arduino15/packages/chipKIT/tools/pic32-tools/1.43-pic32gcc/bin/bin/../../lib/gcc/pic32mx/4.8.3/../../../../pic32mx/lib/size/libc.a(lib_a-setjmp.o)
 .reginfo       0x00000000       0x18 /home/ishyro/.arduino15/packages/chipKIT/tools/pic32-tools/1.43-pic32gcc/bin/bin/../../lib/gcc/pic32mx/4.8.3/../../../../pic32mx/lib/size/libc.a(lib_a-setjmp.o)
 .text          0x00000000        0x0 /home/ishyro/.arduino15/packages/chipKIT/tools/pic32-tools/1.43-pic32gcc/bin/bin/../../lib/gcc/pic32mx/4.8.3/../../../../pic32mx/lib/size/libc.a(lib_a-signal.o)
 .data          0x00000000        0x0 /home/ishyro/.arduino15/packages/chipKIT/tools/pic32-tools/1.43-pic32gcc/bin/bin/../../lib/gcc/pic32mx/4.8.3/../../../../pic32mx/lib/size/libc.a(lib_a-signal.o)
 .bss           0x00000000        0x0 /home/ishyro/.arduino15/packages/chipKIT/tools/pic32-tools/1.43-pic32gcc/bin/bin/../../lib/gcc/pic32mx/4.8.3/../../../../pic32mx/lib/size/libc.a(lib_a-signal.o)
 .reginfo       0x00000000       0x18 /home/ishyro/.arduino15/packages/chipKIT/tools/pic32-tools/1.43-pic32gcc/bin/bin/../../lib/gcc/pic32mx/4.8.3/../../../../pic32mx/lib/size/libc.a(lib_a-signal.o)
 .text._init_signal_r
                0x00000000       0x68 /home/ishyro/.arduino15/packages/chipKIT/tools/pic32-tools/1.43-pic32gcc/bin/bin/../../lib/gcc/pic32mx/4.8.3/../../../../pic32mx/lib/size/libc.a(lib_a-signal.o)
 .text._signal_r
                0x00000000       0x80 /home/ishyro/.arduino15/packages/chipKIT/tools/pic32-tools/1.43-pic32gcc/bin/bin/../../lib/gcc/pic32mx/4.8.3/../../../../pic32mx/lib/size/libc.a(lib_a-signal.o)
 .text._raise_r
                0x00000000       0xb0 /home/ishyro/.arduino15/packages/chipKIT/tools/pic32-tools/1.43-pic32gcc/bin/bin/../../lib/gcc/pic32mx/4.8.3/../../../../pic32mx/lib/size/libc.a(lib_a-signal.o)
 .text.__sigtramp_r
                0x00000000       0xac /home/ishyro/.arduino15/packages/chipKIT/tools/pic32-tools/1.43-pic32gcc/bin/bin/../../lib/gcc/pic32mx/4.8.3/../../../../pic32mx/lib/size/libc.a(lib_a-signal.o)
 .text.raise    0x00000000       0x24 /home/ishyro/.arduino15/packages/chipKIT/tools/pic32-tools/1.43-pic32gcc/bin/bin/../../lib/gcc/pic32mx/4.8.3/../../../../pic32mx/lib/size/libc.a(lib_a-signal.o)
 .text.signal   0x00000000       0x2c /home/ishyro/.arduino15/packages/chipKIT/tools/pic32-tools/1.43-pic32gcc/bin/bin/../../lib/gcc/pic32mx/4.8.3/../../../../pic32mx/lib/size/libc.a(lib_a-signal.o)
 .text._init_signal
                0x00000000       0x20 /home/ishyro/.arduino15/packages/chipKIT/tools/pic32-tools/1.43-pic32gcc/bin/bin/../../lib/gcc/pic32mx/4.8.3/../../../../pic32mx/lib/size/libc.a(lib_a-signal.o)
 .text.__sigtramp
                0x00000000       0x24 /home/ishyro/.arduino15/packages/chipKIT/tools/pic32-tools/1.43-pic32gcc/bin/bin/../../lib/gcc/pic32mx/4.8.3/../../../../pic32mx/lib/size/libc.a(lib_a-signal.o)
 .text          0x00000000        0x0 /home/ishyro/.arduino15/packages/chipKIT/tools/pic32-tools/1.43-pic32gcc/bin/bin/../../lib/gcc/pic32mx/4.8.3/../../../../pic32mx/lib/size/libc.a(lib_a-signalr.o)
 .data          0x00000000        0x0 /home/ishyro/.arduino15/packages/chipKIT/tools/pic32-tools/1.43-pic32gcc/bin/bin/../../lib/gcc/pic32mx/4.8.3/../../../../pic32mx/lib/size/libc.a(lib_a-signalr.o)
 .bss           0x00000000        0x0 /home/ishyro/.arduino15/packages/chipKIT/tools/pic32-tools/1.43-pic32gcc/bin/bin/../../lib/gcc/pic32mx/4.8.3/../../../../pic32mx/lib/size/libc.a(lib_a-signalr.o)
 .reginfo       0x00000000       0x18 /home/ishyro/.arduino15/packages/chipKIT/tools/pic32-tools/1.43-pic32gcc/bin/bin/../../lib/gcc/pic32mx/4.8.3/../../../../pic32mx/lib/size/libc.a(lib_a-signalr.o)
 .text._kill_r  0x00000000       0x54 /home/ishyro/.arduino15/packages/chipKIT/tools/pic32-tools/1.43-pic32gcc/bin/bin/../../lib/gcc/pic32mx/4.8.3/../../../../pic32mx/lib/size/libc.a(lib_a-signalr.o)
 .text._getpid_r
                0x00000000       0x1c /home/ishyro/.arduino15/packages/chipKIT/tools/pic32-tools/1.43-pic32gcc/bin/bin/../../lib/gcc/pic32mx/4.8.3/../../../../pic32mx/lib/size/libc.a(lib_a-signalr.o)
 .text          0x00000000        0x0 /home/ishyro/.arduino15/packages/chipKIT/tools/pic32-tools/1.43-pic32gcc/bin/bin/../../lib/gcc/pic32mx/4.8.3/../../../../pic32mx/lib/size/libc.a(lib_a-snprintf.o)
 .data          0x00000000        0x0 /home/ishyro/.arduino15/packages/chipKIT/tools/pic32-tools/1.43-pic32gcc/bin/bin/../../lib/gcc/pic32mx/4.8.3/../../../../pic32mx/lib/size/libc.a(lib_a-snprintf.o)
 .bss           0x00000000        0x0 /home/ishyro/.arduino15/packages/chipKIT/tools/pic32-tools/1.43-pic32gcc/bin/bin/../../lib/gcc/pic32mx/4.8.3/../../../../pic32mx/lib/size/libc.a(lib_a-snprintf.o)
 .reginfo       0x00000000       0x18 /home/ishyro/.arduino15/packages/chipKIT/tools/pic32-tools/1.43-pic32gcc/bin/bin/../../lib/gcc/pic32mx/4.8.3/../../../../pic32mx/lib/size/libc.a(lib_a-snprintf.o)
 .text._snprintf_r
                0x00000000       0x9c /home/ishyro/.arduino15/packages/chipKIT/tools/pic32-tools/1.43-pic32gcc/bin/bin/../../lib/gcc/pic32mx/4.8.3/../../../../pic32mx/lib/size/libc.a(lib_a-snprintf.o)
 .text          0x00000000        0x0 /home/ishyro/.arduino15/packages/chipKIT/tools/pic32-tools/1.43-pic32gcc/bin/bin/../../lib/gcc/pic32mx/4.8.3/../../../../pic32mx/lib/size/libc.a(lib_a-strcmp.o)
 .data          0x00000000        0x0 /home/ishyro/.arduino15/packages/chipKIT/tools/pic32-tools/1.43-pic32gcc/bin/bin/../../lib/gcc/pic32mx/4.8.3/../../../../pic32mx/lib/size/libc.a(lib_a-strcmp.o)
 .bss           0x00000000        0x0 /home/ishyro/.arduino15/packages/chipKIT/tools/pic32-tools/1.43-pic32gcc/bin/bin/../../lib/gcc/pic32mx/4.8.3/../../../../pic32mx/lib/size/libc.a(lib_a-strcmp.o)
 .reginfo       0x00000000       0x18 /home/ishyro/.arduino15/packages/chipKIT/tools/pic32-tools/1.43-pic32gcc/bin/bin/../../lib/gcc/pic32mx/4.8.3/../../../../pic32mx/lib/size/libc.a(lib_a-strcmp.o)
 .data          0x00000000        0x0 /home/ishyro/.arduino15/packages/chipKIT/tools/pic32-tools/1.43-pic32gcc/bin/bin/../../lib/gcc/pic32mx/4.8.3/../../../../pic32mx/lib/size/libc.a(lib_a-strlen.o)
 .bss           0x00000000        0x0 /home/ishyro/.arduino15/packages/chipKIT/tools/pic32-tools/1.43-pic32gcc/bin/bin/../../lib/gcc/pic32mx/4.8.3/../../../../pic32mx/lib/size/libc.a(lib_a-strlen.o)
 .reginfo       0x00000000       0x18 /home/ishyro/.arduino15/packages/chipKIT/tools/pic32-tools/1.43-pic32gcc/bin/bin/../../lib/gcc/pic32mx/4.8.3/../../../../pic32mx/lib/size/libc.a(lib_a-strlen.o)
 .text          0x00000000        0x0 /home/ishyro/.arduino15/packages/chipKIT/tools/pic32-tools/1.43-pic32gcc/bin/bin/../../lib/gcc/pic32mx/4.8.3/../../../../pic32mx/lib/size/libc.a(lib_a-svfprintf.o)
 .data          0x00000000        0x0 /home/ishyro/.arduino15/packages/chipKIT/tools/pic32-tools/1.43-pic32gcc/bin/bin/../../lib/gcc/pic32mx/4.8.3/../../../../pic32mx/lib/size/libc.a(lib_a-svfprintf.o)
 .bss           0x00000000        0x0 /home/ishyro/.arduino15/packages/chipKIT/tools/pic32-tools/1.43-pic32gcc/bin/bin/../../lib/gcc/pic32mx/4.8.3/../../../../pic32mx/lib/size/libc.a(lib_a-svfprintf.o)
 .reginfo       0x00000000       0x18 /home/ishyro/.arduino15/packages/chipKIT/tools/pic32-tools/1.43-pic32gcc/bin/bin/../../lib/gcc/pic32mx/4.8.3/../../../../pic32mx/lib/size/libc.a(lib_a-svfprintf.o)
 .text          0x00000000        0x0 /home/ishyro/.arduino15/packages/chipKIT/tools/pic32-tools/1.43-pic32gcc/bin/bin/../../lib/gcc/pic32mx/4.8.3/../../../../pic32mx/lib/size/libc.a(lib_a-dtoa.o)
 .data          0x00000000        0x0 /home/ishyro/.arduino15/packages/chipKIT/tools/pic32-tools/1.43-pic32gcc/bin/bin/../../lib/gcc/pic32mx/4.8.3/../../../../pic32mx/lib/size/libc.a(lib_a-dtoa.o)
 .bss           0x00000000        0x0 /home/ishyro/.arduino15/packages/chipKIT/tools/pic32-tools/1.43-pic32gcc/bin/bin/../../lib/gcc/pic32mx/4.8.3/../../../../pic32mx/lib/size/libc.a(lib_a-dtoa.o)
 .reginfo       0x00000000       0x18 /home/ishyro/.arduino15/packages/chipKIT/tools/pic32-tools/1.43-pic32gcc/bin/bin/../../lib/gcc/pic32mx/4.8.3/../../../../pic32mx/lib/size/libc.a(lib_a-dtoa.o)
 .text          0x00000000        0x0 /home/ishyro/.arduino15/packages/chipKIT/tools/pic32-tools/1.43-pic32gcc/bin/bin/../../lib/gcc/pic32mx/4.8.3/../../../../pic32mx/lib/size/libc.a(lib_a-freer.o)
 .data          0x00000000        0x0 /home/ishyro/.arduino15/packages/chipKIT/tools/pic32-tools/1.43-pic32gcc/bin/bin/../../lib/gcc/pic32mx/4.8.3/../../../../pic32mx/lib/size/libc.a(lib_a-freer.o)
 .bss           0x00000000        0x0 /home/ishyro/.arduino15/packages/chipKIT/tools/pic32-tools/1.43-pic32gcc/bin/bin/../../lib/gcc/pic32mx/4.8.3/../../../../pic32mx/lib/size/libc.a(lib_a-freer.o)
 .reginfo       0x00000000       0x18 /home/ishyro/.arduino15/packages/chipKIT/tools/pic32-tools/1.43-pic32gcc/bin/bin/../../lib/gcc/pic32mx/4.8.3/../../../../pic32mx/lib/size/libc.a(lib_a-freer.o)
 .text          0x00000000        0x0 /home/ishyro/.arduino15/packages/chipKIT/tools/pic32-tools/1.43-pic32gcc/bin/bin/../../lib/gcc/pic32mx/4.8.3/../../../../pic32mx/lib/size/libc.a(lib_a-locale.o)
 .data          0x00000000        0x0 /home/ishyro/.arduino15/packages/chipKIT/tools/pic32-tools/1.43-pic32gcc/bin/bin/../../lib/gcc/pic32mx/4.8.3/../../../../pic32mx/lib/size/libc.a(lib_a-locale.o)
 .bss           0x00000000        0x0 /home/ishyro/.arduino15/packages/chipKIT/tools/pic32-tools/1.43-pic32gcc/bin/bin/../../lib/gcc/pic32mx/4.8.3/../../../../pic32mx/lib/size/libc.a(lib_a-locale.o)
 .reginfo       0x00000000       0x18 /home/ishyro/.arduino15/packages/chipKIT/tools/pic32-tools/1.43-pic32gcc/bin/bin/../../lib/gcc/pic32mx/4.8.3/../../../../pic32mx/lib/size/libc.a(lib_a-locale.o)
 .data.__mb_cur_max.__mb_cur_max
                0x00000000        0x4 /home/ishyro/.arduino15/packages/chipKIT/tools/pic32-tools/1.43-pic32gcc/bin/bin/../../lib/gcc/pic32mx/4.8.3/../../../../pic32mx/lib/size/libc.a(lib_a-locale.o)
 .bss.__nlocale_changed.__nlocale_changed
                0x00000000        0x4 /home/ishyro/.arduino15/packages/chipKIT/tools/pic32-tools/1.43-pic32gcc/bin/bin/../../lib/gcc/pic32mx/4.8.3/../../../../pic32mx/lib/size/libc.a(lib_a-locale.o)
 .bss.__mlocale_changed.__mlocale_changed
                0x00000000        0x4 /home/ishyro/.arduino15/packages/chipKIT/tools/pic32-tools/1.43-pic32gcc/bin/bin/../../lib/gcc/pic32mx/4.8.3/../../../../pic32mx/lib/size/libc.a(lib_a-locale.o)
 .bss._PathLocale._PathLocale
                0x00000000        0x4 /home/ishyro/.arduino15/packages/chipKIT/tools/pic32-tools/1.43-pic32gcc/bin/bin/../../lib/gcc/pic32mx/4.8.3/../../../../pic32mx/lib/size/libc.a(lib_a-locale.o)
 .data.lc_ctype_charset.lc_ctype_charset
                0x00000000       0x20 /home/ishyro/.arduino15/packages/chipKIT/tools/pic32-tools/1.43-pic32gcc/bin/bin/../../lib/gcc/pic32mx/4.8.3/../../../../pic32mx/lib/size/libc.a(lib_a-locale.o)
 .data.lc_message_charset.lc_message_charset
                0x00000000       0x20 /home/ishyro/.arduino15/packages/chipKIT/tools/pic32-tools/1.43-pic32gcc/bin/bin/../../lib/gcc/pic32mx/4.8.3/../../../../pic32mx/lib/size/libc.a(lib_a-locale.o)
 .bss.lc_ctype_cjk_lang.lc_ctype_cjk_lang
                0x00000000        0x4 /home/ishyro/.arduino15/packages/chipKIT/tools/pic32-tools/1.43-pic32gcc/bin/bin/../../lib/gcc/pic32mx/4.8.3/../../../../pic32mx/lib/size/libc.a(lib_a-locale.o)
 .text._setlocale_r
                0x00000000       0x80 /home/ishyro/.arduino15/packages/chipKIT/tools/pic32-tools/1.43-pic32gcc/bin/bin/../../lib/gcc/pic32mx/4.8.3/../../../../pic32mx/lib/size/libc.a(lib_a-locale.o)
 .text.__locale_charset
                0x00000000        0xc /home/ishyro/.arduino15/packages/chipKIT/tools/pic32-tools/1.43-pic32gcc/bin/bin/../../lib/gcc/pic32mx/4.8.3/../../../../pic32mx/lib/size/libc.a(lib_a-locale.o)
 .text.__locale_mb_cur_max
                0x00000000        0xc /home/ishyro/.arduino15/packages/chipKIT/tools/pic32-tools/1.43-pic32gcc/bin/bin/../../lib/gcc/pic32mx/4.8.3/../../../../pic32mx/lib/size/libc.a(lib_a-locale.o)
 .text.__locale_msgcharset
                0x00000000        0xc /home/ishyro/.arduino15/packages/chipKIT/tools/pic32-tools/1.43-pic32gcc/bin/bin/../../lib/gcc/pic32mx/4.8.3/../../../../pic32mx/lib/size/libc.a(lib_a-locale.o)
 .text.__locale_cjk_lang
                0x00000000        0xc /home/ishyro/.arduino15/packages/chipKIT/tools/pic32-tools/1.43-pic32gcc/bin/bin/../../lib/gcc/pic32mx/4.8.3/../../../../pic32mx/lib/size/libc.a(lib_a-locale.o)
 .text.setlocale
                0x00000000       0x2c /home/ishyro/.arduino15/packages/chipKIT/tools/pic32-tools/1.43-pic32gcc/bin/bin/../../lib/gcc/pic32mx/4.8.3/../../../../pic32mx/lib/size/libc.a(lib_a-locale.o)
 .text.localeconv
                0x00000000        0xc /home/ishyro/.arduino15/packages/chipKIT/tools/pic32-tools/1.43-pic32gcc/bin/bin/../../lib/gcc/pic32mx/4.8.3/../../../../pic32mx/lib/size/libc.a(lib_a-locale.o)
 .text          0x00000000        0x0 /home/ishyro/.arduino15/packages/chipKIT/tools/pic32-tools/1.43-pic32gcc/bin/bin/../../lib/gcc/pic32mx/4.8.3/../../../../pic32mx/lib/size/libc.a(lib_a-memchr.o)
 .data          0x00000000        0x0 /home/ishyro/.arduino15/packages/chipKIT/tools/pic32-tools/1.43-pic32gcc/bin/bin/../../lib/gcc/pic32mx/4.8.3/../../../../pic32mx/lib/size/libc.a(lib_a-memchr.o)
 .bss           0x00000000        0x0 /home/ishyro/.arduino15/packages/chipKIT/tools/pic32-tools/1.43-pic32gcc/bin/bin/../../lib/gcc/pic32mx/4.8.3/../../../../pic32mx/lib/size/libc.a(lib_a-memchr.o)
 .reginfo       0x00000000       0x18 /home/ishyro/.arduino15/packages/chipKIT/tools/pic32-tools/1.43-pic32gcc/bin/bin/../../lib/gcc/pic32mx/4.8.3/../../../../pic32mx/lib/size/libc.a(lib_a-memchr.o)
 .text          0x00000000        0x0 /home/ishyro/.arduino15/packages/chipKIT/tools/pic32-tools/1.43-pic32gcc/bin/bin/../../lib/gcc/pic32mx/4.8.3/../../../../pic32mx/lib/size/libc.a(lib_a-mprec.o)
 .data          0x00000000        0x0 /home/ishyro/.arduino15/packages/chipKIT/tools/pic32-tools/1.43-pic32gcc/bin/bin/../../lib/gcc/pic32mx/4.8.3/../../../../pic32mx/lib/size/libc.a(lib_a-mprec.o)
 .bss           0x00000000        0x0 /home/ishyro/.arduino15/packages/chipKIT/tools/pic32-tools/1.43-pic32gcc/bin/bin/../../lib/gcc/pic32mx/4.8.3/../../../../pic32mx/lib/size/libc.a(lib_a-mprec.o)
 .reginfo       0x00000000       0x18 /home/ishyro/.arduino15/packages/chipKIT/tools/pic32-tools/1.43-pic32gcc/bin/bin/../../lib/gcc/pic32mx/4.8.3/../../../../pic32mx/lib/size/libc.a(lib_a-mprec.o)
 .text.__s2b    0x00000000      0x118 /home/ishyro/.arduino15/packages/chipKIT/tools/pic32-tools/1.43-pic32gcc/bin/bin/../../lib/gcc/pic32mx/4.8.3/../../../../pic32mx/lib/size/libc.a(lib_a-mprec.o)
 .text.__ulp    0x00000000       0x60 /home/ishyro/.arduino15/packages/chipKIT/tools/pic32-tools/1.43-pic32gcc/bin/bin/../../lib/gcc/pic32mx/4.8.3/../../../../pic32mx/lib/size/libc.a(lib_a-mprec.o)
 .text.__b2d    0x00000000       0xe8 /home/ishyro/.arduino15/packages/chipKIT/tools/pic32-tools/1.43-pic32gcc/bin/bin/../../lib/gcc/pic32mx/4.8.3/../../../../pic32mx/lib/size/libc.a(lib_a-mprec.o)
 .text.__ratio  0x00000000       0x90 /home/ishyro/.arduino15/packages/chipKIT/tools/pic32-tools/1.43-pic32gcc/bin/bin/../../lib/gcc/pic32mx/4.8.3/../../../../pic32mx/lib/size/libc.a(lib_a-mprec.o)
 .rodata.__mprec_tinytens.__mprec_tinytens
                0x00000000       0x28 /home/ishyro/.arduino15/packages/chipKIT/tools/pic32-tools/1.43-pic32gcc/bin/bin/../../lib/gcc/pic32mx/4.8.3/../../../../pic32mx/lib/size/libc.a(lib_a-mprec.o)
 .text._mprec_log10
                0x00000000       0x9c /home/ishyro/.arduino15/packages/chipKIT/tools/pic32-tools/1.43-pic32gcc/bin/bin/../../lib/gcc/pic32mx/4.8.3/../../../../pic32mx/lib/size/libc.a(lib_a-mprec.o)
 .text.__copybits
                0x00000000       0x5c /home/ishyro/.arduino15/packages/chipKIT/tools/pic32-tools/1.43-pic32gcc/bin/bin/../../lib/gcc/pic32mx/4.8.3/../../../../pic32mx/lib/size/libc.a(lib_a-mprec.o)
 .text.__any_on
                0x00000000       0x88 /home/ishyro/.arduino15/packages/chipKIT/tools/pic32-tools/1.43-pic32gcc/bin/bin/../../lib/gcc/pic32mx/4.8.3/../../../../pic32mx/lib/size/libc.a(lib_a-mprec.o)
 .rodata        0x00000000       0x10 /home/ishyro/.arduino15/packages/chipKIT/tools/pic32-tools/1.43-pic32gcc/bin/bin/../../lib/gcc/pic32mx/4.8.3/../../../../pic32mx/lib/size/libc.a(lib_a-mprec.o)
 .text          0x00000000        0x0 /home/ishyro/.arduino15/packages/chipKIT/tools/pic32-tools/1.43-pic32gcc/bin/bin/../../lib/gcc/pic32mx/4.8.3/../../../../pic32mx/lib/size/libc.a(lib_a-reent.o)
 .data          0x00000000        0x0 /home/ishyro/.arduino15/packages/chipKIT/tools/pic32-tools/1.43-pic32gcc/bin/bin/../../lib/gcc/pic32mx/4.8.3/../../../../pic32mx/lib/size/libc.a(lib_a-reent.o)
 .bss           0x00000000        0x0 /home/ishyro/.arduino15/packages/chipKIT/tools/pic32-tools/1.43-pic32gcc/bin/bin/../../lib/gcc/pic32mx/4.8.3/../../../../pic32mx/lib/size/libc.a(lib_a-reent.o)
 .reginfo       0x00000000       0x18 /home/ishyro/.arduino15/packages/chipKIT/tools/pic32-tools/1.43-pic32gcc/bin/bin/../../lib/gcc/pic32mx/4.8.3/../../../../pic32mx/lib/size/libc.a(lib_a-reent.o)
 .text.cleanup_glue
                0x00000000       0x48 /home/ishyro/.arduino15/packages/chipKIT/tools/pic32-tools/1.43-pic32gcc/bin/bin/../../lib/gcc/pic32mx/4.8.3/../../../../pic32mx/lib/size/libc.a(lib_a-reent.o)
 .text._reclaim_reent
                0x00000000      0x118 /home/ishyro/.arduino15/packages/chipKIT/tools/pic32-tools/1.43-pic32gcc/bin/bin/../../lib/gcc/pic32mx/4.8.3/../../../../pic32mx/lib/size/libc.a(lib_a-reent.o)
 .text._wrapup_reent
                0x00000000       0x7c /home/ishyro/.arduino15/packages/chipKIT/tools/pic32-tools/1.43-pic32gcc/bin/bin/../../lib/gcc/pic32mx/4.8.3/../../../../pic32mx/lib/size/libc.a(lib_a-reent.o)
 .text          0x00000000        0x0 /home/ishyro/.arduino15/packages/chipKIT/tools/pic32-tools/1.43-pic32gcc/bin/bin/../../lib/gcc/pic32mx/4.8.3/../../../../pic32mx/lib/size/libc.a(lib_a-svfiprintf.o)
 .data          0x00000000        0x0 /home/ishyro/.arduino15/packages/chipKIT/tools/pic32-tools/1.43-pic32gcc/bin/bin/../../lib/gcc/pic32mx/4.8.3/../../../../pic32mx/lib/size/libc.a(lib_a-svfiprintf.o)
 .bss           0x00000000        0x0 /home/ishyro/.arduino15/packages/chipKIT/tools/pic32-tools/1.43-pic32gcc/bin/bin/../../lib/gcc/pic32mx/4.8.3/../../../../pic32mx/lib/size/libc.a(lib_a-svfiprintf.o)
 .reginfo       0x00000000       0x18 /home/ishyro/.arduino15/packages/chipKIT/tools/pic32-tools/1.43-pic32gcc/bin/bin/../../lib/gcc/pic32mx/4.8.3/../../../../pic32mx/lib/size/libc.a(lib_a-svfiprintf.o)
 .rodata        0x00000000       0x28 /home/ishyro/.arduino15/packages/chipKIT/tools/pic32-tools/1.43-pic32gcc/bin/bin/../../lib/gcc/pic32mx/4.8.3/../../../../pic32mx/lib/size/libc.a(lib_a-svfiprintf.o)
 .text._svfiprintf_r
                0x00000000      0xc9c /home/ishyro/.arduino15/packages/chipKIT/tools/pic32-tools/1.43-pic32gcc/bin/bin/../../lib/gcc/pic32mx/4.8.3/../../../../pic32mx/lib/size/libc.a(lib_a-svfiprintf.o)
 .rodata.blanks.4025.blanks
                0x00000000       0x10 /home/ishyro/.arduino15/packages/chipKIT/tools/pic32-tools/1.43-pic32gcc/bin/bin/../../lib/gcc/pic32mx/4.8.3/../../../../pic32mx/lib/size/libc.a(lib_a-svfiprintf.o)
 .rodata.zeroes.4026.zeroes
                0x00000000       0x10 /home/ishyro/.arduino15/packages/chipKIT/tools/pic32-tools/1.43-pic32gcc/bin/bin/../../lib/gcc/pic32mx/4.8.3/../../../../pic32mx/lib/size/libc.a(lib_a-svfiprintf.o)
 .text          0x00000000        0x0 /home/ishyro/.arduino15/packages/chipKIT/tools/pic32-tools/1.43-pic32gcc/bin/bin/../../lib/gcc/pic32mx/4.8.3/../../../../pic32mx/lib/size/libc.a(lib_a-callocr.o)
 .data          0x00000000        0x0 /home/ishyro/.arduino15/packages/chipKIT/tools/pic32-tools/1.43-pic32gcc/bin/bin/../../lib/gcc/pic32mx/4.8.3/../../../../pic32mx/lib/size/libc.a(lib_a-callocr.o)
 .bss           0x00000000        0x0 /home/ishyro/.arduino15/packages/chipKIT/tools/pic32-tools/1.43-pic32gcc/bin/bin/../../lib/gcc/pic32mx/4.8.3/../../../../pic32mx/lib/size/libc.a(lib_a-callocr.o)
 .reginfo       0x00000000       0x18 /home/ishyro/.arduino15/packages/chipKIT/tools/pic32-tools/1.43-pic32gcc/bin/bin/../../lib/gcc/pic32mx/4.8.3/../../../../pic32mx/lib/size/libc.a(lib_a-callocr.o)
 .text          0x00000000        0x0 /home/ishyro/.arduino15/packages/chipKIT/tools/pic32-tools/1.43-pic32gcc/bin/bin/../../lib/gcc/pic32mx/4.8.3/../../../../pic32mx/lib/size/libc.a(lib_a-memset.o)
 .data          0x00000000        0x0 /home/ishyro/.arduino15/packages/chipKIT/tools/pic32-tools/1.43-pic32gcc/bin/bin/../../lib/gcc/pic32mx/4.8.3/../../../../pic32mx/lib/size/libc.a(lib_a-memset.o)
 .bss           0x00000000        0x0 /home/ishyro/.arduino15/packages/chipKIT/tools/pic32-tools/1.43-pic32gcc/bin/bin/../../lib/gcc/pic32mx/4.8.3/../../../../pic32mx/lib/size/libc.a(lib_a-memset.o)
 .reginfo       0x00000000       0x18 /home/ishyro/.arduino15/packages/chipKIT/tools/pic32-tools/1.43-pic32gcc/bin/bin/../../lib/gcc/pic32mx/4.8.3/../../../../pic32mx/lib/size/libc.a(lib_a-memset.o)
 .text          0x00000000        0x0 /home/ishyro/.arduino15/packages/chipKIT/tools/pic32-tools/1.43-pic32gcc/bin/bin/../../lib/gcc/pic32mx/4.8.3/../../../../pic32mx/lib/size/libc.a(lib_a-reallocr.o)
 .data          0x00000000        0x0 /home/ishyro/.arduino15/packages/chipKIT/tools/pic32-tools/1.43-pic32gcc/bin/bin/../../lib/gcc/pic32mx/4.8.3/../../../../pic32mx/lib/size/libc.a(lib_a-reallocr.o)
 .bss           0x00000000        0x0 /home/ishyro/.arduino15/packages/chipKIT/tools/pic32-tools/1.43-pic32gcc/bin/bin/../../lib/gcc/pic32mx/4.8.3/../../../../pic32mx/lib/size/libc.a(lib_a-reallocr.o)
 .reginfo       0x00000000       0x18 /home/ishyro/.arduino15/packages/chipKIT/tools/pic32-tools/1.43-pic32gcc/bin/bin/../../lib/gcc/pic32mx/4.8.3/../../../../pic32mx/lib/size/libc.a(lib_a-reallocr.o)
 .text          0x00000000        0x0 /home/ishyro/.arduino15/packages/chipKIT/tools/pic32-tools/1.43-pic32gcc/bin/bin/../../lib/gcc/pic32mx/4.8.3/../../../../pic32mx/lib/size/libpic32.a(sbrk.o)
 .data          0x00000000        0x0 /home/ishyro/.arduino15/packages/chipKIT/tools/pic32-tools/1.43-pic32gcc/bin/bin/../../lib/gcc/pic32mx/4.8.3/../../../../pic32mx/lib/size/libpic32.a(sbrk.o)
 .bss           0x00000000        0x0 /home/ishyro/.arduino15/packages/chipKIT/tools/pic32-tools/1.43-pic32gcc/bin/bin/../../lib/gcc/pic32mx/4.8.3/../../../../pic32mx/lib/size/libpic32.a(sbrk.o)
 .reginfo       0x00000000       0x18 /home/ishyro/.arduino15/packages/chipKIT/tools/pic32-tools/1.43-pic32gcc/bin/bin/../../lib/gcc/pic32mx/4.8.3/../../../../pic32mx/lib/size/libpic32.a(sbrk.o)
 .text.getpagesize
                0x00000000        0x8 /home/ishyro/.arduino15/packages/chipKIT/tools/pic32-tools/1.43-pic32gcc/bin/bin/../../lib/gcc/pic32mx/4.8.3/../../../../pic32mx/lib/size/libpic32.a(sbrk.o)
 .text          0x00000000        0x0 /home/ishyro/.arduino15/packages/chipKIT/tools/pic32-tools/1.43-pic32gcc/bin/bin/../../lib/gcc/pic32mx/4.8.3/../../../../pic32mx/lib/size/libpic32.a(default-bootstrap-exception-handler.o)
 .data          0x00000000        0x0 /home/ishyro/.arduino15/packages/chipKIT/tools/pic32-tools/1.43-pic32gcc/bin/bin/../../lib/gcc/pic32mx/4.8.3/../../../../pic32mx/lib/size/libpic32.a(default-bootstrap-exception-handler.o)
 .bss           0x00000000        0x0 /home/ishyro/.arduino15/packages/chipKIT/tools/pic32-tools/1.43-pic32gcc/bin/bin/../../lib/gcc/pic32mx/4.8.3/../../../../pic32mx/lib/size/libpic32.a(default-bootstrap-exception-handler.o)
 .reginfo       0x00000000       0x18 /home/ishyro/.arduino15/packages/chipKIT/tools/pic32-tools/1.43-pic32gcc/bin/bin/../../lib/gcc/pic32mx/4.8.3/../../../../pic32mx/lib/size/libpic32.a(default-bootstrap-exception-handler.o)
 .text          0x00000000        0x0 /home/ishyro/.arduino15/packages/chipKIT/tools/pic32-tools/1.43-pic32gcc/bin/bin/../../lib/gcc/pic32mx/4.8.3/../../../../pic32mx/lib/size/libpic32.a(default-on-reset.o)
 .data          0x00000000        0x0 /home/ishyro/.arduino15/packages/chipKIT/tools/pic32-tools/1.43-pic32gcc/bin/bin/../../lib/gcc/pic32mx/4.8.3/../../../../pic32mx/lib/size/libpic32.a(default-on-reset.o)
 .bss           0x00000000        0x0 /home/ishyro/.arduino15/packages/chipKIT/tools/pic32-tools/1.43-pic32gcc/bin/bin/../../lib/gcc/pic32mx/4.8.3/../../../../pic32mx/lib/size/libpic32.a(default-on-reset.o)
 .reginfo       0x00000000       0x18 /home/ishyro/.arduino15/packages/chipKIT/tools/pic32-tools/1.43-pic32gcc/bin/bin/../../lib/gcc/pic32mx/4.8.3/../../../../pic32mx/lib/size/libpic32.a(default-on-reset.o)
 .text          0x00000000        0x0 /home/ishyro/.arduino15/packages/chipKIT/tools/pic32-tools/1.43-pic32gcc/bin/bin/../../lib/gcc/pic32mx/4.8.3/../../../../pic32mx/lib/size/libpic32.a(default-on-bootstrap.o)
 .data          0x00000000        0x0 /home/ishyro/.arduino15/packages/chipKIT/tools/pic32-tools/1.43-pic32gcc/bin/bin/../../lib/gcc/pic32mx/4.8.3/../../../../pic32mx/lib/size/libpic32.a(default-on-bootstrap.o)
 .bss           0x00000000        0x0 /home/ishyro/.arduino15/packages/chipKIT/tools/pic32-tools/1.43-pic32gcc/bin/bin/../../lib/gcc/pic32mx/4.8.3/../../../../pic32mx/lib/size/libpic32.a(default-on-bootstrap.o)
 .reginfo       0x00000000       0x18 /home/ishyro/.arduino15/packages/chipKIT/tools/pic32-tools/1.43-pic32gcc/bin/bin/../../lib/gcc/pic32mx/4.8.3/../../../../pic32mx/lib/size/libpic32.a(default-on-bootstrap.o)
 .data          0x00000000        0x0 /home/ishyro/.arduino15/packages/chipKIT/tools/pic32-tools/1.43-pic32gcc/bin/bin/../../lib/gcc/pic32mx/4.8.3/../../../../pic32mx/lib/size/libpic32.a(default-nmi-handler.o)
 .bss           0x00000000        0x0 /home/ishyro/.arduino15/packages/chipKIT/tools/pic32-tools/1.43-pic32gcc/bin/bin/../../lib/gcc/pic32mx/4.8.3/../../../../pic32mx/lib/size/libpic32.a(default-nmi-handler.o)
 .reginfo       0x00000000       0x18 /home/ishyro/.arduino15/packages/chipKIT/tools/pic32-tools/1.43-pic32gcc/bin/bin/../../lib/gcc/pic32mx/4.8.3/../../../../pic32mx/lib/size/libpic32.a(default-nmi-handler.o)
 .text          0x00000000        0x0 /home/ishyro/.arduino15/packages/chipKIT/tools/pic32-tools/1.43-pic32gcc/bin/bin/../../lib/gcc/pic32mx/4.8.3/../../../../pic32mx/lib/size/libpic32.a(_exit.o)
 .data          0x00000000        0x0 /home/ishyro/.arduino15/packages/chipKIT/tools/pic32-tools/1.43-pic32gcc/bin/bin/../../lib/gcc/pic32mx/4.8.3/../../../../pic32mx/lib/size/libpic32.a(_exit.o)
 .bss           0x00000000        0x0 /home/ishyro/.arduino15/packages/chipKIT/tools/pic32-tools/1.43-pic32gcc/bin/bin/../../lib/gcc/pic32mx/4.8.3/../../../../pic32mx/lib/size/libpic32.a(_exit.o)
 .reginfo       0x00000000       0x18 /home/ishyro/.arduino15/packages/chipKIT/tools/pic32-tools/1.43-pic32gcc/bin/bin/../../lib/gcc/pic32mx/4.8.3/../../../../pic32mx/lib/size/libpic32.a(_exit.o)
 .text._exit    0x00000000        0x8 /home/ishyro/.arduino15/packages/chipKIT/tools/pic32-tools/1.43-pic32gcc/bin/bin/../../lib/gcc/pic32mx/4.8.3/../../../../pic32mx/lib/size/libpic32.a(_exit.o)
 .text          0x00000000        0x0 /home/ishyro/.arduino15/packages/chipKIT/tools/pic32-tools/1.43-pic32gcc/bin/bin/../../lib/gcc/pic32mx/4.8.3/../../../../pic32mx/lib/size/libpic32.a(kill.o)
 .data          0x00000000        0x0 /home/ishyro/.arduino15/packages/chipKIT/tools/pic32-tools/1.43-pic32gcc/bin/bin/../../lib/gcc/pic32mx/4.8.3/../../../../pic32mx/lib/size/libpic32.a(kill.o)
 .bss           0x00000000        0x0 /home/ishyro/.arduino15/packages/chipKIT/tools/pic32-tools/1.43-pic32gcc/bin/bin/../../lib/gcc/pic32mx/4.8.3/../../../../pic32mx/lib/size/libpic32.a(kill.o)
 .reginfo       0x00000000       0x18 /home/ishyro/.arduino15/packages/chipKIT/tools/pic32-tools/1.43-pic32gcc/bin/bin/../../lib/gcc/pic32mx/4.8.3/../../../../pic32mx/lib/size/libpic32.a(kill.o)
 .text.kill     0x00000000        0x8 /home/ishyro/.arduino15/packages/chipKIT/tools/pic32-tools/1.43-pic32gcc/bin/bin/../../lib/gcc/pic32mx/4.8.3/../../../../pic32mx/lib/size/libpic32.a(kill.o)
 .text          0x00000000        0x0 /home/ishyro/.arduino15/packages/chipKIT/tools/pic32-tools/1.43-pic32gcc/bin/bin/../../lib/gcc/pic32mx/4.8.3/../../../../pic32mx/lib/size/libpic32.a(getpid.o)
 .data          0x00000000        0x0 /home/ishyro/.arduino15/packages/chipKIT/tools/pic32-tools/1.43-pic32gcc/bin/bin/../../lib/gcc/pic32mx/4.8.3/../../../../pic32mx/lib/size/libpic32.a(getpid.o)
 .bss           0x00000000        0x0 /home/ishyro/.arduino15/packages/chipKIT/tools/pic32-tools/1.43-pic32gcc/bin/bin/../../lib/gcc/pic32mx/4.8.3/../../../../pic32mx/lib/size/libpic32.a(getpid.o)
 .reginfo       0x00000000       0x18 /home/ishyro/.arduino15/packages/chipKIT/tools/pic32-tools/1.43-pic32gcc/bin/bin/../../lib/gcc/pic32mx/4.8.3/../../../../pic32mx/lib/size/libpic32.a(getpid.o)
 .text.getpid   0x00000000        0x8 /home/ishyro/.arduino15/packages/chipKIT/tools/pic32-tools/1.43-pic32gcc/bin/bin/../../lib/gcc/pic32mx/4.8.3/../../../../pic32mx/lib/size/libpic32.a(getpid.o)
 .data          0x00000000        0x0 /home/ishyro/.arduino15/packages/chipKIT/tools/pic32-tools/1.43-pic32gcc/bin/bin/../../lib/gcc/pic32mx/4.8.3/size/libgcc.a(_udivdi3.o)
 .bss           0x00000000        0x0 /home/ishyro/.arduino15/packages/chipKIT/tools/pic32-tools/1.43-pic32gcc/bin/bin/../../lib/gcc/pic32mx/4.8.3/size/libgcc.a(_udivdi3.o)
 .reginfo       0x00000000       0x18 /home/ishyro/.arduino15/packages/chipKIT/tools/pic32-tools/1.43-pic32gcc/bin/bin/../../lib/gcc/pic32mx/4.8.3/size/libgcc.a(_udivdi3.o)
 .data          0x00000000        0x0 /home/ishyro/.arduino15/packages/chipKIT/tools/pic32-tools/1.43-pic32gcc/bin/bin/../../lib/gcc/pic32mx/4.8.3/size/libgcc.a(_umoddi3.o)
 .bss           0x00000000        0x0 /home/ishyro/.arduino15/packages/chipKIT/tools/pic32-tools/1.43-pic32gcc/bin/bin/../../lib/gcc/pic32mx/4.8.3/size/libgcc.a(_umoddi3.o)
 .reginfo       0x00000000       0x18 /home/ishyro/.arduino15/packages/chipKIT/tools/pic32-tools/1.43-pic32gcc/bin/bin/../../lib/gcc/pic32mx/4.8.3/size/libgcc.a(_umoddi3.o)

Memory Configuration

Name             Origin             Length             Attributes
exception_mem    0x9d000000         0x00001000
kseg0_program_mem 0x9d001000         0x0001d000         xr
kseg0_eeprom_mem 0x9d01e000         0x00001000
kseg0_splitflash_mem 0x9d01f000         0x00001000
kseg0_boot_mem   0x9fc00200         0x00000000
kseg1_boot_mem   0xbfc00000         0x00000000
debug_exec_mem   0xbfc00490         0x00000000
config3          0xbfc00bf0         0x00000004
config2          0xbfc00bf4         0x00000004
config1          0xbfc00bf8         0x00000004
config0          0xbfc00bfc         0x00000004
kseg1_data_mem   0xa0000000         0x00008000         w !x
sfrs             0xbf800000         0x00100000
configsfrs       0xbfc00bf0         0x00000010
*default*        0x00000000         0xffffffff

Linker script and memory map

                0x00000001                _DEBUGGER = 0x1
LOAD /tmp/ccpHnSIR.o
LOAD /home/ishyro/Documents/Info/M1/S2/OMicroB-next/src/byterun/pic32/Board_Data.o
LOAD /tmp/cc94H11c.o
LOAD /tmp/cc1iCQly.o
LOAD /tmp/ccqWBQHT.o
LOAD /tmp/cc5bvK4e.o
LOAD /home/ishyro/Documents/Info/M1/S2/OMicroB-next/src/byterun/pic32/cores/core.a
LOAD /home/ishyro/.arduino15/packages/chipKIT/tools/pic32-tools/1.43-pic32gcc/bin/bin/../../lib/gcc/pic32mx/4.8.3/../../../../pic32mx/lib/size/libsupc++.a
LOAD /home/ishyro/.arduino15/packages/chipKIT/tools/pic32-tools/1.43-pic32gcc/bin/bin/../../lib/gcc/pic32mx/4.8.3/../../../../pic32mx/lib/size/libm.a
                0x00000800                PROVIDE (_min_stack_size, 0x800)
                0x00000800                PROVIDE (_min_heap_size, 0x800)
LOAD /home/ishyro/.arduino15/packages/chipKIT/tools/pic32-tools/1.43-pic32gcc/bin/bin/../../lib/gcc/pic32mx/4.8.3/../../../../pic32mx/lib/./proc/32MX250F128D/processor.o
START GROUP
LOAD libmchp_peripheral_32MX250F128D.a
END GROUP
                0x9d000000                _ebase_address = ORIGIN (exception_mem)
                0x9d0000f8                _IMAGE_PTR_TABLE = (_ebase_address + 0xf8)
                0x9d0000fc                _IMAGE_HEADER_ADDR = (_ebase_address + 0xfc)
                0x9d000180                _GEN_EXCPT_ADDR = (_ebase_address + 0x180)
                0x9d001000                _RESET_ADDR = ORIGIN (kseg0_program_mem)
                0x9d01e000                _EEPROM_ADDR = ORIGIN (kseg0_eeprom_mem)
                0xbfc00380                _BEV_EXCPT_ADDR = 0xbfc00380
                0xbfc00480                _DBG_EXCPT_ADDR = 0xbfc00480
                0xbfc00490                _DBG_CODE_ADDR = ORIGIN (debug_exec_mem)
                0x00000000                _imageReserved = 0x0
                0x00000001                _imageMPIDE = 0x1
                0x00000002                _imageBootFlashBootloader = 0x2
                0x00000004                _imageProgramFlashBootloader = 0x4
                0x00000008                _imageSplitFlashBootloader = 0x8
                0x00010000                _imageFullFlashEraseLess4KEEProm = 0x10000
                0x00020000                _imageJustInTimeFlashErase = 0x20000
                0x00040000                _imageLinkerSpecifiedFlashErase = 0x40000
                0x00080000                _imageFullFlashErase = 0x80000
                0x01000000                _imageExecutionJumpAddress = 0x1000000
                0x02000000                _imageExecutionJumpToFirstInFlash = 0x2000000
                0x01020001                _IMAGE_TYPE = ((_imageMPIDE | _imageJustInTimeFlashErase) | _imageExecutionJumpAddress)
                0x0001e000                _IMAGE_FLASH_SIZE = 0x1e000
                0x9d001000                _JUMP_ADDR = _RESET_ADDR

.reset          0x9d001000        0x8
 *(.reset)
 .reset         0x9d001000        0x8 /tmp/ccqWBQHT.o
                0x9d001000                _reset
                0x00000001                PROVIDE (_vector_spacing, 0x1)
LOAD /home/ishyro/.arduino15/packages/chipKIT/tools/pic32-tools/1.43-pic32gcc/bin/bin/../../lib/gcc/pic32mx/4.8.3/size/crtbegin.o
LOAD /home/ishyro/.arduino15/packages/chipKIT/tools/pic32-tools/1.43-pic32gcc/bin/bin/../../lib/gcc/pic32mx/4.8.3/size/crtend.o
LOAD /home/ishyro/.arduino15/packages/chipKIT/tools/pic32-tools/1.43-pic32gcc/bin/bin/../../lib/gcc/pic32mx/4.8.3/size/crtn.o
START GROUP
LOAD libmchp_peripheral.a
END GROUP

/DISCARD/
 *(.config_*)
 *(.bev_handler)
 *(.pdr)
 *(.reginfo)
 *(.rel.dyn)
 *(.note.GNU-stack)
 *(.note.GNU-stack)
 *(.gnu_debuglink)
 *(.gnu.lto_*)
 *(.discard)

.eeprom_pic32
 *(.eeprom_pic32 .eeprom_pic32.*)

.image_ptr_table
                0x9d0000f8        0x8
                0x9d0000f8        0x4 LONG 0x9d000000 _ebase_address
                0x9d0000fc        0x4 LONG 0x9d001430 _image_header_info

.app_excpt      0x9d000180       0x10
 *(.gen_handler)
 .gen_handler   0x9d000180       0x10 /tmp/ccqWBQHT.o

.vector_0       0x9d000200       0x14
                0x9d000200                _new_vector_0 = .
 *(.vector_new_0)
 .vector_new_0  0x9d000200       0x14 /home/ishyro/Documents/Info/M1/S2/OMicroB-next/src/byterun/pic32/cores/core.a(vector_table.S.o)
                0x9d000200                __vector_0
                0x9d000214                _original_vector_0 = .
 *(.vector_0)
                0x00000001                ASSERT (((_vector_spacing == 0x0) || (SIZEOF (.vector_0) <= (_vector_spacing << 0x5))), function at exception vector 0 too large)

.vector_1       0x9d000220       0x14
 *(.vector_new_1)
 .vector_new_1  0x9d000220       0x14 /home/ishyro/Documents/Info/M1/S2/OMicroB-next/src/byterun/pic32/cores/core.a(vector_table.S.o)
                0x9d000220                __vector_1
 *(.vector_1)
                0x00000001                ASSERT (((_vector_spacing == 0x0) || (SIZEOF (.vector_1) <= (_vector_spacing << 0x5))), function at exception vector 1 too large)

.vector_2       0x9d000240       0x14
 *(.vector_new_2)
 .vector_new_2  0x9d000240       0x14 /home/ishyro/Documents/Info/M1/S2/OMicroB-next/src/byterun/pic32/cores/core.a(vector_table.S.o)
                0x9d000240                __vector_2
 *(.vector_2)
                0x00000001                ASSERT (((_vector_spacing == 0x0) || (SIZEOF (.vector_2) <= (_vector_spacing << 0x5))), function at exception vector 2 too large)

.vector_3       0x9d000260       0x14
 *(.vector_new_3)
 .vector_new_3  0x9d000260       0x14 /home/ishyro/Documents/Info/M1/S2/OMicroB-next/src/byterun/pic32/cores/core.a(vector_table.S.o)
                0x9d000260                __vector_3
 *(.vector_3)
                0x00000001                ASSERT (((_vector_spacing == 0x0) || (SIZEOF (.vector_3) <= (_vector_spacing << 0x5))), function at exception vector 3 too large)

.vector_4       0x9d000280       0x14
 *(.vector_new_4)
 .vector_new_4  0x9d000280       0x14 /home/ishyro/Documents/Info/M1/S2/OMicroB-next/src/byterun/pic32/cores/core.a(vector_table.S.o)
                0x9d000280                __vector_4
 *(.vector_4)
                0x00000001                ASSERT (((_vector_spacing == 0x0) || (SIZEOF (.vector_4) <= (_vector_spacing << 0x5))), function at exception vector 4 too large)

.vector_5       0x9d0002a0       0x14
 *(.vector_new_5)
 .vector_new_5  0x9d0002a0       0x14 /home/ishyro/Documents/Info/M1/S2/OMicroB-next/src/byterun/pic32/cores/core.a(vector_table.S.o)
                0x9d0002a0                __vector_5
 *(.vector_5)
                0x00000001                ASSERT (((_vector_spacing == 0x0) || (SIZEOF (.vector_5) <= (_vector_spacing << 0x5))), function at exception vector 5 too large)

.vector_6       0x9d0002c0       0x14
 *(.vector_new_6)
 .vector_new_6  0x9d0002c0       0x14 /home/ishyro/Documents/Info/M1/S2/OMicroB-next/src/byterun/pic32/cores/core.a(vector_table.S.o)
                0x9d0002c0                __vector_6
 *(.vector_6)
                0x00000001                ASSERT (((_vector_spacing == 0x0) || (SIZEOF (.vector_6) <= (_vector_spacing << 0x5))), function at exception vector 6 too large)

.vector_7       0x9d0002e0       0x14
 *(.vector_new_7)
 .vector_new_7  0x9d0002e0       0x14 /home/ishyro/Documents/Info/M1/S2/OMicroB-next/src/byterun/pic32/cores/core.a(vector_table.S.o)
                0x9d0002e0                __vector_7
 *(.vector_7)
                0x00000001                ASSERT (((_vector_spacing == 0x0) || (SIZEOF (.vector_7) <= (_vector_spacing << 0x5))), function at exception vector 7 too large)

.vector_8       0x9d000300       0x14
 *(.vector_new_8)
 .vector_new_8  0x9d000300       0x14 /home/ishyro/Documents/Info/M1/S2/OMicroB-next/src/byterun/pic32/cores/core.a(vector_table.S.o)
                0x9d000300                __vector_8
 *(.vector_8)
                0x00000001                ASSERT (((_vector_spacing == 0x0) || (SIZEOF (.vector_8) <= (_vector_spacing << 0x5))), function at exception vector 8 too large)

.vector_9       0x9d000320       0x14
 *(.vector_new_9)
 .vector_new_9  0x9d000320       0x14 /home/ishyro/Documents/Info/M1/S2/OMicroB-next/src/byterun/pic32/cores/core.a(vector_table.S.o)
                0x9d000320                __vector_9
 *(.vector_9)
                0x00000001                ASSERT (((_vector_spacing == 0x0) || (SIZEOF (.vector_9) <= (_vector_spacing << 0x5))), function at exception vector 9 too large)

.vector_10      0x9d000340       0x14
 *(.vector_new_10)
 .vector_new_10
                0x9d000340       0x14 /home/ishyro/Documents/Info/M1/S2/OMicroB-next/src/byterun/pic32/cores/core.a(vector_table.S.o)
                0x9d000340                __vector_10
 *(.vector_10)
                0x00000001                ASSERT (((_vector_spacing == 0x0) || (SIZEOF (.vector_10) <= (_vector_spacing << 0x5))), function at exception vector 10 too large)

.vector_11      0x9d000360       0x14
 *(.vector_new_11)
 .vector_new_11
                0x9d000360       0x14 /home/ishyro/Documents/Info/M1/S2/OMicroB-next/src/byterun/pic32/cores/core.a(vector_table.S.o)
                0x9d000360                __vector_11
 *(.vector_11)
                0x00000001                ASSERT (((_vector_spacing == 0x0) || (SIZEOF (.vector_11) <= (_vector_spacing << 0x5))), function at exception vector 11 too large)

.vector_12      0x9d000380       0x14
 *(.vector_new_12)
 .vector_new_12
                0x9d000380       0x14 /home/ishyro/Documents/Info/M1/S2/OMicroB-next/src/byterun/pic32/cores/core.a(vector_table.S.o)
                0x9d000380                __vector_12
 *(.vector_12)
                0x00000001                ASSERT (((_vector_spacing == 0x0) || (SIZEOF (.vector_12) <= (_vector_spacing << 0x5))), function at exception vector 12 too large)

.vector_13      0x9d0003a0       0x14
 *(.vector_new_13)
 .vector_new_13
                0x9d0003a0       0x14 /home/ishyro/Documents/Info/M1/S2/OMicroB-next/src/byterun/pic32/cores/core.a(vector_table.S.o)
                0x9d0003a0                __vector_13
 *(.vector_13)
                0x00000001                ASSERT (((_vector_spacing == 0x0) || (SIZEOF (.vector_13) <= (_vector_spacing << 0x5))), function at exception vector 13 too large)

.vector_14      0x9d0003c0       0x14
 *(.vector_new_14)
 .vector_new_14
                0x9d0003c0       0x14 /home/ishyro/Documents/Info/M1/S2/OMicroB-next/src/byterun/pic32/cores/core.a(vector_table.S.o)
                0x9d0003c0                __vector_14
 *(.vector_14)
                0x00000001                ASSERT (((_vector_spacing == 0x0) || (SIZEOF (.vector_14) <= (_vector_spacing << 0x5))), function at exception vector 14 too large)

.vector_15      0x9d0003e0       0x14
 *(.vector_new_15)
 .vector_new_15
                0x9d0003e0       0x14 /home/ishyro/Documents/Info/M1/S2/OMicroB-next/src/byterun/pic32/cores/core.a(vector_table.S.o)
                0x9d0003e0                __vector_15
 *(.vector_15)
                0x00000001                ASSERT (((_vector_spacing == 0x0) || (SIZEOF (.vector_15) <= (_vector_spacing << 0x5))), function at exception vector 15 too large)

.vector_16      0x9d000400       0x14
 *(.vector_new_16)
 .vector_new_16
                0x9d000400       0x14 /home/ishyro/Documents/Info/M1/S2/OMicroB-next/src/byterun/pic32/cores/core.a(vector_table.S.o)
                0x9d000400                __vector_16
 *(.vector_16)
                0x00000001                ASSERT (((_vector_spacing == 0x0) || (SIZEOF (.vector_16) <= (_vector_spacing << 0x5))), function at exception vector 16 too large)

.vector_17      0x9d000420       0x14
 *(.vector_new_17)
 .vector_new_17
                0x9d000420       0x14 /home/ishyro/Documents/Info/M1/S2/OMicroB-next/src/byterun/pic32/cores/core.a(vector_table.S.o)
                0x9d000420                __vector_17
 *(.vector_17)
                0x00000001                ASSERT (((_vector_spacing == 0x0) || (SIZEOF (.vector_17) <= (_vector_spacing << 0x5))), function at exception vector 17 too large)

.vector_18      0x9d000440       0x14
 *(.vector_new_18)
 .vector_new_18
                0x9d000440       0x14 /home/ishyro/Documents/Info/M1/S2/OMicroB-next/src/byterun/pic32/cores/core.a(vector_table.S.o)
                0x9d000440                __vector_18
 *(.vector_18)
                0x00000001                ASSERT (((_vector_spacing == 0x0) || (SIZEOF (.vector_18) <= (_vector_spacing << 0x5))), function at exception vector 18 too large)

.vector_19      0x9d000460       0x14
 *(.vector_new_19)
 .vector_new_19
                0x9d000460       0x14 /home/ishyro/Documents/Info/M1/S2/OMicroB-next/src/byterun/pic32/cores/core.a(vector_table.S.o)
                0x9d000460                __vector_19
 *(.vector_19)
                0x00000001                ASSERT (((_vector_spacing == 0x0) || (SIZEOF (.vector_19) <= (_vector_spacing << 0x5))), function at exception vector 19 too large)

.vector_20      0x9d000480       0x14
 *(.vector_new_20)
 .vector_new_20
                0x9d000480       0x14 /home/ishyro/Documents/Info/M1/S2/OMicroB-next/src/byterun/pic32/cores/core.a(vector_table.S.o)
                0x9d000480                __vector_20
 *(.vector_20)
                0x00000001                ASSERT (((_vector_spacing == 0x0) || (SIZEOF (.vector_20) <= (_vector_spacing << 0x5))), function at exception vector 20 too large)

.vector_21      0x9d0004a0       0x14
 *(.vector_new_21)
 .vector_new_21
                0x9d0004a0       0x14 /home/ishyro/Documents/Info/M1/S2/OMicroB-next/src/byterun/pic32/cores/core.a(vector_table.S.o)
                0x9d0004a0                __vector_21
 *(.vector_21)
                0x00000001                ASSERT (((_vector_spacing == 0x0) || (SIZEOF (.vector_21) <= (_vector_spacing << 0x5))), function at exception vector 21 too large)

.vector_22      0x9d0004c0       0x14
 *(.vector_new_22)
 .vector_new_22
                0x9d0004c0       0x14 /home/ishyro/Documents/Info/M1/S2/OMicroB-next/src/byterun/pic32/cores/core.a(vector_table.S.o)
                0x9d0004c0                __vector_22
 *(.vector_22)
                0x00000001                ASSERT (((_vector_spacing == 0x0) || (SIZEOF (.vector_22) <= (_vector_spacing << 0x5))), function at exception vector 22 too large)

.vector_23      0x9d0004e0       0x14
 *(.vector_new_23)
 .vector_new_23
                0x9d0004e0       0x14 /home/ishyro/Documents/Info/M1/S2/OMicroB-next/src/byterun/pic32/cores/core.a(vector_table.S.o)
                0x9d0004e0                __vector_23
 *(.vector_23)
                0x00000001                ASSERT (((_vector_spacing == 0x0) || (SIZEOF (.vector_23) <= (_vector_spacing << 0x5))), function at exception vector 23 too large)

.vector_24      0x9d000500       0x14
 *(.vector_new_24)
 .vector_new_24
                0x9d000500       0x14 /home/ishyro/Documents/Info/M1/S2/OMicroB-next/src/byterun/pic32/cores/core.a(vector_table.S.o)
                0x9d000500                __vector_24
 *(.vector_24)
                0x00000001                ASSERT (((_vector_spacing == 0x0) || (SIZEOF (.vector_24) <= (_vector_spacing << 0x5))), function at exception vector 24 too large)

.vector_25      0x9d000520       0x14
 *(.vector_new_25)
 .vector_new_25
                0x9d000520       0x14 /home/ishyro/Documents/Info/M1/S2/OMicroB-next/src/byterun/pic32/cores/core.a(vector_table.S.o)
                0x9d000520                __vector_25
 *(.vector_25)
                0x00000001                ASSERT (((_vector_spacing == 0x0) || (SIZEOF (.vector_25) <= (_vector_spacing << 0x5))), function at exception vector 25 too large)

.vector_26      0x9d000540       0x14
 *(.vector_new_26)
 .vector_new_26
                0x9d000540       0x14 /home/ishyro/Documents/Info/M1/S2/OMicroB-next/src/byterun/pic32/cores/core.a(vector_table.S.o)
                0x9d000540                __vector_26
 *(.vector_26)
                0x00000001                ASSERT (((_vector_spacing == 0x0) || (SIZEOF (.vector_26) <= (_vector_spacing << 0x5))), function at exception vector 26 too large)

.vector_27      0x9d000560       0x14
 *(.vector_new_27)
 .vector_new_27
                0x9d000560       0x14 /home/ishyro/Documents/Info/M1/S2/OMicroB-next/src/byterun/pic32/cores/core.a(vector_table.S.o)
                0x9d000560                __vector_27
 *(.vector_27)
                0x00000001                ASSERT (((_vector_spacing == 0x0) || (SIZEOF (.vector_27) <= (_vector_spacing << 0x5))), function at exception vector 27 too large)

.vector_28      0x9d000580       0x14
 *(.vector_new_28)
 .vector_new_28
                0x9d000580       0x14 /home/ishyro/Documents/Info/M1/S2/OMicroB-next/src/byterun/pic32/cores/core.a(vector_table.S.o)
                0x9d000580                __vector_28
 *(.vector_28)
                0x00000001                ASSERT (((_vector_spacing == 0x0) || (SIZEOF (.vector_28) <= (_vector_spacing << 0x5))), function at exception vector 28 too large)

.vector_29      0x9d0005a0       0x14
 *(.vector_new_29)
 .vector_new_29
                0x9d0005a0       0x14 /home/ishyro/Documents/Info/M1/S2/OMicroB-next/src/byterun/pic32/cores/core.a(vector_table.S.o)
                0x9d0005a0                __vector_29
 *(.vector_29)
                0x00000001                ASSERT (((_vector_spacing == 0x0) || (SIZEOF (.vector_29) <= (_vector_spacing << 0x5))), function at exception vector 29 too large)

.vector_30      0x9d0005c0       0x14
 *(.vector_new_30)
 .vector_new_30
                0x9d0005c0       0x14 /home/ishyro/Documents/Info/M1/S2/OMicroB-next/src/byterun/pic32/cores/core.a(vector_table.S.o)
                0x9d0005c0                __vector_30
 *(.vector_30)
                0x00000001                ASSERT (((_vector_spacing == 0x0) || (SIZEOF (.vector_30) <= (_vector_spacing << 0x5))), function at exception vector 30 too large)

.vector_31      0x9d0005e0       0x14
 *(.vector_new_31)
 .vector_new_31
                0x9d0005e0       0x14 /home/ishyro/Documents/Info/M1/S2/OMicroB-next/src/byterun/pic32/cores/core.a(vector_table.S.o)
                0x9d0005e0                __vector_31
 *(.vector_31)
                0x00000001                ASSERT (((_vector_spacing == 0x0) || (SIZEOF (.vector_31) <= (_vector_spacing << 0x5))), function at exception vector 31 too large)

.vector_32      0x9d000600       0x14
 *(.vector_new_32)
 .vector_new_32
                0x9d000600       0x14 /home/ishyro/Documents/Info/M1/S2/OMicroB-next/src/byterun/pic32/cores/core.a(vector_table.S.o)
                0x9d000600                __vector_32
 *(.vector_32)
                0x00000001                ASSERT (((_vector_spacing == 0x0) || (SIZEOF (.vector_32) <= (_vector_spacing << 0x5))), function at exception vector 32 too large)

.vector_33      0x9d000620       0x14
 *(.vector_new_33)
 .vector_new_33
                0x9d000620       0x14 /home/ishyro/Documents/Info/M1/S2/OMicroB-next/src/byterun/pic32/cores/core.a(vector_table.S.o)
                0x9d000620                __vector_33
 *(.vector_33)
                0x00000001                ASSERT (((_vector_spacing == 0x0) || (SIZEOF (.vector_33) <= (_vector_spacing << 0x5))), function at exception vector 33 too large)

.vector_34      0x9d000640       0x14
 *(.vector_new_34)
 .vector_new_34
                0x9d000640       0x14 /home/ishyro/Documents/Info/M1/S2/OMicroB-next/src/byterun/pic32/cores/core.a(vector_table.S.o)
                0x9d000640                __vector_34
 *(.vector_34)
                0x00000001                ASSERT (((_vector_spacing == 0x0) || (SIZEOF (.vector_34) <= (_vector_spacing << 0x5))), function at exception vector 34 too large)

.vector_35      0x9d000660       0x14
 *(.vector_new_35)
 .vector_new_35
                0x9d000660       0x14 /home/ishyro/Documents/Info/M1/S2/OMicroB-next/src/byterun/pic32/cores/core.a(vector_table.S.o)
                0x9d000660                __vector_35
 *(.vector_35)
                0x00000001                ASSERT (((_vector_spacing == 0x0) || (SIZEOF (.vector_35) <= (_vector_spacing << 0x5))), function at exception vector 35 too large)

.vector_36      0x9d000680       0x14
 *(.vector_new_36)
 .vector_new_36
                0x9d000680       0x14 /home/ishyro/Documents/Info/M1/S2/OMicroB-next/src/byterun/pic32/cores/core.a(vector_table.S.o)
                0x9d000680                __vector_36
 *(.vector_36)
                0x00000001                ASSERT (((_vector_spacing == 0x0) || (SIZEOF (.vector_36) <= (_vector_spacing << 0x5))), function at exception vector 36 too large)

.vector_37      0x9d0006a0       0x14
 *(.vector_new_37)
 .vector_new_37
                0x9d0006a0       0x14 /home/ishyro/Documents/Info/M1/S2/OMicroB-next/src/byterun/pic32/cores/core.a(vector_table.S.o)
                0x9d0006a0                __vector_37
 *(.vector_37)
                0x00000001                ASSERT (((_vector_spacing == 0x0) || (SIZEOF (.vector_37) <= (_vector_spacing << 0x5))), function at exception vector 37 too large)

.vector_38      0x9d0006c0       0x14
 *(.vector_new_38)
 .vector_new_38
                0x9d0006c0       0x14 /home/ishyro/Documents/Info/M1/S2/OMicroB-next/src/byterun/pic32/cores/core.a(vector_table.S.o)
                0x9d0006c0                __vector_38
 *(.vector_38)
                0x00000001                ASSERT (((_vector_spacing == 0x0) || (SIZEOF (.vector_38) <= (_vector_spacing << 0x5))), function at exception vector 38 too large)

.vector_39      0x9d0006e0       0x14
 *(.vector_new_39)
 .vector_new_39
                0x9d0006e0       0x14 /home/ishyro/Documents/Info/M1/S2/OMicroB-next/src/byterun/pic32/cores/core.a(vector_table.S.o)
                0x9d0006e0                __vector_39
 *(.vector_39)
                0x00000001                ASSERT (((_vector_spacing == 0x0) || (SIZEOF (.vector_39) <= (_vector_spacing << 0x5))), function at exception vector 39 too large)

.vector_40      0x9d000700       0x14
 *(.vector_new_40)
 .vector_new_40
                0x9d000700       0x14 /home/ishyro/Documents/Info/M1/S2/OMicroB-next/src/byterun/pic32/cores/core.a(vector_table.S.o)
                0x9d000700                __vector_40
 *(.vector_40)
                0x00000001                ASSERT (((_vector_spacing == 0x0) || (SIZEOF (.vector_40) <= (_vector_spacing << 0x5))), function at exception vector 40 too large)

.vector_41      0x9d000720       0x14
 *(.vector_new_41)
 .vector_new_41
                0x9d000720       0x14 /home/ishyro/Documents/Info/M1/S2/OMicroB-next/src/byterun/pic32/cores/core.a(vector_table.S.o)
                0x9d000720                __vector_41
 *(.vector_41)
                0x00000001                ASSERT (((_vector_spacing == 0x0) || (SIZEOF (.vector_41) <= (_vector_spacing << 0x5))), function at exception vector 41 too large)

.vector_42      0x9d000740       0x14
 *(.vector_new_42)
 .vector_new_42
                0x9d000740       0x14 /home/ishyro/Documents/Info/M1/S2/OMicroB-next/src/byterun/pic32/cores/core.a(vector_table.S.o)
                0x9d000740                __vector_42
 *(.vector_42)
                0x00000001                ASSERT (((_vector_spacing == 0x0) || (SIZEOF (.vector_42) <= (_vector_spacing << 0x5))), function at exception vector 42 too large)

.vector_43      0x9d000760       0x14
 *(.vector_new_43)
 .vector_new_43
                0x9d000760       0x14 /home/ishyro/Documents/Info/M1/S2/OMicroB-next/src/byterun/pic32/cores/core.a(vector_table.S.o)
                0x9d000760                __vector_43
 *(.vector_43)
                0x00000001                ASSERT (((_vector_spacing == 0x0) || (SIZEOF (.vector_43) <= (_vector_spacing << 0x5))), function at exception vector 43 too large)

.vector_44      0x9d000780       0x14
 *(.vector_new_44)
 .vector_new_44
                0x9d000780       0x14 /home/ishyro/Documents/Info/M1/S2/OMicroB-next/src/byterun/pic32/cores/core.a(vector_table.S.o)
                0x9d000780                __vector_44
 *(.vector_44)
                0x00000001                ASSERT (((_vector_spacing == 0x0) || (SIZEOF (.vector_44) <= (_vector_spacing << 0x5))), function at exception vector 44 too large)

.vector_45      0x9d0007a0       0x14
 *(.vector_new_45)
 .vector_new_45
                0x9d0007a0       0x14 /home/ishyro/Documents/Info/M1/S2/OMicroB-next/src/byterun/pic32/cores/core.a(vector_table.S.o)
                0x9d0007a0                __vector_45
 *(.vector_45)
                0x00000001                ASSERT (((_vector_spacing == 0x0) || (SIZEOF (.vector_45) <= (_vector_spacing << 0x5))), function at exception vector 45 too large)

.vector_46      0x9d0007c0       0x14
 *(.vector_new_46)
 .vector_new_46
                0x9d0007c0       0x14 /home/ishyro/Documents/Info/M1/S2/OMicroB-next/src/byterun/pic32/cores/core.a(vector_table.S.o)
                0x9d0007c0                __vector_46
 *(.vector_46)
                0x00000001                ASSERT (((_vector_spacing == 0x0) || (SIZEOF (.vector_46) <= (_vector_spacing << 0x5))), function at exception vector 46 too large)

.vector_47      0x9d0007e0       0x14
 *(.vector_new_47)
 .vector_new_47
                0x9d0007e0       0x14 /home/ishyro/Documents/Info/M1/S2/OMicroB-next/src/byterun/pic32/cores/core.a(vector_table.S.o)
                0x9d0007e0                __vector_47
 *(.vector_47)
                0x00000001                ASSERT (((_vector_spacing == 0x0) || (SIZEOF (.vector_47) <= (_vector_spacing << 0x5))), function at exception vector 47 too large)

.vector_48      0x9d000800       0x14
 *(.vector_new_48)
 .vector_new_48
                0x9d000800       0x14 /home/ishyro/Documents/Info/M1/S2/OMicroB-next/src/byterun/pic32/cores/core.a(vector_table.S.o)
                0x9d000800                __vector_48
 *(.vector_48)
                0x00000001                ASSERT (((_vector_spacing == 0x0) || (SIZEOF (.vector_48) <= (_vector_spacing << 0x5))), function at exception vector 48 too large)

.vector_49      0x9d000820       0x14
 *(.vector_new_49)
 .vector_new_49
                0x9d000820       0x14 /home/ishyro/Documents/Info/M1/S2/OMicroB-next/src/byterun/pic32/cores/core.a(vector_table.S.o)
                0x9d000820                __vector_49
 *(.vector_49)
                0x00000001                ASSERT (((_vector_spacing == 0x0) || (SIZEOF (.vector_49) <= (_vector_spacing << 0x5))), function at exception vector 49 too large)

.vector_50      0x9d000840       0x14
 *(.vector_new_50)
 .vector_new_50
                0x9d000840       0x14 /home/ishyro/Documents/Info/M1/S2/OMicroB-next/src/byterun/pic32/cores/core.a(vector_table.S.o)
                0x9d000840                __vector_50
 *(.vector_50)
                0x00000001                ASSERT (((_vector_spacing == 0x0) || (SIZEOF (.vector_50) <= (_vector_spacing << 0x5))), function at exception vector 50 too large)

.vector_51      0x9d000860       0x14
 *(.vector_new_51)
 .vector_new_51
                0x9d000860       0x14 /home/ishyro/Documents/Info/M1/S2/OMicroB-next/src/byterun/pic32/cores/core.a(vector_table.S.o)
                0x9d000860                __vector_51
 *(.vector_51)
                0x00000001                ASSERT (((_vector_spacing == 0x0) || (SIZEOF (.vector_51) <= (_vector_spacing << 0x5))), function at exception vector 51 too large)

.vector_52      0x9d000880       0x14
 *(.vector_new_52)
 .vector_new_52
                0x9d000880       0x14 /home/ishyro/Documents/Info/M1/S2/OMicroB-next/src/byterun/pic32/cores/core.a(vector_table.S.o)
                0x9d000880                __vector_52
 *(.vector_52)
                0x00000001                ASSERT (((_vector_spacing == 0x0) || (SIZEOF (.vector_52) <= (_vector_spacing << 0x5))), function at exception vector 52 too large)

.vector_53      0x9d0008a0       0x14
 *(.vector_new_53)
 .vector_new_53
                0x9d0008a0       0x14 /home/ishyro/Documents/Info/M1/S2/OMicroB-next/src/byterun/pic32/cores/core.a(vector_table.S.o)
                0x9d0008a0                __vector_53
 *(.vector_53)
                0x00000001                ASSERT (((_vector_spacing == 0x0) || (SIZEOF (.vector_53) <= (_vector_spacing << 0x5))), function at exception vector 53 too large)

.vector_54      0x9d0008c0       0x14
 *(.vector_new_54)
 .vector_new_54
                0x9d0008c0       0x14 /home/ishyro/Documents/Info/M1/S2/OMicroB-next/src/byterun/pic32/cores/core.a(vector_table.S.o)
                0x9d0008c0                __vector_54
 *(.vector_54)
                0x00000001                ASSERT (((_vector_spacing == 0x0) || (SIZEOF (.vector_54) <= (_vector_spacing << 0x5))), function at exception vector 54 too large)

.vector_55      0x9d0008e0       0x14
 *(.vector_new_55)
 .vector_new_55
                0x9d0008e0       0x14 /home/ishyro/Documents/Info/M1/S2/OMicroB-next/src/byterun/pic32/cores/core.a(vector_table.S.o)
                0x9d0008e0                __vector_55
 *(.vector_55)
                0x00000001                ASSERT (((_vector_spacing == 0x0) || (SIZEOF (.vector_55) <= (_vector_spacing << 0x5))), function at exception vector 55 too large)

.vector_56      0x9d000900       0x14
 *(.vector_new_56)
 .vector_new_56
                0x9d000900       0x14 /home/ishyro/Documents/Info/M1/S2/OMicroB-next/src/byterun/pic32/cores/core.a(vector_table.S.o)
                0x9d000900                __vector_56
 *(.vector_56)
                0x00000001                ASSERT (((_vector_spacing == 0x0) || (SIZEOF (.vector_56) <= (_vector_spacing << 0x5))), function at exception vector 56 too large)

.vector_57      0x9d000920       0x14
 *(.vector_new_57)
 .vector_new_57
                0x9d000920       0x14 /home/ishyro/Documents/Info/M1/S2/OMicroB-next/src/byterun/pic32/cores/core.a(vector_table.S.o)
                0x9d000920                __vector_57
 *(.vector_57)
                0x00000001                ASSERT (((_vector_spacing == 0x0) || (SIZEOF (.vector_57) <= (_vector_spacing << 0x5))), function at exception vector 57 too large)

.vector_58      0x9d000940       0x14
 *(.vector_new_58)
 .vector_new_58
                0x9d000940       0x14 /home/ishyro/Documents/Info/M1/S2/OMicroB-next/src/byterun/pic32/cores/core.a(vector_table.S.o)
                0x9d000940                __vector_58
 *(.vector_58)
                0x00000001                ASSERT (((_vector_spacing == 0x0) || (SIZEOF (.vector_58) <= (_vector_spacing << 0x5))), function at exception vector 58 too large)

.vector_59      0x9d000960       0x14
 *(.vector_new_59)
 .vector_new_59
                0x9d000960       0x14 /home/ishyro/Documents/Info/M1/S2/OMicroB-next/src/byterun/pic32/cores/core.a(vector_table.S.o)
                0x9d000960                __vector_59
 *(.vector_59)
                0x00000001                ASSERT (((_vector_spacing == 0x0) || (SIZEOF (.vector_59) <= (_vector_spacing << 0x5))), function at exception vector 59 too large)

.vector_60      0x9d000980       0x14
 *(.vector_new_60)
 .vector_new_60
                0x9d000980       0x14 /home/ishyro/Documents/Info/M1/S2/OMicroB-next/src/byterun/pic32/cores/core.a(vector_table.S.o)
                0x9d000980                __vector_60
 *(.vector_60)
                0x00000001                ASSERT (((_vector_spacing == 0x0) || (SIZEOF (.vector_60) <= (_vector_spacing << 0x5))), function at exception vector 60 too large)

.vector_61      0x9d0009a0       0x14
 *(.vector_new_61)
 .vector_new_61
                0x9d0009a0       0x14 /home/ishyro/Documents/Info/M1/S2/OMicroB-next/src/byterun/pic32/cores/core.a(vector_table.S.o)
                0x9d0009a0                __vector_61
 *(.vector_61)
                0x00000001                ASSERT (((_vector_spacing == 0x0) || (SIZEOF (.vector_61) <= (_vector_spacing << 0x5))), function at exception vector 61 too large)

.vector_62      0x9d0009c0       0x14
 *(.vector_new_62)
 .vector_new_62
                0x9d0009c0       0x14 /home/ishyro/Documents/Info/M1/S2/OMicroB-next/src/byterun/pic32/cores/core.a(vector_table.S.o)
                0x9d0009c0                __vector_62
 *(.vector_62)
                0x00000001                ASSERT (((_vector_spacing == 0x0) || (SIZEOF (.vector_62) <= (_vector_spacing << 0x5))), function at exception vector 62 too large)

.vector_63      0x9d0009e0       0x14
 *(.vector_new_63)
 .vector_new_63
                0x9d0009e0       0x14 /home/ishyro/Documents/Info/M1/S2/OMicroB-next/src/byterun/pic32/cores/core.a(vector_table.S.o)
                0x9d0009e0                __vector_63
 *(.vector_63)
                0x00000001                ASSERT (((_vector_spacing == 0x0) || (SIZEOF (.vector_63) <= (_vector_spacing << 0x5))), function at exception vector 63 too large)

.startup        0x9d001008      0x200
 *(.startup)
 .startup       0x9d001008      0x200 /tmp/ccqWBQHT.o

.text           0x9d001208      0x1bc
                0x9d001208                _text_begin = .
 *(.stub .gnu.linkonce.t.*)
 .gnu.linkonce.t._ZN9USBDriver10setManagerEP10USBManager
                0x9d001208        0x8 /home/ishyro/Documents/Info/M1/S2/OMicroB-next/src/byterun/pic32/cores/core.a(USB.cpp.o)
                0x9d001208                USBDriver::setManager(USBManager*)
 .gnu.linkonce.t._ZN6CDCACM19getReportDescriptorEhhhh
                0x9d001210        0x8 /home/ishyro/Documents/Info/M1/S2/OMicroB-next/src/byterun/pic32/cores/core.a(USB_CDCACM.cpp.o)
                0x9d001210                CDCACM::getReportDescriptor(unsigned char, unsigned char, unsigned char, unsigned char)
 .gnu.linkonce.t._ZN6CDCACM19getStringDescriptorEht
                0x9d001218        0x8 /home/ishyro/Documents/Info/M1/S2/OMicroB-next/src/byterun/pic32/cores/core.a(USB_CDCACM.cpp.o)
                0x9d001218                CDCACM::getStringDescriptor(unsigned char, unsigned short)
 .gnu.linkonce.t._ZN5USBFS11isHighSpeedEv
                0x9d001220        0x8 /home/ishyro/Documents/Info/M1/S2/OMicroB-next/src/byterun/pic32/cores/core.a(USB_FS.cpp.o)
                0x9d001220                USBFS::isHighSpeed()
 .gnu.linkonce.t._ZN5USBFS12haltEndpointEh
                0x9d001228        0x8 /home/ishyro/Documents/Info/M1/S2/OMicroB-next/src/byterun/pic32/cores/core.a(USB_FS.cpp.o)
                0x9d001228                USBFS::haltEndpoint(unsigned char)
 .gnu.linkonce.t._ZN5USBFS14resumeEndpointEh
                0x9d001230        0x8 /home/ishyro/Documents/Info/M1/S2/OMicroB-next/src/byterun/pic32/cores/core.a(USB_FS.cpp.o)
                0x9d001230                USBFS::resumeEndpoint(unsigned char)
 .gnu.linkonce.t._ZN5USBFS13_usbInterruptEv
                0x9d001238      0x138 /home/ishyro/Documents/Info/M1/S2/OMicroB-next/src/byterun/pic32/cores/core.a(USB_FS.cpp.o)
                0x9d001238                USBFS::_usbInterrupt()
 .gnu.linkonce.t._ZNK10__cxxabiv117__class_type_info17__find_public_srcElPKvPKS0_S2_
                0x9d001370       0x54 /home/ishyro/.arduino15/packages/chipKIT/tools/pic32-tools/1.43-pic32gcc/bin/bin/../../lib/gcc/pic32mx/4.8.3/../../../../pic32mx/lib/size/libsupc++.a(vmi_class_type_info.o)
                0x9d001370                __cxxabiv1::__class_type_info::__find_public_src(long, void const*, __cxxabiv1::__class_type_info const*, void const*) const
 *(.text.*personality*)
 *(.mips16.fn.*)
 *(.mips16.call.*)
 *(.gnu.warning)
                0x9d0013c4                . = ALIGN (0x4)

.init           0x9d0013c4       0x30
 *crti.o(.init)
 *crtbegin.o(.init)
 .init          0x9d0013c4        0x8 /home/ishyro/.arduino15/packages/chipKIT/tools/pic32-tools/1.43-pic32gcc/bin/bin/../../lib/gcc/pic32mx/4.8.3/size/crtbegin.o
 *(EXCLUDE_FILE(*crtn.o *crtend?.o *crtend.o) .init)
 .init          0x9d0013cc        0xc /tmp/cc94H11c.o
 .init          0x9d0013d8        0x8 /tmp/cc5bvK4e.o
                0x9d0013d8                _init
 *crtend.o(.init)
 .init          0x9d0013e0        0x8 /home/ishyro/.arduino15/packages/chipKIT/tools/pic32-tools/1.43-pic32gcc/bin/bin/../../lib/gcc/pic32mx/4.8.3/size/crtend.o
 *crtn.o(.init)
 .init          0x9d0013e8        0xc /home/ishyro/.arduino15/packages/chipKIT/tools/pic32-tools/1.43-pic32gcc/bin/bin/../../lib/gcc/pic32mx/4.8.3/size/crtn.o
                0x9d0013f4                . = ALIGN (0x4)

.fini           0x9d0013f4       0x28
 *(.fini)
 .fini          0x9d0013f4        0xc /tmp/cc94H11c.o
 .fini          0x9d001400        0x8 /tmp/cc5bvK4e.o
                0x9d001400                _fini
 .fini          0x9d001408        0x8 /home/ishyro/.arduino15/packages/chipKIT/tools/pic32-tools/1.43-pic32gcc/bin/bin/../../lib/gcc/pic32mx/4.8.3/size/crtbegin.o
 .fini          0x9d001410        0xc /home/ishyro/.arduino15/packages/chipKIT/tools/pic32-tools/1.43-pic32gcc/bin/bin/../../lib/gcc/pic32mx/4.8.3/size/crtn.o
                0x9d00141c                . = ALIGN (0x4)

.preinit_array  0x9d00141c        0x0
                0x9d00141c                PROVIDE (__preinit_array_start, .)
 *(.preinit_array)
                0x9d00141c                . = ALIGN (0x4)
                0x9d00141c                PROVIDE (__preinit_array_end, .)
 *(.preinit_array)
                0x9d00141c                . = ALIGN (0x4)

.init_array     0x9d00141c        0x0
                0x9d00141c                PROVIDE (__init_array_start, .)
 *(SORT(.init_array.*))
 *(.init_array)
                0x9d00141c                . = ALIGN (0x4)
                0x9d00141c                PROVIDE (__init_array_end, .)

.fini_array     0x9d00141c        0x0
                0x9d00141c                PROVIDE (__fini_array_start, .)
 *(SORT(.fini_array.*))
 *(.fini_array)
                0x9d00141c                . = ALIGN (0x4)
                0x9d00141c                PROVIDE (__fini_array_end, .)

.ctors          0x9d00141c        0xc
 *crtbegin.o(.ctors)
 .ctors         0x9d00141c        0x4 /home/ishyro/.arduino15/packages/chipKIT/tools/pic32-tools/1.43-pic32gcc/bin/bin/../../lib/gcc/pic32mx/4.8.3/size/crtbegin.o
 *crtbegin?.o(.ctors)
 *(EXCLUDE_FILE(*crtend?.o *crtend.o) .ctors)
 .ctors         0x9d001420        0x4 /home/ishyro/Documents/Info/M1/S2/OMicroB-next/src/byterun/pic32/cores/core.a(USB.cpp.o)
 *(SORT(.ctors.*))
 *(.ctors)
 .ctors         0x9d001424        0x4 /home/ishyro/.arduino15/packages/chipKIT/tools/pic32-tools/1.43-pic32gcc/bin/bin/../../lib/gcc/pic32mx/4.8.3/size/crtend.o
                0x9d001428                . = ALIGN (0x4)

.dtors          0x9d001428        0x8
 *crtbegin.o(.dtors)
 .dtors         0x9d001428        0x4 /home/ishyro/.arduino15/packages/chipKIT/tools/pic32-tools/1.43-pic32gcc/bin/bin/../../lib/gcc/pic32mx/4.8.3/size/crtbegin.o
 *crtbegin?.o(.dtors)
 *(EXCLUDE_FILE(*crtend?.o *crtend.o) .dtors)
 *(SORT(.dtors.*))
 *(.dtors)
 .dtors         0x9d00142c        0x4 /home/ishyro/.arduino15/packages/chipKIT/tools/pic32-tools/1.43-pic32gcc/bin/bin/../../lib/gcc/pic32mx/4.8.3/size/crtend.o
                0x9d00142c                __DTOR_END__
                0x9d001430                . = ALIGN (0x4)

.header_info    0x9d001430       0x4c
                0x9d001430                _image_header_info = .
                0x9d001430        0x4 LONG 0x4c SIZEOF (.header_info)
                0x9d001434        0x4 LONG 0xffffffff
 *(.mpide_version *.mpide_version.*)
 .mpide_version._verMPIDE_Stub
                0x9d001438        0x4 /home/ishyro/Documents/Info/M1/S2/OMicroB-next/src/byterun/pic32/cores/core.a(wiring.c.o)
                0x9d001438                _verMPIDE_Stub
                0x9d00143c        0x4 LONG 0xffffffff
                0x9d001440        0x4 LONG 0xffffffff
                0x9d001444        0x4 LONG 0x1020001 _IMAGE_TYPE
                0x9d001448        0x4 LONG 0x9d001000 _JUMP_ADDR
                0x9d00144c        0x4 LONG 0x9d000000 _ebase_address
                0x9d001450        0x4 LONG 0x1e000 _IMAGE_FLASH_SIZE
                0x9d001454        0x4 LONG 0x9d01e000 ORIGIN (kseg0_eeprom_mem)
                0x9d001458        0x4 LONG 0x1000
                0x9d00145c        0x4 LONG 0xbfc00bf0 ORIGIN (configsfrs)
                0x9d001460        0x4 LONG 0x10
                0x9d001464        0x4 LONG 0xa0000200 _ram_header_addr
                0x9d001468        0x4 LONG 0x8 SIZEOF (.ram_exchange_data)
                0x9d00146c        0x4 LONG 0xffffffff
                0x9d001470        0x4 LONG 0x9d000214 _original_vector_0
                0x9d001474        0x4 LONG 0x9d000200 _new_vector_0
                0x9d001478        0x4 LONG 0x20 (_vector_spacing << 0x5)
                0x9d00147c                _image_header_info_end = .

.rodata         0x9d00147c      0x1f4
 *(.gnu.linkonce.r.*)
 .gnu.linkonce.r._ZTI6Stream._ZTI6Stream
                0x9d00147c        0xc /home/ishyro/Documents/Info/M1/S2/OMicroB-next/src/byterun/pic32/cores/core.a(USB_CDCACM.cpp.o)
                0x9d00147c                typeinfo for Stream
 .gnu.linkonce.r._ZTS6Stream._ZTS6Stream
                0x9d001488        0x8 /home/ishyro/Documents/Info/M1/S2/OMicroB-next/src/byterun/pic32/cores/core.a(USB_CDCACM.cpp.o)
                0x9d001488                typeinfo name for Stream
 .gnu.linkonce.r._ZTI9USBDevice._ZTI9USBDevice
                0x9d001490        0x8 /home/ishyro/Documents/Info/M1/S2/OMicroB-next/src/byterun/pic32/cores/core.a(USB_CDCACM.cpp.o)
                0x9d001490                typeinfo for USBDevice
 .gnu.linkonce.r._ZTS9USBDevice._ZTS9USBDevice
                0x9d001498        0xc /home/ishyro/Documents/Info/M1/S2/OMicroB-next/src/byterun/pic32/cores/core.a(USB_CDCACM.cpp.o)
                0x9d001498                typeinfo name for USBDevice
 .gnu.linkonce.r._ZTS6CDCACM._ZTS6CDCACM
                0x9d0014a4        0x8 /home/ishyro/Documents/Info/M1/S2/OMicroB-next/src/byterun/pic32/cores/core.a(USB_CDCACM.cpp.o)
                0x9d0014a4                typeinfo name for CDCACM
 .gnu.linkonce.r._ZTI6CDCACM._ZTI6CDCACM
                0x9d0014ac       0x20 /home/ishyro/Documents/Info/M1/S2/OMicroB-next/src/byterun/pic32/cores/core.a(USB_CDCACM.cpp.o)
                0x9d0014ac                typeinfo for CDCACM
 *fill*         0x9d0014cc        0x4 
 .gnu.linkonce.r._ZTV6CDCACM._ZTV6CDCACM
                0x9d0014d0       0x78 /home/ishyro/Documents/Info/M1/S2/OMicroB-next/src/byterun/pic32/cores/core.a(USB_CDCACM.cpp.o)
                0x9d0014d0                vtable for CDCACM
 .gnu.linkonce.r._ZTI9USBDriver._ZTI9USBDriver
                0x9d001548        0x8 /home/ishyro/Documents/Info/M1/S2/OMicroB-next/src/byterun/pic32/cores/core.a(USB_FS.cpp.o)
                0x9d001548                typeinfo for USBDriver
 .gnu.linkonce.r._ZTS9USBDriver._ZTS9USBDriver
                0x9d001550        0xc /home/ishyro/Documents/Info/M1/S2/OMicroB-next/src/byterun/pic32/cores/core.a(USB_FS.cpp.o)
                0x9d001550                typeinfo name for USBDriver
 .gnu.linkonce.r._ZTS5USBFS._ZTS5USBFS
                0x9d00155c        0x8 /home/ishyro/Documents/Info/M1/S2/OMicroB-next/src/byterun/pic32/cores/core.a(USB_FS.cpp.o)
                0x9d00155c                typeinfo name for USBFS
 .gnu.linkonce.r._ZTI5USBFS._ZTI5USBFS
                0x9d001564        0xc /home/ishyro/Documents/Info/M1/S2/OMicroB-next/src/byterun/pic32/cores/core.a(USB_FS.cpp.o)
                0x9d001564                typeinfo for USBFS
 .gnu.linkonce.r._ZTV5USBFS._ZTV5USBFS
                0x9d001570       0x40 /home/ishyro/Documents/Info/M1/S2/OMicroB-next/src/byterun/pic32/cores/core.a(USB_FS.cpp.o)
                0x9d001570                vtable for USBFS
 .gnu.linkonce.r._ZTS5Print._ZTS5Print
                0x9d0015b0        0x8 /home/ishyro/Documents/Info/M1/S2/OMicroB-next/src/byterun/pic32/cores/core.a(Print.cpp.o)
                0x9d0015b0                typeinfo name for Print
 .gnu.linkonce.r._ZTI5Print._ZTI5Print
                0x9d0015b8        0x8 /home/ishyro/Documents/Info/M1/S2/OMicroB-next/src/byterun/pic32/cores/core.a(Print.cpp.o)
                0x9d0015b8                typeinfo for Print
 .gnu.linkonce.r._ZTVN10__cxxabiv117__class_type_infoE._ZTVN10__cxxabiv117__class_type_infoE
                0x9d0015c0       0x30 /home/ishyro/.arduino15/packages/chipKIT/tools/pic32-tools/1.43-pic32gcc/bin/bin/../../lib/gcc/pic32mx/4.8.3/../../../../pic32mx/lib/size/libsupc++.a(class_type_info.o)
                0x9d0015c0                vtable for __cxxabiv1::__class_type_info
 .gnu.linkonce.r._ZTVN10__cxxabiv120__si_class_type_infoE._ZTVN10__cxxabiv120__si_class_type_infoE
                0x9d0015f0       0x30 /home/ishyro/.arduino15/packages/chipKIT/tools/pic32-tools/1.43-pic32gcc/bin/bin/../../lib/gcc/pic32mx/4.8.3/../../../../pic32mx/lib/size/libsupc++.a(si_class_type_info.o)
                0x9d0015f0                vtable for __cxxabiv1::__si_class_type_info
 .gnu.linkonce.r._ZTVSt9type_info._ZTVSt9type_info
                0x9d001620       0x20 /home/ishyro/.arduino15/packages/chipKIT/tools/pic32-tools/1.43-pic32gcc/bin/bin/../../lib/gcc/pic32mx/4.8.3/../../../../pic32mx/lib/size/libsupc++.a(tinfo.o)
                0x9d001620                vtable for std::type_info
 .gnu.linkonce.r._ZTVN10__cxxabiv121__vmi_class_type_infoE._ZTVN10__cxxabiv121__vmi_class_type_infoE
                0x9d001640       0x30 /home/ishyro/.arduino15/packages/chipKIT/tools/pic32-tools/1.43-pic32gcc/bin/bin/../../lib/gcc/pic32mx/4.8.3/../../../../pic32mx/lib/size/libsupc++.a(vmi_class_type_info.o)
                0x9d001640                vtable for __cxxabiv1::__vmi_class_type_info
 *(.rodata1)
                0x9d001670                . = ALIGN (0x4)

.romdata        0x9d001670        0x0
 *(.romdata .romdata.*)
                0x9d001670                . = ALIGN (0x4)

.sdata2         0x9d001670        0x0
 *(.sdata2 .sdata2.* .gnu.linkonce.s2.*)
                0x9d001670                . = ALIGN (0x4)

.sbss2          0x9d001670        0x0
 *(.sbss2 .sbss2.* .gnu.linkonce.sb2.*)
                0x9d001670                . = ALIGN (0x4)

.dbg_data       0xa0000000      0x200
                0xa0000000                . = (. + DEFINED (_DEBUGGER)?0x200:0x0)
 *fill*         0xa0000000      0x200 

.ram_exchange_data
                0xa0000200        0x8
                0xa0000200                _ram_header_addr = .
                0xa0000208                . = (. + 0x8)
 *fill*         0xa0000200        0x8 

.persist        0xa0000208        0x0
                0xa0000208                _persist_begin = .
 *(.persist .persist.*)
                0xa0000208                . = ALIGN (0x4)
                0xa0000208                _persist_end = .
                0x00000001                ASSERT ((_persist_end <= (ORIGIN (kseg1_data_mem) + 0x600)), Bootloader does not preserve debug, RAM Header, or persistent data beyond the first 1.5K)
                0xa0000208                _protected_end = ((_IMAGE_TYPE & ((_imageSplitFlashBootloader | _imageProgramFlashBootloader) | _imageBootFlashBootloader)) != 0x0)?(ORIGIN (kseg1_data_mem) + 0x600):.

.protected_bootloader
                0xa0000000        0x0
                0xa0000000                . = (. + ((_IMAGE_TYPE & ((_imageSplitFlashBootloader | _imageProgramFlashBootloader) | _imageBootFlashBootloader)) != 0x0)?(ORIGIN (kseg1_data_mem) + 0x600):0x0)

.data           0xa0000208        0x0
                0xa0000208                _data_begin = .
 *(.gnu.linkonce.d.*)
 *(.gnu.linkonce.d.*personality*)
 *(.data1)
                0xa0000208                . = ALIGN (0x4)
                0xa0000208                _data_image_begin = LOADADDR (.data)
                0xa0000208                . = .
                0xa0008200                _gp = (ALIGN (0x10) + 0x7ff0)

.got
 *(.got.plt)
 *(.got)

.sdata          0xa0000208       0xf0
                0xa0000208                _sdata_begin = .
 *(.sdata .sdata.* .gnu.linkonce.s.*)
 .sdata         0xa0000208       0x18 /tmp/ccpHnSIR.o
                0xa0000208                acc
                0xa000020c                env
 .sdata.gCoreTimerInfo.gCoreTimerInfo
                0xa0000220       0x18 /home/ishyro/Documents/Info/M1/S2/OMicroB-next/src/byterun/pic32/cores/core.a(wiring.c.o)
                0xa0000220                gCoreTimerInfo
 .sdata._pwmPeriod._pwmPeriod
                0xa0000238        0x4 /home/ishyro/Documents/Info/M1/S2/OMicroB-next/src/byterun/pic32/cores/core.a(wiring_analog.c.o)
 .sdata._pwmResolution._pwmResolution
                0xa000023c        0x4 /home/ishyro/Documents/Info/M1/S2/OMicroB-next/src/byterun/pic32/cores/core.a(wiring_analog.c.o)
 .sdata._pwmFrequency._pwmFrequency
                0xa0000240        0x4 /home/ishyro/Documents/Info/M1/S2/OMicroB-next/src/byterun/pic32/cores/core.a(wiring_analog.c.o)
 .sdata._isr_primary_install._isr_primary_install
                0xa0000244       0xb0 /home/ishyro/Documents/Info/M1/S2/OMicroB-next/src/byterun/pic32/cores/core.a(WSystem.c.o)
                0xa0000244                _isr_primary_install
 .sdata         0xa00002f4        0x4 /home/ishyro/.arduino15/packages/chipKIT/tools/pic32-tools/1.43-pic32gcc/bin/bin/../../lib/gcc/pic32mx/4.8.3/size/crtbegin.o
                0xa00002f4                __dso_handle
                0xa00002f8                . = ALIGN (0x4)
                0xa00002f8                _sdata_end = .

.lit8           0xa00002f8        0x0
 *(.lit8)
                0xa00002f8                . = ALIGN (0x4)

.lit4
 *(.lit4)
                0xa00002f8                . = ALIGN (0x4)
                0xa00002f8                _data_end = .
                0xa00002f8                _bss_begin = .

.sbss           0xa00002f8      0x494
                0xa00002f8                _sbss_begin = .
 *(.dynsbss)
 *(.sbss .sbss.* .gnu.linkonce.sb.*)
 .sbss          0xa00002f8       0x1c /tmp/ccpHnSIR.o
                0xa00002f8                pc
                0xa00002fc                sp
                0xa0000300                trapSp
                0xa0000304                extra_args
                0xa0000308                gc_count
                0xa000030c                heap_ptr
                0xa0000310                heap_end
 .sbss._excep_addr._excep_addr
                0xa0000314        0x4 /home/ishyro/Documents/Info/M1/S2/OMicroB-next/src/byterun/pic32/cores/core.a(exceptions.c.o)
 .sbss._epc_code._epc_code
                0xa0000318        0x4 /home/ishyro/Documents/Info/M1/S2/OMicroB-next/src/byterun/pic32/cores/core.a(exceptions.c.o)
 .sbss._excep_code._excep_code
                0xa000031c        0x4 /home/ishyro/Documents/Info/M1/S2/OMicroB-next/src/byterun/pic32/cores/core.a(exceptions.c.o)
 .sbss.tmsLastEvent.tmsLastEvent
                0xa0000320        0x4 /home/ishyro/Documents/Info/M1/S2/OMicroB-next/src/byterun/pic32/cores/core.a(task_manager.c.o)
 .sbss.tmsNextEvent.tmsNextEvent
                0xa0000324        0x4 /home/ishyro/Documents/Info/M1/S2/OMicroB-next/src/byterun/pic32/cores/core.a(task_manager.c.o)
 .sbss.cntActiveTask.cntActiveTask
                0xa0000328        0x4 /home/ishyro/Documents/Info/M1/S2/OMicroB-next/src/byterun/pic32/cores/core.a(task_manager.c.o)
 .sbss.rgtaskTable.rgtaskTable
                0xa000032c       0xa0 /home/ishyro/Documents/Info/M1/S2/OMicroB-next/src/byterun/pic32/cores/core.a(task_manager.c.o)
 .sbss.nextInt.9019.nextInt
                0xa00003cc        0x4 /home/ishyro/Documents/Info/M1/S2/OMicroB-next/src/byterun/pic32/cores/core.a(wiring.c.o)
 .sbss.gLastBaseCount.gLastBaseCount
                0xa00003d0        0x4 /home/ishyro/Documents/Info/M1/S2/OMicroB-next/src/byterun/pic32/cores/core.a(wiring.c.o)
 .sbss.ppsGlobalLock.ppsGlobalLock
                0xa00003d4        0x1 /home/ishyro/Documents/Info/M1/S2/OMicroB-next/src/byterun/pic32/cores/core.a(wiring.c.o)
                0xa00003d4                ppsGlobalLock
 *fill*         0xa00003d5        0x3 
 .sbss.gSoftPWMServoUpdate.gSoftPWMServoUpdate
                0xa00003d8        0x4 /home/ishyro/Documents/Info/M1/S2/OMicroB-next/src/byterun/pic32/cores/core.a(wiring.c.o)
                0xa00003d8                gSoftPWMServoUpdate
 .sbss.gMicros_calculating.gMicros_calculating
                0xa00003dc        0x4 /home/ishyro/Documents/Info/M1/S2/OMicroB-next/src/byterun/pic32/cores/core.a(wiring.c.o)
                0xa00003dc                gMicros_calculating
 .sbss.gCore_timer_first_val.gCore_timer_first_val
                0xa00003e0        0x4 /home/ishyro/Documents/Info/M1/S2/OMicroB-next/src/byterun/pic32/cores/core.a(wiring.c.o)
                0xa00003e0                gCore_timer_first_val
 .sbss.gMicros_overflows.gMicros_overflows
                0xa00003e4        0x4 /home/ishyro/Documents/Info/M1/S2/OMicroB-next/src/byterun/pic32/cores/core.a(wiring.c.o)
                0xa00003e4                gMicros_overflows
 .sbss.gCore_timer_micros.gCore_timer_micros
                0xa00003e8        0x4 /home/ishyro/Documents/Info/M1/S2/OMicroB-next/src/byterun/pic32/cores/core.a(wiring.c.o)
                0xa00003e8                gCore_timer_micros
 .sbss.gCore_timer_last_val.gCore_timer_last_val
                0xa00003ec        0x4 /home/ishyro/Documents/Info/M1/S2/OMicroB-next/src/byterun/pic32/cores/core.a(wiring.c.o)
                0xa00003ec                gCore_timer_last_val
 .sbss.gTimer0_millis.gTimer0_millis
                0xa00003f0        0x4 /home/ishyro/Documents/Info/M1/S2/OMicroB-next/src/byterun/pic32/cores/core.a(wiring.c.o)
                0xa00003f0                gTimer0_millis
 .sbss.pwm_active.pwm_active
                0xa00003f4        0x2 /home/ishyro/Documents/Info/M1/S2/OMicroB-next/src/byterun/pic32/cores/core.a(wiring_analog.c.o)
                0xa00003f4                pwm_active
 *fill*         0xa00003f6        0x2 
 .sbss.analog_reference.analog_reference
                0xa00003f8        0x4 /home/ishyro/Documents/Info/M1/S2/OMicroB-next/src/byterun/pic32/cores/core.a(wiring_analog.c.o)
                0xa00003f8                analog_reference
 .sbss.Serial.Serial
                0xa00003fc      0x34c /home/ishyro/Documents/Info/M1/S2/OMicroB-next/src/byterun/pic32/cores/core.a(USB.cpp.o)
                0xa00003fc                Serial
 .sbss.USB.USB  0xa0000748       0x38 /home/ishyro/Documents/Info/M1/S2/OMicroB-next/src/byterun/pic32/cores/core.a(USB.cpp.o)
                0xa0000748                USB
 .sbss._ZN5USBFS5_thisE._this
                0xa0000780        0x4 /home/ishyro/Documents/Info/M1/S2/OMicroB-next/src/byterun/pic32/cores/core.a(USB_FS.cpp.o)
                0xa0000780                USBFS::_this
 *(.scommon)
 .scommon       0xa0000784        0x4 /home/ishyro/Documents/Info/M1/S2/OMicroB-next/src/byterun/pic32/cores/core.a(wiring.c.o)
                0xa0000784                __PIC32_pbClk
 .scommon       0xa0000788        0x1 /home/ishyro/Documents/Info/M1/S2/OMicroB-next/src/byterun/pic32/cores/core.a(wiring_analog.c.o)
                0xa0000788                _analogRead_channelNumber
                0xa000078c                . = ALIGN (0x4)
 *fill*         0xa0000789        0x3 
                0xa000078c                _sbss_end = .

.bss            0xa000078c        0x0
 *(.dynbss)
 *(.gnu.linkonce.b.*)
 *(COMMON)
                0xa000078c                . = ALIGN (0x4)
                0xa000078c                . = ALIGN (0x4)
                0xa000078c                _end = .
                0xa000078c                _bss_end = .
                0x00008000                _bmxdudba_address = 0x8000
                0x00008000                _bmxdupba_address = 0x8000

.gcc_compiled_long32
 *(.gcc_compiled_long32)

.gcc_compiled_long64
 *(.gcc_compiled_long64)

.stab
 *(.stab)

.stabstr
 *(.stabstr)

.stab.excl
 *(.stab.excl)

.stab.exclstr
 *(.stab.exclstr)

.stab.index
 *(.stab.index)

.stab.indexstr
 *(.stab.indexstr)

.comment        0x00000000       0x86
 *(.comment)
 .comment       0x00000000       0x3b /home/ishyro/Documents/Info/M1/S2/OMicroB-next/src/byterun/pic32/Board_Data.o
                                 0x3c (size before relaxing)
 .comment       0x00000000       0x3c /home/ishyro/Documents/Info/M1/S2/OMicroB-next/src/byterun/pic32/cores/core.a(exceptions.c.o)
 .comment       0x00000000       0x3c /home/ishyro/Documents/Info/M1/S2/OMicroB-next/src/byterun/pic32/cores/core.a(task_manager.c.o)
 .comment       0x00000000       0x3c /home/ishyro/Documents/Info/M1/S2/OMicroB-next/src/byterun/pic32/cores/core.a(wiring.c.o)
 .comment       0x00000000       0x3c /home/ishyro/Documents/Info/M1/S2/OMicroB-next/src/byterun/pic32/cores/core.a(wiring_analog.c.o)
 .comment       0x00000000       0x3c /home/ishyro/Documents/Info/M1/S2/OMicroB-next/src/byterun/pic32/cores/core.a(wiring_digital.c.o)
 .comment       0x00000000       0x3c /home/ishyro/Documents/Info/M1/S2/OMicroB-next/src/byterun/pic32/cores/core.a(USB.cpp.o)
 .comment       0x00000000       0x3c /home/ishyro/Documents/Info/M1/S2/OMicroB-next/src/byterun/pic32/cores/core.a(USB_CDCACM.cpp.o)
 .comment       0x00000000       0x3c /home/ishyro/Documents/Info/M1/S2/OMicroB-next/src/byterun/pic32/cores/core.a(USB_FS.cpp.o)
 .comment       0x00000000       0x3c /home/ishyro/Documents/Info/M1/S2/OMicroB-next/src/byterun/pic32/cores/core.a(WSystem.c.o)
 .comment       0x00000000       0x3c /home/ishyro/Documents/Info/M1/S2/OMicroB-next/src/byterun/pic32/cores/core.a(pins_arduino.c.o)
 .comment       0x00000000       0x3c /home/ishyro/Documents/Info/M1/S2/OMicroB-next/src/byterun/pic32/cores/core.a(Print.cpp.o)
 .comment       0x00000000       0x3c /home/ishyro/Documents/Info/M1/S2/OMicroB-next/src/byterun/pic32/cores/core.a(doprnt.cpp.o)
 .comment       0x00000000       0x3c /home/ishyro/.arduino15/packages/chipKIT/tools/pic32-tools/1.43-pic32gcc/bin/bin/../../lib/gcc/pic32mx/4.8.3/../../../../pic32mx/lib/size/libsupc++.a(class_type_info.o)
 .comment       0x00000000       0x3c /home/ishyro/.arduino15/packages/chipKIT/tools/pic32-tools/1.43-pic32gcc/bin/bin/../../lib/gcc/pic32mx/4.8.3/../../../../pic32mx/lib/size/libsupc++.a(del_op.o)
 .comment       0x00000000       0x3c /home/ishyro/.arduino15/packages/chipKIT/tools/pic32-tools/1.43-pic32gcc/bin/bin/../../lib/gcc/pic32mx/4.8.3/../../../../pic32mx/lib/size/libsupc++.a(si_class_type_info.o)
 .comment       0x00000000       0x3c /home/ishyro/.arduino15/packages/chipKIT/tools/pic32-tools/1.43-pic32gcc/bin/bin/../../lib/gcc/pic32mx/4.8.3/../../../../pic32mx/lib/size/libsupc++.a(tinfo.o)
 .comment       0x00000000       0x3c /home/ishyro/.arduino15/packages/chipKIT/tools/pic32-tools/1.43-pic32gcc/bin/bin/../../lib/gcc/pic32mx/4.8.3/../../../../pic32mx/lib/size/libsupc++.a(vmi_class_type_info.o)
 .comment       0x00000000       0x3c /home/ishyro/.arduino15/packages/chipKIT/tools/pic32-tools/1.43-pic32gcc/bin/bin/../../lib/gcc/pic32mx/4.8.3/../../../../pic32mx/lib/size/libsupc++.a(pure.o)
 .comment       0x00000000       0x3c /home/ishyro/.arduino15/packages/chipKIT/tools/pic32-tools/1.43-pic32gcc/bin/bin/../../lib/gcc/pic32mx/4.8.3/../../../../pic32mx/lib/size/libsupc++.a(eh_terminate.o)
 .comment       0x00000000       0x3c /home/ishyro/.arduino15/packages/chipKIT/tools/pic32-tools/1.43-pic32gcc/bin/bin/../../lib/gcc/pic32mx/4.8.3/../../../../pic32mx/lib/size/libsupc++.a(eh_unex_handler.o)
 .comment       0x00000000       0x3c /home/ishyro/.arduino15/packages/chipKIT/tools/pic32-tools/1.43-pic32gcc/bin/bin/../../lib/gcc/pic32mx/4.8.3/../../../../pic32mx/lib/size/libsupc++.a(eh_term_handler.o)
 .comment       0x00000000       0x3c /home/ishyro/.arduino15/packages/chipKIT/tools/pic32-tools/1.43-pic32gcc/bin/bin/../../lib/gcc/pic32mx/4.8.3/../../../../pic32mx/lib/size/libm.a(lib_a-s_cos.o)
 .comment       0x00000000       0x3c /home/ishyro/.arduino15/packages/chipKIT/tools/pic32-tools/1.43-pic32gcc/bin/bin/../../lib/gcc/pic32mx/4.8.3/../../../../pic32mx/lib/size/libm.a(lib_a-s_fpclassify.o)
 .comment       0x00000000       0x3c /home/ishyro/.arduino15/packages/chipKIT/tools/pic32-tools/1.43-pic32gcc/bin/bin/../../lib/gcc/pic32mx/4.8.3/../../../../pic32mx/lib/size/libm.a(lib_a-s_modf.o)
 .comment       0x00000000       0x3c /home/ishyro/.arduino15/packages/chipKIT/tools/pic32-tools/1.43-pic32gcc/bin/bin/../../lib/gcc/pic32mx/4.8.3/../../../../pic32mx/lib/size/libm.a(lib_a-s_sin.o)
 .comment       0x00000000       0x3c /home/ishyro/.arduino15/packages/chipKIT/tools/pic32-tools/1.43-pic32gcc/bin/bin/../../lib/gcc/pic32mx/4.8.3/../../../../pic32mx/lib/size/libm.a(lib_a-w_atan2.o)
 .comment       0x00000000       0x3c /home/ishyro/.arduino15/packages/chipKIT/tools/pic32-tools/1.43-pic32gcc/bin/bin/../../lib/gcc/pic32mx/4.8.3/../../../../pic32mx/lib/size/libm.a(lib_a-w_fmod.o)
 .comment       0x00000000       0x3c /home/ishyro/.arduino15/packages/chipKIT/tools/pic32-tools/1.43-pic32gcc/bin/bin/../../lib/gcc/pic32mx/4.8.3/../../../../pic32mx/lib/size/libm.a(lib_a-w_sqrt.o)
 .comment       0x00000000       0x3c /home/ishyro/.arduino15/packages/chipKIT/tools/pic32-tools/1.43-pic32gcc/bin/bin/../../lib/gcc/pic32mx/4.8.3/../../../../pic32mx/lib/size/libm.a(lib_a-e_atan2.o)
 .comment       0x00000000       0x3c /home/ishyro/.arduino15/packages/chipKIT/tools/pic32-tools/1.43-pic32gcc/bin/bin/../../lib/gcc/pic32mx/4.8.3/../../../../pic32mx/lib/size/libm.a(lib_a-e_fmod.o)
 .comment       0x00000000       0x3c /home/ishyro/.arduino15/packages/chipKIT/tools/pic32-tools/1.43-pic32gcc/bin/bin/../../lib/gcc/pic32mx/4.8.3/../../../../pic32mx/lib/size/libm.a(lib_a-e_rem_pio2.o)
 .comment       0x00000000       0x3c /home/ishyro/.arduino15/packages/chipKIT/tools/pic32-tools/1.43-pic32gcc/bin/bin/../../lib/gcc/pic32mx/4.8.3/../../../../pic32mx/lib/size/libm.a(lib_a-e_sqrt.o)
 .comment       0x00000000       0x3c /home/ishyro/.arduino15/packages/chipKIT/tools/pic32-tools/1.43-pic32gcc/bin/bin/../../lib/gcc/pic32mx/4.8.3/../../../../pic32mx/lib/size/libm.a(lib_a-k_cos.o)
 .comment       0x00000000       0x3c /home/ishyro/.arduino15/packages/chipKIT/tools/pic32-tools/1.43-pic32gcc/bin/bin/../../lib/gcc/pic32mx/4.8.3/../../../../pic32mx/lib/size/libm.a(lib_a-k_rem_pio2.o)
 .comment       0x00000000       0x3c /home/ishyro/.arduino15/packages/chipKIT/tools/pic32-tools/1.43-pic32gcc/bin/bin/../../lib/gcc/pic32mx/4.8.3/../../../../pic32mx/lib/size/libm.a(lib_a-k_sin.o)
 .comment       0x00000000       0x3c /home/ishyro/.arduino15/packages/chipKIT/tools/pic32-tools/1.43-pic32gcc/bin/bin/../../lib/gcc/pic32mx/4.8.3/../../../../pic32mx/lib/size/libm.a(lib_a-s_atan.o)
 .comment       0x00000000       0x3c /home/ishyro/.arduino15/packages/chipKIT/tools/pic32-tools/1.43-pic32gcc/bin/bin/../../lib/gcc/pic32mx/4.8.3/../../../../pic32mx/lib/size/libm.a(lib_a-s_fabs.o)
 .comment       0x00000000       0x3c /home/ishyro/.arduino15/packages/chipKIT/tools/pic32-tools/1.43-pic32gcc/bin/bin/../../lib/gcc/pic32mx/4.8.3/../../../../pic32mx/lib/size/libm.a(lib_a-s_floor.o)
 .comment       0x00000000       0x3c /home/ishyro/.arduino15/packages/chipKIT/tools/pic32-tools/1.43-pic32gcc/bin/bin/../../lib/gcc/pic32mx/4.8.3/../../../../pic32mx/lib/size/libm.a(lib_a-s_lib_ver.o)
 .comment       0x00000000       0x3c /home/ishyro/.arduino15/packages/chipKIT/tools/pic32-tools/1.43-pic32gcc/bin/bin/../../lib/gcc/pic32mx/4.8.3/../../../../pic32mx/lib/size/libm.a(lib_a-s_matherr.o)
 .comment       0x00000000       0x3c /home/ishyro/.arduino15/packages/chipKIT/tools/pic32-tools/1.43-pic32gcc/bin/bin/../../lib/gcc/pic32mx/4.8.3/../../../../pic32mx/lib/size/libm.a(lib_a-s_scalbn.o)
 .comment       0x00000000       0x3c /home/ishyro/.arduino15/packages/chipKIT/tools/pic32-tools/1.43-pic32gcc/bin/bin/../../lib/gcc/pic32mx/4.8.3/../../../../pic32mx/lib/size/libm.a(lib_a-s_copysign.o)
 .comment       0x00000000       0x3c /home/ishyro/.arduino15/packages/chipKIT/tools/pic32-tools/1.43-pic32gcc/bin/bin/../../lib/gcc/pic32mx/4.8.3/size/crtbegin.o
 .comment       0x00000000       0x3c /home/ishyro/.arduino15/packages/chipKIT/tools/pic32-tools/1.43-pic32gcc/bin/bin/../../lib/gcc/pic32mx/4.8.3/size/crtend.o
 .comment       0x00000000       0x3c /home/ishyro/.arduino15/packages/chipKIT/tools/pic32-tools/1.43-pic32gcc/bin/bin/../../lib/gcc/pic32mx/4.8.3/size/libgcc.a(_lshrdi3.o)
 .comment       0x00000000       0x3c /home/ishyro/.arduino15/packages/chipKIT/tools/pic32-tools/1.43-pic32gcc/bin/bin/../../lib/gcc/pic32mx/4.8.3/size/libgcc.a(_ashldi3.o)
 .comment       0x00000000       0x3c /home/ishyro/.arduino15/packages/chipKIT/tools/pic32-tools/1.43-pic32gcc/bin/bin/../../lib/gcc/pic32mx/4.8.3/size/libgcc.a(_ashrdi3.o)
 .comment       0x00000000       0x3c /home/ishyro/.arduino15/packages/chipKIT/tools/pic32-tools/1.43-pic32gcc/bin/bin/../../lib/gcc/pic32mx/4.8.3/size/libgcc.a(_divdi3.o)
 .comment       0x00000000       0x3c /home/ishyro/.arduino15/packages/chipKIT/tools/pic32-tools/1.43-pic32gcc/bin/bin/../../lib/gcc/pic32mx/4.8.3/size/libgcc.a(_moddi3.o)
 .comment       0x00000000       0x3c /home/ishyro/.arduino15/packages/chipKIT/tools/pic32-tools/1.43-pic32gcc/bin/bin/../../lib/gcc/pic32mx/4.8.3/size/libgcc.a(addsf3.o)
 .comment       0x00000000       0x3c /home/ishyro/.arduino15/packages/chipKIT/tools/pic32-tools/1.43-pic32gcc/bin/bin/../../lib/gcc/pic32mx/4.8.3/size/libgcc.a(divsf3.o)
 .comment       0x00000000       0x3c /home/ishyro/.arduino15/packages/chipKIT/tools/pic32-tools/1.43-pic32gcc/bin/bin/../../lib/gcc/pic32mx/4.8.3/size/libgcc.a(eqsf2.o)
 .comment       0x00000000       0x3c /home/ishyro/.arduino15/packages/chipKIT/tools/pic32-tools/1.43-pic32gcc/bin/bin/../../lib/gcc/pic32mx/4.8.3/size/libgcc.a(gesf2.o)
 .comment       0x00000000       0x3c /home/ishyro/.arduino15/packages/chipKIT/tools/pic32-tools/1.43-pic32gcc/bin/bin/../../lib/gcc/pic32mx/4.8.3/size/libgcc.a(lesf2.o)
 .comment       0x00000000       0x3c /home/ishyro/.arduino15/packages/chipKIT/tools/pic32-tools/1.43-pic32gcc/bin/bin/../../lib/gcc/pic32mx/4.8.3/size/libgcc.a(mulsf3.o)
 .comment       0x00000000       0x3c /home/ishyro/.arduino15/packages/chipKIT/tools/pic32-tools/1.43-pic32gcc/bin/bin/../../lib/gcc/pic32mx/4.8.3/size/libgcc.a(subsf3.o)
 .comment       0x00000000       0x3c /home/ishyro/.arduino15/packages/chipKIT/tools/pic32-tools/1.43-pic32gcc/bin/bin/../../lib/gcc/pic32mx/4.8.3/size/libgcc.a(fixsfsi.o)
 .comment       0x00000000       0x3c /home/ishyro/.arduino15/packages/chipKIT/tools/pic32-tools/1.43-pic32gcc/bin/bin/../../lib/gcc/pic32mx/4.8.3/size/libgcc.a(floatsisf.o)
 .comment       0x00000000       0x3c /home/ishyro/.arduino15/packages/chipKIT/tools/pic32-tools/1.43-pic32gcc/bin/bin/../../lib/gcc/pic32mx/4.8.3/size/libgcc.a(fixsfdi.o)
 .comment       0x00000000       0x3c /home/ishyro/.arduino15/packages/chipKIT/tools/pic32-tools/1.43-pic32gcc/bin/bin/../../lib/gcc/pic32mx/4.8.3/size/libgcc.a(floatdisf.o)
 .comment       0x00000000       0x3c /home/ishyro/.arduino15/packages/chipKIT/tools/pic32-tools/1.43-pic32gcc/bin/bin/../../lib/gcc/pic32mx/4.8.3/size/libgcc.a(adddf3.o)
 .comment       0x00000000       0x3c /home/ishyro/.arduino15/packages/chipKIT/tools/pic32-tools/1.43-pic32gcc/bin/bin/../../lib/gcc/pic32mx/4.8.3/size/libgcc.a(divdf3.o)
 .comment       0x00000000       0x3c /home/ishyro/.arduino15/packages/chipKIT/tools/pic32-tools/1.43-pic32gcc/bin/bin/../../lib/gcc/pic32mx/4.8.3/size/libgcc.a(eqdf2.o)
 .comment       0x00000000       0x3c /home/ishyro/.arduino15/packages/chipKIT/tools/pic32-tools/1.43-pic32gcc/bin/bin/../../lib/gcc/pic32mx/4.8.3/size/libgcc.a(gedf2.o)
 .comment       0x00000000       0x3c /home/ishyro/.arduino15/packages/chipKIT/tools/pic32-tools/1.43-pic32gcc/bin/bin/../../lib/gcc/pic32mx/4.8.3/size/libgcc.a(ledf2.o)
 .comment       0x00000000       0x3c /home/ishyro/.arduino15/packages/chipKIT/tools/pic32-tools/1.43-pic32gcc/bin/bin/../../lib/gcc/pic32mx/4.8.3/size/libgcc.a(muldf3.o)
 .comment       0x00000000       0x3c /home/ishyro/.arduino15/packages/chipKIT/tools/pic32-tools/1.43-pic32gcc/bin/bin/../../lib/gcc/pic32mx/4.8.3/size/libgcc.a(subdf3.o)
 .comment       0x00000000       0x3c /home/ishyro/.arduino15/packages/chipKIT/tools/pic32-tools/1.43-pic32gcc/bin/bin/../../lib/gcc/pic32mx/4.8.3/size/libgcc.a(fixdfsi.o)
 .comment       0x00000000       0x3c /home/ishyro/.arduino15/packages/chipKIT/tools/pic32-tools/1.43-pic32gcc/bin/bin/../../lib/gcc/pic32mx/4.8.3/size/libgcc.a(fixunsdfsi.o)
 .comment       0x00000000       0x3c /home/ishyro/.arduino15/packages/chipKIT/tools/pic32-tools/1.43-pic32gcc/bin/bin/../../lib/gcc/pic32mx/4.8.3/size/libgcc.a(floatsidf.o)
 .comment       0x00000000       0x3c /home/ishyro/.arduino15/packages/chipKIT/tools/pic32-tools/1.43-pic32gcc/bin/bin/../../lib/gcc/pic32mx/4.8.3/size/libgcc.a(floatunsidf.o)
 .comment       0x00000000       0x3c /home/ishyro/.arduino15/packages/chipKIT/tools/pic32-tools/1.43-pic32gcc/bin/bin/../../lib/gcc/pic32mx/4.8.3/size/libgcc.a(extendsfdf2.o)
 .comment       0x00000000       0x3c /home/ishyro/.arduino15/packages/chipKIT/tools/pic32-tools/1.43-pic32gcc/bin/bin/../../lib/gcc/pic32mx/4.8.3/size/libgcc.a(truncdfsf2.o)
 .comment       0x00000000       0x3c /home/ishyro/.arduino15/packages/chipKIT/tools/pic32-tools/1.43-pic32gcc/bin/bin/../../lib/gcc/pic32mx/4.8.3/../../../../pic32mx/lib/size/libc.a(lib_a-abort.o)
 .comment       0x00000000       0x3c /home/ishyro/.arduino15/packages/chipKIT/tools/pic32-tools/1.43-pic32gcc/bin/bin/../../lib/gcc/pic32mx/4.8.3/../../../../pic32mx/lib/size/libc.a(lib_a-errno.o)
 .comment       0x00000000       0x3c /home/ishyro/.arduino15/packages/chipKIT/tools/pic32-tools/1.43-pic32gcc/bin/bin/../../lib/gcc/pic32mx/4.8.3/../../../../pic32mx/lib/size/libc.a(lib_a-impure.o)
 .comment       0x00000000       0x3c /home/ishyro/.arduino15/packages/chipKIT/tools/pic32-tools/1.43-pic32gcc/bin/bin/../../lib/gcc/pic32mx/4.8.3/../../../../pic32mx/lib/size/libc.a(lib_a-malloc.o)
 .comment       0x00000000       0x3c /home/ishyro/.arduino15/packages/chipKIT/tools/pic32-tools/1.43-pic32gcc/bin/bin/../../lib/gcc/pic32mx/4.8.3/../../../../pic32mx/lib/size/libc.a(lib_a-mallocr.o)
 .comment       0x00000000       0x3c /home/ishyro/.arduino15/packages/chipKIT/tools/pic32-tools/1.43-pic32gcc/bin/bin/../../lib/gcc/pic32mx/4.8.3/../../../../pic32mx/lib/size/libc.a(lib_a-memcpy.o)
 .comment       0x00000000       0x3c /home/ishyro/.arduino15/packages/chipKIT/tools/pic32-tools/1.43-pic32gcc/bin/bin/../../lib/gcc/pic32mx/4.8.3/../../../../pic32mx/lib/size/libc.a(lib_a-memmove.o)
 .comment       0x00000000       0x3c /home/ishyro/.arduino15/packages/chipKIT/tools/pic32-tools/1.43-pic32gcc/bin/bin/../../lib/gcc/pic32mx/4.8.3/../../../../pic32mx/lib/size/libc.a(lib_a-mlock.o)
 .comment       0x00000000       0x3c /home/ishyro/.arduino15/packages/chipKIT/tools/pic32-tools/1.43-pic32gcc/bin/bin/../../lib/gcc/pic32mx/4.8.3/../../../../pic32mx/lib/size/libc.a(lib_a-sbrkr.o)
 .comment       0x00000000       0x3c /home/ishyro/.arduino15/packages/chipKIT/tools/pic32-tools/1.43-pic32gcc/bin/bin/../../lib/gcc/pic32mx/4.8.3/../../../../pic32mx/lib/size/libc.a(lib_a-signal.o)
 .comment       0x00000000       0x3c /home/ishyro/.arduino15/packages/chipKIT/tools/pic32-tools/1.43-pic32gcc/bin/bin/../../lib/gcc/pic32mx/4.8.3/../../../../pic32mx/lib/size/libc.a(lib_a-signalr.o)
 .comment       0x00000000       0x3c /home/ishyro/.arduino15/packages/chipKIT/tools/pic32-tools/1.43-pic32gcc/bin/bin/../../lib/gcc/pic32mx/4.8.3/../../../../pic32mx/lib/size/libc.a(lib_a-snprintf.o)
 .comment       0x00000000       0x3c /home/ishyro/.arduino15/packages/chipKIT/tools/pic32-tools/1.43-pic32gcc/bin/bin/../../lib/gcc/pic32mx/4.8.3/../../../../pic32mx/lib/size/libc.a(lib_a-strcmp.o)
 .comment       0x00000000       0x3c /home/ishyro/.arduino15/packages/chipKIT/tools/pic32-tools/1.43-pic32gcc/bin/bin/../../lib/gcc/pic32mx/4.8.3/../../../../pic32mx/lib/size/libc.a(lib_a-strlen.o)
 .comment       0x00000000       0x3c /home/ishyro/.arduino15/packages/chipKIT/tools/pic32-tools/1.43-pic32gcc/bin/bin/../../lib/gcc/pic32mx/4.8.3/../../../../pic32mx/lib/size/libc.a(lib_a-svfprintf.o)
 .comment       0x00000000       0x3c /home/ishyro/.arduino15/packages/chipKIT/tools/pic32-tools/1.43-pic32gcc/bin/bin/../../lib/gcc/pic32mx/4.8.3/../../../../pic32mx/lib/size/libc.a(lib_a-dtoa.o)
 .comment       0x00000000       0x3c /home/ishyro/.arduino15/packages/chipKIT/tools/pic32-tools/1.43-pic32gcc/bin/bin/../../lib/gcc/pic32mx/4.8.3/../../../../pic32mx/lib/size/libc.a(lib_a-freer.o)
 .comment       0x00000000       0x3c /home/ishyro/.arduino15/packages/chipKIT/tools/pic32-tools/1.43-pic32gcc/bin/bin/../../lib/gcc/pic32mx/4.8.3/../../../../pic32mx/lib/size/libc.a(lib_a-locale.o)
 .comment       0x00000000       0x3c /home/ishyro/.arduino15/packages/chipKIT/tools/pic32-tools/1.43-pic32gcc/bin/bin/../../lib/gcc/pic32mx/4.8.3/../../../../pic32mx/lib/size/libc.a(lib_a-memchr.o)
 .comment       0x00000000       0x3c /home/ishyro/.arduino15/packages/chipKIT/tools/pic32-tools/1.43-pic32gcc/bin/bin/../../lib/gcc/pic32mx/4.8.3/../../../../pic32mx/lib/size/libc.a(lib_a-mprec.o)
 .comment       0x00000000       0x3c /home/ishyro/.arduino15/packages/chipKIT/tools/pic32-tools/1.43-pic32gcc/bin/bin/../../lib/gcc/pic32mx/4.8.3/../../../../pic32mx/lib/size/libc.a(lib_a-reent.o)
 .comment       0x00000000       0x3c /home/ishyro/.arduino15/packages/chipKIT/tools/pic32-tools/1.43-pic32gcc/bin/bin/../../lib/gcc/pic32mx/4.8.3/../../../../pic32mx/lib/size/libc.a(lib_a-svfiprintf.o)
 .comment       0x00000000       0x3c /home/ishyro/.arduino15/packages/chipKIT/tools/pic32-tools/1.43-pic32gcc/bin/bin/../../lib/gcc/pic32mx/4.8.3/../../../../pic32mx/lib/size/libc.a(lib_a-callocr.o)
 .comment       0x00000000       0x3c /home/ishyro/.arduino15/packages/chipKIT/tools/pic32-tools/1.43-pic32gcc/bin/bin/../../lib/gcc/pic32mx/4.8.3/../../../../pic32mx/lib/size/libc.a(lib_a-memset.o)
 .comment       0x00000000       0x3c /home/ishyro/.arduino15/packages/chipKIT/tools/pic32-tools/1.43-pic32gcc/bin/bin/../../lib/gcc/pic32mx/4.8.3/../../../../pic32mx/lib/size/libc.a(lib_a-reallocr.o)
 .comment       0x0000003b       0x4b /home/ishyro/.arduino15/packages/chipKIT/tools/pic32-tools/1.43-pic32gcc/bin/bin/../../lib/gcc/pic32mx/4.8.3/../../../../pic32mx/lib/size/libpic32.a(sbrk.o)
                                 0x87 (size before relaxing)
 .comment       0x00000000       0x3c /home/ishyro/.arduino15/packages/chipKIT/tools/pic32-tools/1.43-pic32gcc/bin/bin/../../lib/gcc/pic32mx/4.8.3/../../../../pic32mx/lib/size/libpic32.a(default-bootstrap-exception-handler.o)
 .comment       0x00000000       0x3c /home/ishyro/.arduino15/packages/chipKIT/tools/pic32-tools/1.43-pic32gcc/bin/bin/../../lib/gcc/pic32mx/4.8.3/../../../../pic32mx/lib/size/libpic32.a(default-on-reset.o)
 .comment       0x00000000       0x3c /home/ishyro/.arduino15/packages/chipKIT/tools/pic32-tools/1.43-pic32gcc/bin/bin/../../lib/gcc/pic32mx/4.8.3/../../../../pic32mx/lib/size/libpic32.a(default-on-bootstrap.o)
 .comment       0x00000000       0x3c /home/ishyro/.arduino15/packages/chipKIT/tools/pic32-tools/1.43-pic32gcc/bin/bin/../../lib/gcc/pic32mx/4.8.3/../../../../pic32mx/lib/size/libpic32.a(_exit.o)
 .comment       0x00000000       0x3c /home/ishyro/.arduino15/packages/chipKIT/tools/pic32-tools/1.43-pic32gcc/bin/bin/../../lib/gcc/pic32mx/4.8.3/../../../../pic32mx/lib/size/libpic32.a(kill.o)
 .comment       0x00000000       0x3c /home/ishyro/.arduino15/packages/chipKIT/tools/pic32-tools/1.43-pic32gcc/bin/bin/../../lib/gcc/pic32mx/4.8.3/../../../../pic32mx/lib/size/libpic32.a(getpid.o)
 .comment       0x00000000       0x3c /home/ishyro/.arduino15/packages/chipKIT/tools/pic32-tools/1.43-pic32gcc/bin/bin/../../lib/gcc/pic32mx/4.8.3/size/libgcc.a(_udivdi3.o)
 .comment       0x00000000       0x3c /home/ishyro/.arduino15/packages/chipKIT/tools/pic32-tools/1.43-pic32gcc/bin/bin/../../lib/gcc/pic32mx/4.8.3/size/libgcc.a(_umoddi3.o)

.debug
 *(.debug)

.line
 *(.line)

.debug_srcinfo
 *(.debug_srcinfo)

.debug_sfnames
 *(.debug_sfnames)

.debug_aranges  0x00000000      0xe00
 *(.debug_aranges)
 .debug_aranges
                0x00000000       0x18 /home/ishyro/Documents/Info/M1/S2/OMicroB-next/src/byterun/pic32/Board_Data.o
 .debug_aranges
                0x00000018       0x28 /home/ishyro/Documents/Info/M1/S2/OMicroB-next/src/byterun/pic32/cores/core.a(exceptions.c.o)
 .debug_aranges
                0x00000040       0x88 /home/ishyro/Documents/Info/M1/S2/OMicroB-next/src/byterun/pic32/cores/core.a(task_manager.c.o)
 .debug_aranges
                0x000000c8      0x218 /home/ishyro/Documents/Info/M1/S2/OMicroB-next/src/byterun/pic32/cores/core.a(vector_table.S.o)
 .debug_aranges
                0x000002e0       0x88 /home/ishyro/Documents/Info/M1/S2/OMicroB-next/src/byterun/pic32/cores/core.a(wiring.c.o)
 .debug_aranges
                0x00000368       0x68 /home/ishyro/Documents/Info/M1/S2/OMicroB-next/src/byterun/pic32/cores/core.a(wiring_analog.c.o)
 .debug_aranges
                0x000003d0       0x38 /home/ishyro/Documents/Info/M1/S2/OMicroB-next/src/byterun/pic32/cores/core.a(wiring_digital.c.o)
 .debug_aranges
                0x00000408       0x90 /home/ishyro/Documents/Info/M1/S2/OMicroB-next/src/byterun/pic32/cores/core.a(USB.cpp.o)
 .debug_aranges
                0x00000498       0xf0 /home/ishyro/Documents/Info/M1/S2/OMicroB-next/src/byterun/pic32/cores/core.a(USB_CDCACM.cpp.o)
 .debug_aranges
                0x00000588       0x98 /home/ishyro/Documents/Info/M1/S2/OMicroB-next/src/byterun/pic32/cores/core.a(USB_FS.cpp.o)
 .debug_aranges
                0x00000620       0xc8 /home/ishyro/Documents/Info/M1/S2/OMicroB-next/src/byterun/pic32/cores/core.a(WSystem.c.o)
 .debug_aranges
                0x000006e8       0x20 /home/ishyro/Documents/Info/M1/S2/OMicroB-next/src/byterun/pic32/cores/core.a(pins_arduino.c.o)
 .debug_aranges
                0x00000708       0xf8 /home/ishyro/Documents/Info/M1/S2/OMicroB-next/src/byterun/pic32/cores/core.a(Print.cpp.o)
 .debug_aranges
                0x00000800       0x28 /home/ishyro/Documents/Info/M1/S2/OMicroB-next/src/byterun/pic32/cores/core.a(doprnt.cpp.o)
 .debug_aranges
                0x00000828       0x58 /home/ishyro/.arduino15/packages/chipKIT/tools/pic32-tools/1.43-pic32gcc/bin/bin/../../lib/gcc/pic32mx/4.8.3/../../../../pic32mx/lib/size/libsupc++.a(class_type_info.o)
 .debug_aranges
                0x00000880       0x20 /home/ishyro/.arduino15/packages/chipKIT/tools/pic32-tools/1.43-pic32gcc/bin/bin/../../lib/gcc/pic32mx/4.8.3/../../../../pic32mx/lib/size/libsupc++.a(del_op.o)
 .debug_aranges
                0x000008a0       0x48 /home/ishyro/.arduino15/packages/chipKIT/tools/pic32-tools/1.43-pic32gcc/bin/bin/../../lib/gcc/pic32mx/4.8.3/../../../../pic32mx/lib/size/libsupc++.a(si_class_type_info.o)
 .debug_aranges
                0x000008e8       0x48 /home/ishyro/.arduino15/packages/chipKIT/tools/pic32-tools/1.43-pic32gcc/bin/bin/../../lib/gcc/pic32mx/4.8.3/../../../../pic32mx/lib/size/libsupc++.a(tinfo.o)
 .debug_aranges
                0x00000930       0x50 /home/ishyro/.arduino15/packages/chipKIT/tools/pic32-tools/1.43-pic32gcc/bin/bin/../../lib/gcc/pic32mx/4.8.3/../../../../pic32mx/lib/size/libsupc++.a(vmi_class_type_info.o)
 .debug_aranges
                0x00000980       0x28 /home/ishyro/.arduino15/packages/chipKIT/tools/pic32-tools/1.43-pic32gcc/bin/bin/../../lib/gcc/pic32mx/4.8.3/../../../../pic32mx/lib/size/libsupc++.a(pure.o)
 .debug_aranges
                0x000009a8       0x48 /home/ishyro/.arduino15/packages/chipKIT/tools/pic32-tools/1.43-pic32gcc/bin/bin/../../lib/gcc/pic32mx/4.8.3/../../../../pic32mx/lib/size/libsupc++.a(eh_terminate.o)
 .debug_aranges
                0x000009f0       0x18 /home/ishyro/.arduino15/packages/chipKIT/tools/pic32-tools/1.43-pic32gcc/bin/bin/../../lib/gcc/pic32mx/4.8.3/../../../../pic32mx/lib/size/libsupc++.a(eh_unex_handler.o)
 .debug_aranges
                0x00000a08       0x18 /home/ishyro/.arduino15/packages/chipKIT/tools/pic32-tools/1.43-pic32gcc/bin/bin/../../lib/gcc/pic32mx/4.8.3/../../../../pic32mx/lib/size/libsupc++.a(eh_term_handler.o)
 .debug_aranges
                0x00000a20       0x20 /home/ishyro/.arduino15/packages/chipKIT/tools/pic32-tools/1.43-pic32gcc/bin/bin/../../lib/gcc/pic32mx/4.8.3/size/libgcc.a(_lshrdi3.o)
 .debug_aranges
                0x00000a40       0x20 /home/ishyro/.arduino15/packages/chipKIT/tools/pic32-tools/1.43-pic32gcc/bin/bin/../../lib/gcc/pic32mx/4.8.3/size/libgcc.a(_ashldi3.o)
 .debug_aranges
                0x00000a60       0x20 /home/ishyro/.arduino15/packages/chipKIT/tools/pic32-tools/1.43-pic32gcc/bin/bin/../../lib/gcc/pic32mx/4.8.3/size/libgcc.a(_ashrdi3.o)
 .debug_aranges
                0x00000a80       0x20 /home/ishyro/.arduino15/packages/chipKIT/tools/pic32-tools/1.43-pic32gcc/bin/bin/../../lib/gcc/pic32mx/4.8.3/size/libgcc.a(_divdi3.o)
 .debug_aranges
                0x00000aa0       0x20 /home/ishyro/.arduino15/packages/chipKIT/tools/pic32-tools/1.43-pic32gcc/bin/bin/../../lib/gcc/pic32mx/4.8.3/size/libgcc.a(_moddi3.o)
 .debug_aranges
                0x00000ac0       0x20 /home/ishyro/.arduino15/packages/chipKIT/tools/pic32-tools/1.43-pic32gcc/bin/bin/../../lib/gcc/pic32mx/4.8.3/size/libgcc.a(addsf3.o)
 .debug_aranges
                0x00000ae0       0x20 /home/ishyro/.arduino15/packages/chipKIT/tools/pic32-tools/1.43-pic32gcc/bin/bin/../../lib/gcc/pic32mx/4.8.3/size/libgcc.a(divsf3.o)
 .debug_aranges
                0x00000b00       0x20 /home/ishyro/.arduino15/packages/chipKIT/tools/pic32-tools/1.43-pic32gcc/bin/bin/../../lib/gcc/pic32mx/4.8.3/size/libgcc.a(eqsf2.o)
 .debug_aranges
                0x00000b20       0x20 /home/ishyro/.arduino15/packages/chipKIT/tools/pic32-tools/1.43-pic32gcc/bin/bin/../../lib/gcc/pic32mx/4.8.3/size/libgcc.a(gesf2.o)
 .debug_aranges
                0x00000b40       0x20 /home/ishyro/.arduino15/packages/chipKIT/tools/pic32-tools/1.43-pic32gcc/bin/bin/../../lib/gcc/pic32mx/4.8.3/size/libgcc.a(lesf2.o)
 .debug_aranges
                0x00000b60       0x20 /home/ishyro/.arduino15/packages/chipKIT/tools/pic32-tools/1.43-pic32gcc/bin/bin/../../lib/gcc/pic32mx/4.8.3/size/libgcc.a(mulsf3.o)
 .debug_aranges
                0x00000b80       0x20 /home/ishyro/.arduino15/packages/chipKIT/tools/pic32-tools/1.43-pic32gcc/bin/bin/../../lib/gcc/pic32mx/4.8.3/size/libgcc.a(subsf3.o)
 .debug_aranges
                0x00000ba0       0x20 /home/ishyro/.arduino15/packages/chipKIT/tools/pic32-tools/1.43-pic32gcc/bin/bin/../../lib/gcc/pic32mx/4.8.3/size/libgcc.a(fixsfsi.o)
 .debug_aranges
                0x00000bc0       0x20 /home/ishyro/.arduino15/packages/chipKIT/tools/pic32-tools/1.43-pic32gcc/bin/bin/../../lib/gcc/pic32mx/4.8.3/size/libgcc.a(floatsisf.o)
 .debug_aranges
                0x00000be0       0x20 /home/ishyro/.arduino15/packages/chipKIT/tools/pic32-tools/1.43-pic32gcc/bin/bin/../../lib/gcc/pic32mx/4.8.3/size/libgcc.a(fixsfdi.o)
 .debug_aranges
                0x00000c00       0x20 /home/ishyro/.arduino15/packages/chipKIT/tools/pic32-tools/1.43-pic32gcc/bin/bin/../../lib/gcc/pic32mx/4.8.3/size/libgcc.a(floatdisf.o)
 .debug_aranges
                0x00000c20       0x20 /home/ishyro/.arduino15/packages/chipKIT/tools/pic32-tools/1.43-pic32gcc/bin/bin/../../lib/gcc/pic32mx/4.8.3/size/libgcc.a(adddf3.o)
 .debug_aranges
                0x00000c40       0x20 /home/ishyro/.arduino15/packages/chipKIT/tools/pic32-tools/1.43-pic32gcc/bin/bin/../../lib/gcc/pic32mx/4.8.3/size/libgcc.a(divdf3.o)
 .debug_aranges
                0x00000c60       0x20 /home/ishyro/.arduino15/packages/chipKIT/tools/pic32-tools/1.43-pic32gcc/bin/bin/../../lib/gcc/pic32mx/4.8.3/size/libgcc.a(eqdf2.o)
 .debug_aranges
                0x00000c80       0x20 /home/ishyro/.arduino15/packages/chipKIT/tools/pic32-tools/1.43-pic32gcc/bin/bin/../../lib/gcc/pic32mx/4.8.3/size/libgcc.a(gedf2.o)
 .debug_aranges
                0x00000ca0       0x20 /home/ishyro/.arduino15/packages/chipKIT/tools/pic32-tools/1.43-pic32gcc/bin/bin/../../lib/gcc/pic32mx/4.8.3/size/libgcc.a(ledf2.o)
 .debug_aranges
                0x00000cc0       0x20 /home/ishyro/.arduino15/packages/chipKIT/tools/pic32-tools/1.43-pic32gcc/bin/bin/../../lib/gcc/pic32mx/4.8.3/size/libgcc.a(muldf3.o)
 .debug_aranges
                0x00000ce0       0x20 /home/ishyro/.arduino15/packages/chipKIT/tools/pic32-tools/1.43-pic32gcc/bin/bin/../../lib/gcc/pic32mx/4.8.3/size/libgcc.a(subdf3.o)
 .debug_aranges
                0x00000d00       0x20 /home/ishyro/.arduino15/packages/chipKIT/tools/pic32-tools/1.43-pic32gcc/bin/bin/../../lib/gcc/pic32mx/4.8.3/size/libgcc.a(fixdfsi.o)
 .debug_aranges
                0x00000d20       0x20 /home/ishyro/.arduino15/packages/chipKIT/tools/pic32-tools/1.43-pic32gcc/bin/bin/../../lib/gcc/pic32mx/4.8.3/size/libgcc.a(fixunsdfsi.o)
 .debug_aranges
                0x00000d40       0x20 /home/ishyro/.arduino15/packages/chipKIT/tools/pic32-tools/1.43-pic32gcc/bin/bin/../../lib/gcc/pic32mx/4.8.3/size/libgcc.a(floatsidf.o)
 .debug_aranges
                0x00000d60       0x20 /home/ishyro/.arduino15/packages/chipKIT/tools/pic32-tools/1.43-pic32gcc/bin/bin/../../lib/gcc/pic32mx/4.8.3/size/libgcc.a(floatunsidf.o)
 .debug_aranges
                0x00000d80       0x20 /home/ishyro/.arduino15/packages/chipKIT/tools/pic32-tools/1.43-pic32gcc/bin/bin/../../lib/gcc/pic32mx/4.8.3/size/libgcc.a(extendsfdf2.o)
 .debug_aranges
                0x00000da0       0x20 /home/ishyro/.arduino15/packages/chipKIT/tools/pic32-tools/1.43-pic32gcc/bin/bin/../../lib/gcc/pic32mx/4.8.3/size/libgcc.a(truncdfsf2.o)
 .debug_aranges
                0x00000dc0       0x20 /home/ishyro/.arduino15/packages/chipKIT/tools/pic32-tools/1.43-pic32gcc/bin/bin/../../lib/gcc/pic32mx/4.8.3/size/libgcc.a(_udivdi3.o)
 .debug_aranges
                0x00000de0       0x20 /home/ishyro/.arduino15/packages/chipKIT/tools/pic32-tools/1.43-pic32gcc/bin/bin/../../lib/gcc/pic32mx/4.8.3/size/libgcc.a(_umoddi3.o)

.debug_pubnames
 *(.debug_pubnames)

.debug_info     0x00000000    0x263ff
 *(.debug_info .gnu.linkonce.wi.*)
 .debug_info    0x00000000      0x13a /home/ishyro/Documents/Info/M1/S2/OMicroB-next/src/byterun/pic32/Board_Data.o
 .debug_info    0x0000013a      0x2ff /home/ishyro/Documents/Info/M1/S2/OMicroB-next/src/byterun/pic32/cores/core.a(exceptions.c.o)
 .debug_info    0x00000439      0x84f /home/ishyro/Documents/Info/M1/S2/OMicroB-next/src/byterun/pic32/cores/core.a(task_manager.c.o)
 .debug_info    0x00000c88       0xa7 /home/ishyro/Documents/Info/M1/S2/OMicroB-next/src/byterun/pic32/cores/core.a(vector_table.S.o)
 .debug_info    0x00000d2f     0x1b0c /home/ishyro/Documents/Info/M1/S2/OMicroB-next/src/byterun/pic32/cores/core.a(wiring.c.o)
 .debug_info    0x0000283b     0x11c1 /home/ishyro/Documents/Info/M1/S2/OMicroB-next/src/byterun/pic32/cores/core.a(wiring_analog.c.o)
 .debug_info    0x000039fc      0xe1b /home/ishyro/Documents/Info/M1/S2/OMicroB-next/src/byterun/pic32/cores/core.a(wiring_digital.c.o)
 .debug_info    0x00004817     0x410a /home/ishyro/Documents/Info/M1/S2/OMicroB-next/src/byterun/pic32/cores/core.a(USB.cpp.o)
 .debug_info    0x00008921     0x49de /home/ishyro/Documents/Info/M1/S2/OMicroB-next/src/byterun/pic32/cores/core.a(USB_CDCACM.cpp.o)
 .debug_info    0x0000d2ff     0x3841 /home/ishyro/Documents/Info/M1/S2/OMicroB-next/src/byterun/pic32/cores/core.a(USB_FS.cpp.o)
 .debug_info    0x00010b40     0x1074 /home/ishyro/Documents/Info/M1/S2/OMicroB-next/src/byterun/pic32/cores/core.a(WSystem.c.o)
 .debug_info    0x00011bb4      0x74c /home/ishyro/Documents/Info/M1/S2/OMicroB-next/src/byterun/pic32/cores/core.a(pins_arduino.c.o)
 .debug_info    0x00012300     0x343e /home/ishyro/Documents/Info/M1/S2/OMicroB-next/src/byterun/pic32/cores/core.a(Print.cpp.o)
 .debug_info    0x0001573e      0xebb /home/ishyro/Documents/Info/M1/S2/OMicroB-next/src/byterun/pic32/cores/core.a(doprnt.cpp.o)
 .debug_info    0x000165f9     0x13c1 /home/ishyro/.arduino15/packages/chipKIT/tools/pic32-tools/1.43-pic32gcc/bin/bin/../../lib/gcc/pic32mx/4.8.3/../../../../pic32mx/lib/size/libsupc++.a(class_type_info.o)
 .debug_info    0x000179ba      0x578 /home/ishyro/.arduino15/packages/chipKIT/tools/pic32-tools/1.43-pic32gcc/bin/bin/../../lib/gcc/pic32mx/4.8.3/../../../../pic32mx/lib/size/libsupc++.a(del_op.o)
 .debug_info    0x00017f32     0x10e9 /home/ishyro/.arduino15/packages/chipKIT/tools/pic32-tools/1.43-pic32gcc/bin/bin/../../lib/gcc/pic32mx/4.8.3/../../../../pic32mx/lib/size/libsupc++.a(si_class_type_info.o)
 .debug_info    0x0001901b      0xbf3 /home/ishyro/.arduino15/packages/chipKIT/tools/pic32-tools/1.43-pic32gcc/bin/bin/../../lib/gcc/pic32mx/4.8.3/../../../../pic32mx/lib/size/libsupc++.a(tinfo.o)
 .debug_info    0x00019c0e     0x1ca4 /home/ishyro/.arduino15/packages/chipKIT/tools/pic32-tools/1.43-pic32gcc/bin/bin/../../lib/gcc/pic32mx/4.8.3/../../../../pic32mx/lib/size/libsupc++.a(vmi_class_type_info.o)
 .debug_info    0x0001b8b2      0x97d /home/ishyro/.arduino15/packages/chipKIT/tools/pic32-tools/1.43-pic32gcc/bin/bin/../../lib/gcc/pic32mx/4.8.3/../../../../pic32mx/lib/size/libsupc++.a(pure.o)
 .debug_info    0x0001c22f      0xc24 /home/ishyro/.arduino15/packages/chipKIT/tools/pic32-tools/1.43-pic32gcc/bin/bin/../../lib/gcc/pic32mx/4.8.3/../../../../pic32mx/lib/size/libsupc++.a(eh_terminate.o)
 .debug_info    0x0001ce53      0x95f /home/ishyro/.arduino15/packages/chipKIT/tools/pic32-tools/1.43-pic32gcc/bin/bin/../../lib/gcc/pic32mx/4.8.3/../../../../pic32mx/lib/size/libsupc++.a(eh_unex_handler.o)
 .debug_info    0x0001d7b2      0x95c /home/ishyro/.arduino15/packages/chipKIT/tools/pic32-tools/1.43-pic32gcc/bin/bin/../../lib/gcc/pic32mx/4.8.3/../../../../pic32mx/lib/size/libsupc++.a(eh_term_handler.o)
 .debug_info    0x0001e10e      0x2fd /home/ishyro/.arduino15/packages/chipKIT/tools/pic32-tools/1.43-pic32gcc/bin/bin/../../lib/gcc/pic32mx/4.8.3/size/libgcc.a(_lshrdi3.o)
 .debug_info    0x0001e40b      0x2fa /home/ishyro/.arduino15/packages/chipKIT/tools/pic32-tools/1.43-pic32gcc/bin/bin/../../lib/gcc/pic32mx/4.8.3/size/libgcc.a(_ashldi3.o)
 .debug_info    0x0001e705      0x2fd /home/ishyro/.arduino15/packages/chipKIT/tools/pic32-tools/1.43-pic32gcc/bin/bin/../../lib/gcc/pic32mx/4.8.3/size/libgcc.a(_ashrdi3.o)
 .debug_info    0x0001ea02      0x77c /home/ishyro/.arduino15/packages/chipKIT/tools/pic32-tools/1.43-pic32gcc/bin/bin/../../lib/gcc/pic32mx/4.8.3/size/libgcc.a(_divdi3.o)
 .debug_info    0x0001f17e      0x7c7 /home/ishyro/.arduino15/packages/chipKIT/tools/pic32-tools/1.43-pic32gcc/bin/bin/../../lib/gcc/pic32mx/4.8.3/size/libgcc.a(_moddi3.o)
 .debug_info    0x0001f945      0x439 /home/ishyro/.arduino15/packages/chipKIT/tools/pic32-tools/1.43-pic32gcc/bin/bin/../../lib/gcc/pic32mx/4.8.3/size/libgcc.a(addsf3.o)
 .debug_info    0x0001fd7e      0x49e /home/ishyro/.arduino15/packages/chipKIT/tools/pic32-tools/1.43-pic32gcc/bin/bin/../../lib/gcc/pic32mx/4.8.3/size/libgcc.a(divsf3.o)
 .debug_info    0x0002021c      0x303 /home/ishyro/.arduino15/packages/chipKIT/tools/pic32-tools/1.43-pic32gcc/bin/bin/../../lib/gcc/pic32mx/4.8.3/size/libgcc.a(eqsf2.o)
 .debug_info    0x0002051f      0x343 /home/ishyro/.arduino15/packages/chipKIT/tools/pic32-tools/1.43-pic32gcc/bin/bin/../../lib/gcc/pic32mx/4.8.3/size/libgcc.a(gesf2.o)
 .debug_info    0x00020862      0x33d /home/ishyro/.arduino15/packages/chipKIT/tools/pic32-tools/1.43-pic32gcc/bin/bin/../../lib/gcc/pic32mx/4.8.3/size/libgcc.a(lesf2.o)
 .debug_info    0x00020b9f      0x436 /home/ishyro/.arduino15/packages/chipKIT/tools/pic32-tools/1.43-pic32gcc/bin/bin/../../lib/gcc/pic32mx/4.8.3/size/libgcc.a(mulsf3.o)
 .debug_info    0x00020fd5      0x43d /home/ishyro/.arduino15/packages/chipKIT/tools/pic32-tools/1.43-pic32gcc/bin/bin/../../lib/gcc/pic32mx/4.8.3/size/libgcc.a(subsf3.o)
 .debug_info    0x00021412      0x2d5 /home/ishyro/.arduino15/packages/chipKIT/tools/pic32-tools/1.43-pic32gcc/bin/bin/../../lib/gcc/pic32mx/4.8.3/size/libgcc.a(fixsfsi.o)
 .debug_info    0x000216e7      0x331 /home/ishyro/.arduino15/packages/chipKIT/tools/pic32-tools/1.43-pic32gcc/bin/bin/../../lib/gcc/pic32mx/4.8.3/size/libgcc.a(floatsisf.o)
 .debug_info    0x00021a18      0x2d9 /home/ishyro/.arduino15/packages/chipKIT/tools/pic32-tools/1.43-pic32gcc/bin/bin/../../lib/gcc/pic32mx/4.8.3/size/libgcc.a(fixsfdi.o)
 .debug_info    0x00021cf1      0x331 /home/ishyro/.arduino15/packages/chipKIT/tools/pic32-tools/1.43-pic32gcc/bin/bin/../../lib/gcc/pic32mx/4.8.3/size/libgcc.a(floatdisf.o)
 .debug_info    0x00022022      0x626 /home/ishyro/.arduino15/packages/chipKIT/tools/pic32-tools/1.43-pic32gcc/bin/bin/../../lib/gcc/pic32mx/4.8.3/size/libgcc.a(adddf3.o)
 .debug_info    0x00022648      0x697 /home/ishyro/.arduino15/packages/chipKIT/tools/pic32-tools/1.43-pic32gcc/bin/bin/../../lib/gcc/pic32mx/4.8.3/size/libgcc.a(divdf3.o)
 .debug_info    0x00022cdf      0x331 /home/ishyro/.arduino15/packages/chipKIT/tools/pic32-tools/1.43-pic32gcc/bin/bin/../../lib/gcc/pic32mx/4.8.3/size/libgcc.a(eqdf2.o)
 .debug_info    0x00023010      0x375 /home/ishyro/.arduino15/packages/chipKIT/tools/pic32-tools/1.43-pic32gcc/bin/bin/../../lib/gcc/pic32mx/4.8.3/size/libgcc.a(gedf2.o)
 .debug_info    0x00023385      0x36d /home/ishyro/.arduino15/packages/chipKIT/tools/pic32-tools/1.43-pic32gcc/bin/bin/../../lib/gcc/pic32mx/4.8.3/size/libgcc.a(ledf2.o)
 .debug_info    0x000236f2      0x5ff /home/ishyro/.arduino15/packages/chipKIT/tools/pic32-tools/1.43-pic32gcc/bin/bin/../../lib/gcc/pic32mx/4.8.3/size/libgcc.a(muldf3.o)
 .debug_info    0x00023cf1      0x62a /home/ishyro/.arduino15/packages/chipKIT/tools/pic32-tools/1.43-pic32gcc/bin/bin/../../lib/gcc/pic32mx/4.8.3/size/libgcc.a(subdf3.o)
 .debug_info    0x0002431b      0x2fe /home/ishyro/.arduino15/packages/chipKIT/tools/pic32-tools/1.43-pic32gcc/bin/bin/../../lib/gcc/pic32mx/4.8.3/size/libgcc.a(fixdfsi.o)
 .debug_info    0x00024619      0x2f2 /home/ishyro/.arduino15/packages/chipKIT/tools/pic32-tools/1.43-pic32gcc/bin/bin/../../lib/gcc/pic32mx/4.8.3/size/libgcc.a(fixunsdfsi.o)
 .debug_info    0x0002490b      0x320 /home/ishyro/.arduino15/packages/chipKIT/tools/pic32-tools/1.43-pic32gcc/bin/bin/../../lib/gcc/pic32mx/4.8.3/size/libgcc.a(floatsidf.o)
 .debug_info    0x00024c2b      0x17b /home/ishyro/.arduino15/packages/chipKIT/tools/pic32-tools/1.43-pic32gcc/bin/bin/../../lib/gcc/pic32mx/4.8.3/size/libgcc.a(floatunsidf.o)
 .debug_info    0x00024da6      0x3ad /home/ishyro/.arduino15/packages/chipKIT/tools/pic32-tools/1.43-pic32gcc/bin/bin/../../lib/gcc/pic32mx/4.8.3/size/libgcc.a(extendsfdf2.o)
 .debug_info    0x00025153      0x3cd /home/ishyro/.arduino15/packages/chipKIT/tools/pic32-tools/1.43-pic32gcc/bin/bin/../../lib/gcc/pic32mx/4.8.3/size/libgcc.a(truncdfsf2.o)
 .debug_info    0x00025520      0x743 /home/ishyro/.arduino15/packages/chipKIT/tools/pic32-tools/1.43-pic32gcc/bin/bin/../../lib/gcc/pic32mx/4.8.3/size/libgcc.a(_udivdi3.o)
 .debug_info    0x00025c63      0x79c /home/ishyro/.arduino15/packages/chipKIT/tools/pic32-tools/1.43-pic32gcc/bin/bin/../../lib/gcc/pic32mx/4.8.3/size/libgcc.a(_umoddi3.o)

.debug_abbrev   0x00000000     0x65d6
 *(.debug_abbrev)
 .debug_abbrev  0x00000000       0x19 /home/ishyro/Documents/Info/M1/S2/OMicroB-next/src/byterun/pic32/Board_Data.o
 .debug_abbrev  0x00000019       0x85 /home/ishyro/Documents/Info/M1/S2/OMicroB-next/src/byterun/pic32/cores/core.a(exceptions.c.o)
 .debug_abbrev  0x0000009e      0x209 /home/ishyro/Documents/Info/M1/S2/OMicroB-next/src/byterun/pic32/cores/core.a(task_manager.c.o)
 .debug_abbrev  0x000002a7       0x12 /home/ishyro/Documents/Info/M1/S2/OMicroB-next/src/byterun/pic32/cores/core.a(vector_table.S.o)
 .debug_abbrev  0x000002b9      0x3f4 /home/ishyro/Documents/Info/M1/S2/OMicroB-next/src/byterun/pic32/cores/core.a(wiring.c.o)
 .debug_abbrev  0x000006ad      0x36d /home/ishyro/Documents/Info/M1/S2/OMicroB-next/src/byterun/pic32/cores/core.a(wiring_analog.c.o)
 .debug_abbrev  0x00000a1a      0x20e /home/ishyro/Documents/Info/M1/S2/OMicroB-next/src/byterun/pic32/cores/core.a(wiring_digital.c.o)
 .debug_abbrev  0x00000c28      0x75c /home/ishyro/Documents/Info/M1/S2/OMicroB-next/src/byterun/pic32/cores/core.a(USB.cpp.o)
 .debug_abbrev  0x00001384      0x778 /home/ishyro/Documents/Info/M1/S2/OMicroB-next/src/byterun/pic32/cores/core.a(USB_CDCACM.cpp.o)
 .debug_abbrev  0x00001afc      0x5eb /home/ishyro/Documents/Info/M1/S2/OMicroB-next/src/byterun/pic32/cores/core.a(USB_FS.cpp.o)
 .debug_abbrev  0x000020e7      0x2f8 /home/ishyro/Documents/Info/M1/S2/OMicroB-next/src/byterun/pic32/cores/core.a(WSystem.c.o)
 .debug_abbrev  0x000023df       0xbc /home/ishyro/Documents/Info/M1/S2/OMicroB-next/src/byterun/pic32/cores/core.a(pins_arduino.c.o)
 .debug_abbrev  0x0000249b      0x4bf /home/ishyro/Documents/Info/M1/S2/OMicroB-next/src/byterun/pic32/cores/core.a(Print.cpp.o)
 .debug_abbrev  0x0000295a      0x2a1 /home/ishyro/Documents/Info/M1/S2/OMicroB-next/src/byterun/pic32/cores/core.a(doprnt.cpp.o)
 .debug_abbrev  0x00002bfb      0x52c /home/ishyro/.arduino15/packages/chipKIT/tools/pic32-tools/1.43-pic32gcc/bin/bin/../../lib/gcc/pic32mx/4.8.3/../../../../pic32mx/lib/size/libsupc++.a(class_type_info.o)
 .debug_abbrev  0x00003127      0x1bf /home/ishyro/.arduino15/packages/chipKIT/tools/pic32-tools/1.43-pic32gcc/bin/bin/../../lib/gcc/pic32mx/4.8.3/../../../../pic32mx/lib/size/libsupc++.a(del_op.o)
 .debug_abbrev  0x000032e6      0x49a /home/ishyro/.arduino15/packages/chipKIT/tools/pic32-tools/1.43-pic32gcc/bin/bin/../../lib/gcc/pic32mx/4.8.3/../../../../pic32mx/lib/size/libsupc++.a(si_class_type_info.o)
 .debug_abbrev  0x00003780      0x348 /home/ishyro/.arduino15/packages/chipKIT/tools/pic32-tools/1.43-pic32gcc/bin/bin/../../lib/gcc/pic32mx/4.8.3/../../../../pic32mx/lib/size/libsupc++.a(tinfo.o)
 .debug_abbrev  0x00003ac8      0x575 /home/ishyro/.arduino15/packages/chipKIT/tools/pic32-tools/1.43-pic32gcc/bin/bin/../../lib/gcc/pic32mx/4.8.3/../../../../pic32mx/lib/size/libsupc++.a(vmi_class_type_info.o)
 .debug_abbrev  0x0000403d      0x252 /home/ishyro/.arduino15/packages/chipKIT/tools/pic32-tools/1.43-pic32gcc/bin/bin/../../lib/gcc/pic32mx/4.8.3/../../../../pic32mx/lib/size/libsupc++.a(pure.o)
 .debug_abbrev  0x0000428f      0x2e2 /home/ishyro/.arduino15/packages/chipKIT/tools/pic32-tools/1.43-pic32gcc/bin/bin/../../lib/gcc/pic32mx/4.8.3/../../../../pic32mx/lib/size/libsupc++.a(eh_terminate.o)
 .debug_abbrev  0x00004571      0x227 /home/ishyro/.arduino15/packages/chipKIT/tools/pic32-tools/1.43-pic32gcc/bin/bin/../../lib/gcc/pic32mx/4.8.3/../../../../pic32mx/lib/size/libsupc++.a(eh_unex_handler.o)
 .debug_abbrev  0x00004798      0x227 /home/ishyro/.arduino15/packages/chipKIT/tools/pic32-tools/1.43-pic32gcc/bin/bin/../../lib/gcc/pic32mx/4.8.3/../../../../pic32mx/lib/size/libsupc++.a(eh_term_handler.o)
 .debug_abbrev  0x000049bf       0xd7 /home/ishyro/.arduino15/packages/chipKIT/tools/pic32-tools/1.43-pic32gcc/bin/bin/../../lib/gcc/pic32mx/4.8.3/size/libgcc.a(_lshrdi3.o)
 .debug_abbrev  0x00004a96       0xc8 /home/ishyro/.arduino15/packages/chipKIT/tools/pic32-tools/1.43-pic32gcc/bin/bin/../../lib/gcc/pic32mx/4.8.3/size/libgcc.a(_ashldi3.o)
 .debug_abbrev  0x00004b5e       0xd7 /home/ishyro/.arduino15/packages/chipKIT/tools/pic32-tools/1.43-pic32gcc/bin/bin/../../lib/gcc/pic32mx/4.8.3/size/libgcc.a(_ashrdi3.o)
 .debug_abbrev  0x00004c35      0x13e /home/ishyro/.arduino15/packages/chipKIT/tools/pic32-tools/1.43-pic32gcc/bin/bin/../../lib/gcc/pic32mx/4.8.3/size/libgcc.a(_divdi3.o)
 .debug_abbrev  0x00004d73      0x13e /home/ishyro/.arduino15/packages/chipKIT/tools/pic32-tools/1.43-pic32gcc/bin/bin/../../lib/gcc/pic32mx/4.8.3/size/libgcc.a(_moddi3.o)
 .debug_abbrev  0x00004eb1       0xf5 /home/ishyro/.arduino15/packages/chipKIT/tools/pic32-tools/1.43-pic32gcc/bin/bin/../../lib/gcc/pic32mx/4.8.3/size/libgcc.a(addsf3.o)
 .debug_abbrev  0x00004fa6       0xdd /home/ishyro/.arduino15/packages/chipKIT/tools/pic32-tools/1.43-pic32gcc/bin/bin/../../lib/gcc/pic32mx/4.8.3/size/libgcc.a(divsf3.o)
 .debug_abbrev  0x00005083       0xe3 /home/ishyro/.arduino15/packages/chipKIT/tools/pic32-tools/1.43-pic32gcc/bin/bin/../../lib/gcc/pic32mx/4.8.3/size/libgcc.a(eqsf2.o)
 .debug_abbrev  0x00005166       0xe1 /home/ishyro/.arduino15/packages/chipKIT/tools/pic32-tools/1.43-pic32gcc/bin/bin/../../lib/gcc/pic32mx/4.8.3/size/libgcc.a(gesf2.o)
 .debug_abbrev  0x00005247       0xe1 /home/ishyro/.arduino15/packages/chipKIT/tools/pic32-tools/1.43-pic32gcc/bin/bin/../../lib/gcc/pic32mx/4.8.3/size/libgcc.a(lesf2.o)
 .debug_abbrev  0x00005328       0xdd /home/ishyro/.arduino15/packages/chipKIT/tools/pic32-tools/1.43-pic32gcc/bin/bin/../../lib/gcc/pic32mx/4.8.3/size/libgcc.a(mulsf3.o)
 .debug_abbrev  0x00005405       0xf5 /home/ishyro/.arduino15/packages/chipKIT/tools/pic32-tools/1.43-pic32gcc/bin/bin/../../lib/gcc/pic32mx/4.8.3/size/libgcc.a(subsf3.o)
 .debug_abbrev  0x000054fa       0xd4 /home/ishyro/.arduino15/packages/chipKIT/tools/pic32-tools/1.43-pic32gcc/bin/bin/../../lib/gcc/pic32mx/4.8.3/size/libgcc.a(fixsfsi.o)
 .debug_abbrev  0x000055ce       0xf1 /home/ishyro/.arduino15/packages/chipKIT/tools/pic32-tools/1.43-pic32gcc/bin/bin/../../lib/gcc/pic32mx/4.8.3/size/libgcc.a(floatsisf.o)
 .debug_abbrev  0x000056bf       0xd4 /home/ishyro/.arduino15/packages/chipKIT/tools/pic32-tools/1.43-pic32gcc/bin/bin/../../lib/gcc/pic32mx/4.8.3/size/libgcc.a(fixsfdi.o)
 .debug_abbrev  0x00005793       0xf1 /home/ishyro/.arduino15/packages/chipKIT/tools/pic32-tools/1.43-pic32gcc/bin/bin/../../lib/gcc/pic32mx/4.8.3/size/libgcc.a(floatdisf.o)
 .debug_abbrev  0x00005884       0xe2 /home/ishyro/.arduino15/packages/chipKIT/tools/pic32-tools/1.43-pic32gcc/bin/bin/../../lib/gcc/pic32mx/4.8.3/size/libgcc.a(adddf3.o)
 .debug_abbrev  0x00005966       0xce /home/ishyro/.arduino15/packages/chipKIT/tools/pic32-tools/1.43-pic32gcc/bin/bin/../../lib/gcc/pic32mx/4.8.3/size/libgcc.a(divdf3.o)
 .debug_abbrev  0x00005a34       0xf2 /home/ishyro/.arduino15/packages/chipKIT/tools/pic32-tools/1.43-pic32gcc/bin/bin/../../lib/gcc/pic32mx/4.8.3/size/libgcc.a(eqdf2.o)
 .debug_abbrev  0x00005b26       0xf0 /home/ishyro/.arduino15/packages/chipKIT/tools/pic32-tools/1.43-pic32gcc/bin/bin/../../lib/gcc/pic32mx/4.8.3/size/libgcc.a(gedf2.o)
 .debug_abbrev  0x00005c16       0xf0 /home/ishyro/.arduino15/packages/chipKIT/tools/pic32-tools/1.43-pic32gcc/bin/bin/../../lib/gcc/pic32mx/4.8.3/size/libgcc.a(ledf2.o)
 .debug_abbrev  0x00005d06       0xe7 /home/ishyro/.arduino15/packages/chipKIT/tools/pic32-tools/1.43-pic32gcc/bin/bin/../../lib/gcc/pic32mx/4.8.3/size/libgcc.a(muldf3.o)
 .debug_abbrev  0x00005ded       0xe2 /home/ishyro/.arduino15/packages/chipKIT/tools/pic32-tools/1.43-pic32gcc/bin/bin/../../lib/gcc/pic32mx/4.8.3/size/libgcc.a(subdf3.o)
 .debug_abbrev  0x00005ecf       0xd4 /home/ishyro/.arduino15/packages/chipKIT/tools/pic32-tools/1.43-pic32gcc/bin/bin/../../lib/gcc/pic32mx/4.8.3/size/libgcc.a(fixdfsi.o)
 .debug_abbrev  0x00005fa3       0xd4 /home/ishyro/.arduino15/packages/chipKIT/tools/pic32-tools/1.43-pic32gcc/bin/bin/../../lib/gcc/pic32mx/4.8.3/size/libgcc.a(fixunsdfsi.o)
 .debug_abbrev  0x00006077       0xdd /home/ishyro/.arduino15/packages/chipKIT/tools/pic32-tools/1.43-pic32gcc/bin/bin/../../lib/gcc/pic32mx/4.8.3/size/libgcc.a(floatsidf.o)
 .debug_abbrev  0x00006154       0x64 /home/ishyro/.arduino15/packages/chipKIT/tools/pic32-tools/1.43-pic32gcc/bin/bin/../../lib/gcc/pic32mx/4.8.3/size/libgcc.a(floatunsidf.o)
 .debug_abbrev  0x000061b8       0xdd /home/ishyro/.arduino15/packages/chipKIT/tools/pic32-tools/1.43-pic32gcc/bin/bin/../../lib/gcc/pic32mx/4.8.3/size/libgcc.a(extendsfdf2.o)
 .debug_abbrev  0x00006295       0xd4 /home/ishyro/.arduino15/packages/chipKIT/tools/pic32-tools/1.43-pic32gcc/bin/bin/../../lib/gcc/pic32mx/4.8.3/size/libgcc.a(truncdfsf2.o)
 .debug_abbrev  0x00006369      0x12f /home/ishyro/.arduino15/packages/chipKIT/tools/pic32-tools/1.43-pic32gcc/bin/bin/../../lib/gcc/pic32mx/4.8.3/size/libgcc.a(_udivdi3.o)
 .debug_abbrev  0x00006498      0x13e /home/ishyro/.arduino15/packages/chipKIT/tools/pic32-tools/1.43-pic32gcc/bin/bin/../../lib/gcc/pic32mx/4.8.3/size/libgcc.a(_umoddi3.o)

.debug_line     0x00000000     0x6463
 *(.debug_line)
 .debug_line    0x00000000       0x1d /home/ishyro/Documents/Info/M1/S2/OMicroB-next/src/byterun/pic32/Board_Data.o
 .debug_line    0x0000001d      0x103 /home/ishyro/Documents/Info/M1/S2/OMicroB-next/src/byterun/pic32/cores/core.a(exceptions.c.o)
 .debug_line    0x00000120      0x314 /home/ishyro/Documents/Info/M1/S2/OMicroB-next/src/byterun/pic32/cores/core.a(task_manager.c.o)
 .debug_line    0x00000434      0x479 /home/ishyro/Documents/Info/M1/S2/OMicroB-next/src/byterun/pic32/cores/core.a(vector_table.S.o)
 .debug_line    0x000008ad      0x489 /home/ishyro/Documents/Info/M1/S2/OMicroB-next/src/byterun/pic32/cores/core.a(wiring.c.o)
 .debug_line    0x00000d36      0x367 /home/ishyro/Documents/Info/M1/S2/OMicroB-next/src/byterun/pic32/cores/core.a(wiring_analog.c.o)
 .debug_line    0x0000109d      0x32e /home/ishyro/Documents/Info/M1/S2/OMicroB-next/src/byterun/pic32/cores/core.a(wiring_digital.c.o)
 .debug_line    0x000013cb      0x437 /home/ishyro/Documents/Info/M1/S2/OMicroB-next/src/byterun/pic32/cores/core.a(USB.cpp.o)
 .debug_line    0x00001802      0x5b2 /home/ishyro/Documents/Info/M1/S2/OMicroB-next/src/byterun/pic32/cores/core.a(USB_CDCACM.cpp.o)
 .debug_line    0x00001db4      0x568 /home/ishyro/Documents/Info/M1/S2/OMicroB-next/src/byterun/pic32/cores/core.a(USB_FS.cpp.o)
 .debug_line    0x0000231c      0x3fb /home/ishyro/Documents/Info/M1/S2/OMicroB-next/src/byterun/pic32/cores/core.a(WSystem.c.o)
 .debug_line    0x00002717      0x23b /home/ishyro/Documents/Info/M1/S2/OMicroB-next/src/byterun/pic32/cores/core.a(pins_arduino.c.o)
 .debug_line    0x00002952      0x521 /home/ishyro/Documents/Info/M1/S2/OMicroB-next/src/byterun/pic32/cores/core.a(Print.cpp.o)
 .debug_line    0x00002e73      0x5fb /home/ishyro/Documents/Info/M1/S2/OMicroB-next/src/byterun/pic32/cores/core.a(doprnt.cpp.o)
 .debug_line    0x0000346e      0x290 /home/ishyro/.arduino15/packages/chipKIT/tools/pic32-tools/1.43-pic32gcc/bin/bin/../../lib/gcc/pic32mx/4.8.3/../../../../pic32mx/lib/size/libsupc++.a(class_type_info.o)
 .debug_line    0x000036fe      0x14c /home/ishyro/.arduino15/packages/chipKIT/tools/pic32-tools/1.43-pic32gcc/bin/bin/../../lib/gcc/pic32mx/4.8.3/../../../../pic32mx/lib/size/libsupc++.a(del_op.o)
 .debug_line    0x0000384a      0x265 /home/ishyro/.arduino15/packages/chipKIT/tools/pic32-tools/1.43-pic32gcc/bin/bin/../../lib/gcc/pic32mx/4.8.3/../../../../pic32mx/lib/size/libsupc++.a(si_class_type_info.o)
 .debug_line    0x00003aaf      0x1d9 /home/ishyro/.arduino15/packages/chipKIT/tools/pic32-tools/1.43-pic32gcc/bin/bin/../../lib/gcc/pic32mx/4.8.3/../../../../pic32mx/lib/size/libsupc++.a(tinfo.o)
 .debug_line    0x00003c88      0x417 /home/ishyro/.arduino15/packages/chipKIT/tools/pic32-tools/1.43-pic32gcc/bin/bin/../../lib/gcc/pic32mx/4.8.3/../../../../pic32mx/lib/size/libsupc++.a(vmi_class_type_info.o)
 .debug_line    0x0000409f      0x268 /home/ishyro/.arduino15/packages/chipKIT/tools/pic32-tools/1.43-pic32gcc/bin/bin/../../lib/gcc/pic32mx/4.8.3/../../../../pic32mx/lib/size/libsupc++.a(pure.o)
 .debug_line    0x00004307      0x32e /home/ishyro/.arduino15/packages/chipKIT/tools/pic32-tools/1.43-pic32gcc/bin/bin/../../lib/gcc/pic32mx/4.8.3/../../../../pic32mx/lib/size/libsupc++.a(eh_terminate.o)
 .debug_line    0x00004635      0x253 /home/ishyro/.arduino15/packages/chipKIT/tools/pic32-tools/1.43-pic32gcc/bin/bin/../../lib/gcc/pic32mx/4.8.3/../../../../pic32mx/lib/size/libsupc++.a(eh_unex_handler.o)
 .debug_line    0x00004888      0x253 /home/ishyro/.arduino15/packages/chipKIT/tools/pic32-tools/1.43-pic32gcc/bin/bin/../../lib/gcc/pic32mx/4.8.3/../../../../pic32mx/lib/size/libsupc++.a(eh_term_handler.o)
 .debug_line    0x00004adb       0xab /home/ishyro/.arduino15/packages/chipKIT/tools/pic32-tools/1.43-pic32gcc/bin/bin/../../lib/gcc/pic32mx/4.8.3/size/libgcc.a(_lshrdi3.o)
 .debug_line    0x00004b86       0xab /home/ishyro/.arduino15/packages/chipKIT/tools/pic32-tools/1.43-pic32gcc/bin/bin/../../lib/gcc/pic32mx/4.8.3/size/libgcc.a(_ashldi3.o)
 .debug_line    0x00004c31       0xab /home/ishyro/.arduino15/packages/chipKIT/tools/pic32-tools/1.43-pic32gcc/bin/bin/../../lib/gcc/pic32mx/4.8.3/size/libgcc.a(_ashrdi3.o)
 .debug_line    0x00004cdc       0xf6 /home/ishyro/.arduino15/packages/chipKIT/tools/pic32-tools/1.43-pic32gcc/bin/bin/../../lib/gcc/pic32mx/4.8.3/size/libgcc.a(_divdi3.o)
 .debug_line    0x00004dd2       0xed /home/ishyro/.arduino15/packages/chipKIT/tools/pic32-tools/1.43-pic32gcc/bin/bin/../../lib/gcc/pic32mx/4.8.3/size/libgcc.a(_moddi3.o)
 .debug_line    0x00004ebf       0xb6 /home/ishyro/.arduino15/packages/chipKIT/tools/pic32-tools/1.43-pic32gcc/bin/bin/../../lib/gcc/pic32mx/4.8.3/size/libgcc.a(addsf3.o)
 .debug_line    0x00004f75       0xbc /home/ishyro/.arduino15/packages/chipKIT/tools/pic32-tools/1.43-pic32gcc/bin/bin/../../lib/gcc/pic32mx/4.8.3/size/libgcc.a(divsf3.o)
 .debug_line    0x00005031      0x11a /home/ishyro/.arduino15/packages/chipKIT/tools/pic32-tools/1.43-pic32gcc/bin/bin/../../lib/gcc/pic32mx/4.8.3/size/libgcc.a(eqsf2.o)
 .debug_line    0x0000514b      0x11b /home/ishyro/.arduino15/packages/chipKIT/tools/pic32-tools/1.43-pic32gcc/bin/bin/../../lib/gcc/pic32mx/4.8.3/size/libgcc.a(gesf2.o)
 .debug_line    0x00005266      0x11b /home/ishyro/.arduino15/packages/chipKIT/tools/pic32-tools/1.43-pic32gcc/bin/bin/../../lib/gcc/pic32mx/4.8.3/size/libgcc.a(lesf2.o)
 .debug_line    0x00005381       0xc6 /home/ishyro/.arduino15/packages/chipKIT/tools/pic32-tools/1.43-pic32gcc/bin/bin/../../lib/gcc/pic32mx/4.8.3/size/libgcc.a(mulsf3.o)
 .debug_line    0x00005447       0xb1 /home/ishyro/.arduino15/packages/chipKIT/tools/pic32-tools/1.43-pic32gcc/bin/bin/../../lib/gcc/pic32mx/4.8.3/size/libgcc.a(subsf3.o)
 .debug_line    0x000054f8       0xb5 /home/ishyro/.arduino15/packages/chipKIT/tools/pic32-tools/1.43-pic32gcc/bin/bin/../../lib/gcc/pic32mx/4.8.3/size/libgcc.a(fixsfsi.o)
 .debug_line    0x000055ad       0xb8 /home/ishyro/.arduino15/packages/chipKIT/tools/pic32-tools/1.43-pic32gcc/bin/bin/../../lib/gcc/pic32mx/4.8.3/size/libgcc.a(floatsisf.o)
 .debug_line    0x00005665       0xb6 /home/ishyro/.arduino15/packages/chipKIT/tools/pic32-tools/1.43-pic32gcc/bin/bin/../../lib/gcc/pic32mx/4.8.3/size/libgcc.a(fixsfdi.o)
 .debug_line    0x0000571b       0xba /home/ishyro/.arduino15/packages/chipKIT/tools/pic32-tools/1.43-pic32gcc/bin/bin/../../lib/gcc/pic32mx/4.8.3/size/libgcc.a(floatdisf.o)
 .debug_line    0x000057d5       0xd6 /home/ishyro/.arduino15/packages/chipKIT/tools/pic32-tools/1.43-pic32gcc/bin/bin/../../lib/gcc/pic32mx/4.8.3/size/libgcc.a(adddf3.o)
 .debug_line    0x000058ab       0xce /home/ishyro/.arduino15/packages/chipKIT/tools/pic32-tools/1.43-pic32gcc/bin/bin/../../lib/gcc/pic32mx/4.8.3/size/libgcc.a(divdf3.o)
 .debug_line    0x00005979      0x11a /home/ishyro/.arduino15/packages/chipKIT/tools/pic32-tools/1.43-pic32gcc/bin/bin/../../lib/gcc/pic32mx/4.8.3/size/libgcc.a(eqdf2.o)
 .debug_line    0x00005a93      0x11b /home/ishyro/.arduino15/packages/chipKIT/tools/pic32-tools/1.43-pic32gcc/bin/bin/../../lib/gcc/pic32mx/4.8.3/size/libgcc.a(gedf2.o)
 .debug_line    0x00005bae      0x11b /home/ishyro/.arduino15/packages/chipKIT/tools/pic32-tools/1.43-pic32gcc/bin/bin/../../lib/gcc/pic32mx/4.8.3/size/libgcc.a(ledf2.o)
 .debug_line    0x00005cc9       0xc7 /home/ishyro/.arduino15/packages/chipKIT/tools/pic32-tools/1.43-pic32gcc/bin/bin/../../lib/gcc/pic32mx/4.8.3/size/libgcc.a(muldf3.o)
 .debug_line    0x00005d90       0xd2 /home/ishyro/.arduino15/packages/chipKIT/tools/pic32-tools/1.43-pic32gcc/bin/bin/../../lib/gcc/pic32mx/4.8.3/size/libgcc.a(subdf3.o)
 .debug_line    0x00005e62       0xb5 /home/ishyro/.arduino15/packages/chipKIT/tools/pic32-tools/1.43-pic32gcc/bin/bin/../../lib/gcc/pic32mx/4.8.3/size/libgcc.a(fixdfsi.o)
 .debug_line    0x00005f17       0xb8 /home/ishyro/.arduino15/packages/chipKIT/tools/pic32-tools/1.43-pic32gcc/bin/bin/../../lib/gcc/pic32mx/4.8.3/size/libgcc.a(fixunsdfsi.o)
 .debug_line    0x00005fcf       0xb7 /home/ishyro/.arduino15/packages/chipKIT/tools/pic32-tools/1.43-pic32gcc/bin/bin/../../lib/gcc/pic32mx/4.8.3/size/libgcc.a(floatsidf.o)
 .debug_line    0x00006086       0x96 /home/ishyro/.arduino15/packages/chipKIT/tools/pic32-tools/1.43-pic32gcc/bin/bin/../../lib/gcc/pic32mx/4.8.3/size/libgcc.a(floatunsidf.o)
 .debug_line    0x0000611c       0xba /home/ishyro/.arduino15/packages/chipKIT/tools/pic32-tools/1.43-pic32gcc/bin/bin/../../lib/gcc/pic32mx/4.8.3/size/libgcc.a(extendsfdf2.o)
 .debug_line    0x000061d6       0xbc /home/ishyro/.arduino15/packages/chipKIT/tools/pic32-tools/1.43-pic32gcc/bin/bin/../../lib/gcc/pic32mx/4.8.3/size/libgcc.a(truncdfsf2.o)
 .debug_line    0x00006292       0xeb /home/ishyro/.arduino15/packages/chipKIT/tools/pic32-tools/1.43-pic32gcc/bin/bin/../../lib/gcc/pic32mx/4.8.3/size/libgcc.a(_udivdi3.o)
 .debug_line    0x0000637d       0xe6 /home/ishyro/.arduino15/packages/chipKIT/tools/pic32-tools/1.43-pic32gcc/bin/bin/../../lib/gcc/pic32mx/4.8.3/size/libgcc.a(_umoddi3.o)

.debug_frame    0x00000000     0x16fc
 *(.debug_frame)
 .debug_frame   0x00000000       0x38 /home/ishyro/Documents/Info/M1/S2/OMicroB-next/src/byterun/pic32/cores/core.a(exceptions.c.o)
 .debug_frame   0x00000038      0x160 /home/ishyro/Documents/Info/M1/S2/OMicroB-next/src/byterun/pic32/cores/core.a(task_manager.c.o)
 .debug_frame   0x00000198      0x18c /home/ishyro/Documents/Info/M1/S2/OMicroB-next/src/byterun/pic32/cores/core.a(wiring.c.o)
 .debug_frame   0x00000324       0xf8 /home/ishyro/Documents/Info/M1/S2/OMicroB-next/src/byterun/pic32/cores/core.a(wiring_analog.c.o)
 .debug_frame   0x0000041c       0x88 /home/ishyro/Documents/Info/M1/S2/OMicroB-next/src/byterun/pic32/cores/core.a(wiring_digital.c.o)
 .debug_frame   0x000004a4      0x1a8 /home/ishyro/Documents/Info/M1/S2/OMicroB-next/src/byterun/pic32/cores/core.a(USB.cpp.o)
 .debug_frame   0x0000064c      0x254 /home/ishyro/Documents/Info/M1/S2/OMicroB-next/src/byterun/pic32/cores/core.a(USB_CDCACM.cpp.o)
 .debug_frame   0x000008a0      0x1a8 /home/ishyro/Documents/Info/M1/S2/OMicroB-next/src/byterun/pic32/cores/core.a(USB_FS.cpp.o)
 .debug_frame   0x00000a48      0x170 /home/ishyro/Documents/Info/M1/S2/OMicroB-next/src/byterun/pic32/cores/core.a(WSystem.c.o)
 .debug_frame   0x00000bb8       0x20 /home/ishyro/Documents/Info/M1/S2/OMicroB-next/src/byterun/pic32/cores/core.a(pins_arduino.c.o)
 .debug_frame   0x00000bd8      0x2bc /home/ishyro/Documents/Info/M1/S2/OMicroB-next/src/byterun/pic32/cores/core.a(Print.cpp.o)
 .debug_frame   0x00000e94       0x5c /home/ishyro/Documents/Info/M1/S2/OMicroB-next/src/byterun/pic32/cores/core.a(doprnt.cpp.o)
 .debug_frame   0x00000ef0       0xdc /home/ishyro/.arduino15/packages/chipKIT/tools/pic32-tools/1.43-pic32gcc/bin/bin/../../lib/gcc/pic32mx/4.8.3/../../../../pic32mx/lib/size/libsupc++.a(class_type_info.o)
 .debug_frame   0x00000fcc       0x2c /home/ishyro/.arduino15/packages/chipKIT/tools/pic32-tools/1.43-pic32gcc/bin/bin/../../lib/gcc/pic32mx/4.8.3/../../../../pic32mx/lib/size/libsupc++.a(del_op.o)
 .debug_frame   0x00000ff8       0xc0 /home/ishyro/.arduino15/packages/chipKIT/tools/pic32-tools/1.43-pic32gcc/bin/bin/../../lib/gcc/pic32mx/4.8.3/../../../../pic32mx/lib/size/libsupc++.a(si_class_type_info.o)
 .debug_frame   0x000010b8       0x84 /home/ishyro/.arduino15/packages/chipKIT/tools/pic32-tools/1.43-pic32gcc/bin/bin/../../lib/gcc/pic32mx/4.8.3/../../../../pic32mx/lib/size/libsupc++.a(tinfo.o)
 .debug_frame   0x0000113c       0xec /home/ishyro/.arduino15/packages/chipKIT/tools/pic32-tools/1.43-pic32gcc/bin/bin/../../lib/gcc/pic32mx/4.8.3/../../../../pic32mx/lib/size/libsupc++.a(vmi_class_type_info.o)
 .debug_frame   0x00001228       0x40 /home/ishyro/.arduino15/packages/chipKIT/tools/pic32-tools/1.43-pic32gcc/bin/bin/../../lib/gcc/pic32mx/4.8.3/../../../../pic32mx/lib/size/libsupc++.a(pure.o)
 .debug_frame   0x00001268       0x90 /home/ishyro/.arduino15/packages/chipKIT/tools/pic32-tools/1.43-pic32gcc/bin/bin/../../lib/gcc/pic32mx/4.8.3/../../../../pic32mx/lib/size/libsupc++.a(eh_terminate.o)
 .debug_frame   0x000012f8       0x20 /home/ishyro/.arduino15/packages/chipKIT/tools/pic32-tools/1.43-pic32gcc/bin/bin/../../lib/gcc/pic32mx/4.8.3/size/libgcc.a(_lshrdi3.o)
 .debug_frame   0x00001318       0x20 /home/ishyro/.arduino15/packages/chipKIT/tools/pic32-tools/1.43-pic32gcc/bin/bin/../../lib/gcc/pic32mx/4.8.3/size/libgcc.a(_ashldi3.o)
 .debug_frame   0x00001338       0x20 /home/ishyro/.arduino15/packages/chipKIT/tools/pic32-tools/1.43-pic32gcc/bin/bin/../../lib/gcc/pic32mx/4.8.3/size/libgcc.a(_ashrdi3.o)
 .debug_frame   0x00001358       0x20 /home/ishyro/.arduino15/packages/chipKIT/tools/pic32-tools/1.43-pic32gcc/bin/bin/../../lib/gcc/pic32mx/4.8.3/size/libgcc.a(_divdi3.o)
 .debug_frame   0x00001378       0x20 /home/ishyro/.arduino15/packages/chipKIT/tools/pic32-tools/1.43-pic32gcc/bin/bin/../../lib/gcc/pic32mx/4.8.3/size/libgcc.a(_moddi3.o)
 .debug_frame   0x00001398       0x20 /home/ishyro/.arduino15/packages/chipKIT/tools/pic32-tools/1.43-pic32gcc/bin/bin/../../lib/gcc/pic32mx/4.8.3/size/libgcc.a(addsf3.o)
 .debug_frame   0x000013b8       0x20 /home/ishyro/.arduino15/packages/chipKIT/tools/pic32-tools/1.43-pic32gcc/bin/bin/../../lib/gcc/pic32mx/4.8.3/size/libgcc.a(divsf3.o)
 .debug_frame   0x000013d8       0x20 /home/ishyro/.arduino15/packages/chipKIT/tools/pic32-tools/1.43-pic32gcc/bin/bin/../../lib/gcc/pic32mx/4.8.3/size/libgcc.a(eqsf2.o)
 .debug_frame   0x000013f8       0x20 /home/ishyro/.arduino15/packages/chipKIT/tools/pic32-tools/1.43-pic32gcc/bin/bin/../../lib/gcc/pic32mx/4.8.3/size/libgcc.a(gesf2.o)
 .debug_frame   0x00001418       0x20 /home/ishyro/.arduino15/packages/chipKIT/tools/pic32-tools/1.43-pic32gcc/bin/bin/../../lib/gcc/pic32mx/4.8.3/size/libgcc.a(lesf2.o)
 .debug_frame   0x00001438       0x20 /home/ishyro/.arduino15/packages/chipKIT/tools/pic32-tools/1.43-pic32gcc/bin/bin/../../lib/gcc/pic32mx/4.8.3/size/libgcc.a(mulsf3.o)
 .debug_frame   0x00001458       0x20 /home/ishyro/.arduino15/packages/chipKIT/tools/pic32-tools/1.43-pic32gcc/bin/bin/../../lib/gcc/pic32mx/4.8.3/size/libgcc.a(subsf3.o)
 .debug_frame   0x00001478       0x20 /home/ishyro/.arduino15/packages/chipKIT/tools/pic32-tools/1.43-pic32gcc/bin/bin/../../lib/gcc/pic32mx/4.8.3/size/libgcc.a(fixsfsi.o)
 .debug_frame   0x00001498       0x20 /home/ishyro/.arduino15/packages/chipKIT/tools/pic32-tools/1.43-pic32gcc/bin/bin/../../lib/gcc/pic32mx/4.8.3/size/libgcc.a(floatsisf.o)
 .debug_frame   0x000014b8       0x28 /home/ishyro/.arduino15/packages/chipKIT/tools/pic32-tools/1.43-pic32gcc/bin/bin/../../lib/gcc/pic32mx/4.8.3/size/libgcc.a(fixsfdi.o)
 .debug_frame   0x000014e0       0x34 /home/ishyro/.arduino15/packages/chipKIT/tools/pic32-tools/1.43-pic32gcc/bin/bin/../../lib/gcc/pic32mx/4.8.3/size/libgcc.a(floatdisf.o)
 .debug_frame   0x00001514       0x20 /home/ishyro/.arduino15/packages/chipKIT/tools/pic32-tools/1.43-pic32gcc/bin/bin/../../lib/gcc/pic32mx/4.8.3/size/libgcc.a(adddf3.o)
 .debug_frame   0x00001534       0x20 /home/ishyro/.arduino15/packages/chipKIT/tools/pic32-tools/1.43-pic32gcc/bin/bin/../../lib/gcc/pic32mx/4.8.3/size/libgcc.a(divdf3.o)
 .debug_frame   0x00001554       0x20 /home/ishyro/.arduino15/packages/chipKIT/tools/pic32-tools/1.43-pic32gcc/bin/bin/../../lib/gcc/pic32mx/4.8.3/size/libgcc.a(eqdf2.o)
 .debug_frame   0x00001574       0x20 /home/ishyro/.arduino15/packages/chipKIT/tools/pic32-tools/1.43-pic32gcc/bin/bin/../../lib/gcc/pic32mx/4.8.3/size/libgcc.a(gedf2.o)
 .debug_frame   0x00001594       0x20 /home/ishyro/.arduino15/packages/chipKIT/tools/pic32-tools/1.43-pic32gcc/bin/bin/../../lib/gcc/pic32mx/4.8.3/size/libgcc.a(ledf2.o)
 .debug_frame   0x000015b4       0x20 /home/ishyro/.arduino15/packages/chipKIT/tools/pic32-tools/1.43-pic32gcc/bin/bin/../../lib/gcc/pic32mx/4.8.3/size/libgcc.a(muldf3.o)
 .debug_frame   0x000015d4       0x20 /home/ishyro/.arduino15/packages/chipKIT/tools/pic32-tools/1.43-pic32gcc/bin/bin/../../lib/gcc/pic32mx/4.8.3/size/libgcc.a(subdf3.o)
 .debug_frame   0x000015f4       0x20 /home/ishyro/.arduino15/packages/chipKIT/tools/pic32-tools/1.43-pic32gcc/bin/bin/../../lib/gcc/pic32mx/4.8.3/size/libgcc.a(fixdfsi.o)
 .debug_frame   0x00001614       0x20 /home/ishyro/.arduino15/packages/chipKIT/tools/pic32-tools/1.43-pic32gcc/bin/bin/../../lib/gcc/pic32mx/4.8.3/size/libgcc.a(fixunsdfsi.o)
 .debug_frame   0x00001634       0x20 /home/ishyro/.arduino15/packages/chipKIT/tools/pic32-tools/1.43-pic32gcc/bin/bin/../../lib/gcc/pic32mx/4.8.3/size/libgcc.a(floatsidf.o)
 .debug_frame   0x00001654       0x28 /home/ishyro/.arduino15/packages/chipKIT/tools/pic32-tools/1.43-pic32gcc/bin/bin/../../lib/gcc/pic32mx/4.8.3/size/libgcc.a(floatunsidf.o)
 .debug_frame   0x0000167c       0x20 /home/ishyro/.arduino15/packages/chipKIT/tools/pic32-tools/1.43-pic32gcc/bin/bin/../../lib/gcc/pic32mx/4.8.3/size/libgcc.a(extendsfdf2.o)
 .debug_frame   0x0000169c       0x20 /home/ishyro/.arduino15/packages/chipKIT/tools/pic32-tools/1.43-pic32gcc/bin/bin/../../lib/gcc/pic32mx/4.8.3/size/libgcc.a(truncdfsf2.o)
 .debug_frame   0x000016bc       0x20 /home/ishyro/.arduino15/packages/chipKIT/tools/pic32-tools/1.43-pic32gcc/bin/bin/../../lib/gcc/pic32mx/4.8.3/size/libgcc.a(_udivdi3.o)
 .debug_frame   0x000016dc       0x20 /home/ishyro/.arduino15/packages/chipKIT/tools/pic32-tools/1.43-pic32gcc/bin/bin/../../lib/gcc/pic32mx/4.8.3/size/libgcc.a(_umoddi3.o)

.debug_str      0x00000000      0xc89
 *(.debug_str)
 .debug_str     0x00000000        0x0 /home/ishyro/Documents/Info/M1/S2/OMicroB-next/src/byterun/pic32/Board_Data.o
 .debug_str     0x00000000        0x0 /home/ishyro/Documents/Info/M1/S2/OMicroB-next/src/byterun/pic32/cores/core.a(exceptions.c.o)
 .debug_str     0x00000000        0x7 /home/ishyro/Documents/Info/M1/S2/OMicroB-next/src/byterun/pic32/cores/core.a(task_manager.c.o)
 .debug_str     0x00000007       0x22 /home/ishyro/Documents/Info/M1/S2/OMicroB-next/src/byterun/pic32/cores/core.a(wiring.c.o)
 .debug_str     0x00000029       0x21 /home/ishyro/Documents/Info/M1/S2/OMicroB-next/src/byterun/pic32/cores/core.a(wiring_analog.c.o)
 .debug_str     0x0000004a        0x0 /home/ishyro/Documents/Info/M1/S2/OMicroB-next/src/byterun/pic32/cores/core.a(wiring_digital.c.o)
 .debug_str     0x0000004a      0x189 /home/ishyro/Documents/Info/M1/S2/OMicroB-next/src/byterun/pic32/cores/core.a(USB.cpp.o)
 .debug_str     0x000001d3      0x2a4 /home/ishyro/Documents/Info/M1/S2/OMicroB-next/src/byterun/pic32/cores/core.a(USB_CDCACM.cpp.o)
 .debug_str     0x00000477      0x154 /home/ishyro/Documents/Info/M1/S2/OMicroB-next/src/byterun/pic32/cores/core.a(USB_FS.cpp.o)
 .debug_str     0x000005cb        0x0 /home/ishyro/Documents/Info/M1/S2/OMicroB-next/src/byterun/pic32/cores/core.a(WSystem.c.o)
 .debug_str     0x000005cb        0x0 /home/ishyro/Documents/Info/M1/S2/OMicroB-next/src/byterun/pic32/cores/core.a(pins_arduino.c.o)
 .debug_str     0x000005cb      0x17e /home/ishyro/Documents/Info/M1/S2/OMicroB-next/src/byterun/pic32/cores/core.a(Print.cpp.o)
 .debug_str     0x00000749        0xa /home/ishyro/Documents/Info/M1/S2/OMicroB-next/src/byterun/pic32/cores/core.a(doprnt.cpp.o)
 .debug_str     0x00000753      0x12e /home/ishyro/.arduino15/packages/chipKIT/tools/pic32-tools/1.43-pic32gcc/bin/bin/../../lib/gcc/pic32mx/4.8.3/../../../../pic32mx/lib/size/libsupc++.a(class_type_info.o)
 .debug_str     0x00000881       0x18 /home/ishyro/.arduino15/packages/chipKIT/tools/pic32-tools/1.43-pic32gcc/bin/bin/../../lib/gcc/pic32mx/4.8.3/../../../../pic32mx/lib/size/libsupc++.a(del_op.o)
 .debug_str     0x00000899      0x131 /home/ishyro/.arduino15/packages/chipKIT/tools/pic32-tools/1.43-pic32gcc/bin/bin/../../lib/gcc/pic32mx/4.8.3/../../../../pic32mx/lib/size/libsupc++.a(si_class_type_info.o)
 .debug_str     0x000009ca       0x27 /home/ishyro/.arduino15/packages/chipKIT/tools/pic32-tools/1.43-pic32gcc/bin/bin/../../lib/gcc/pic32mx/4.8.3/../../../../pic32mx/lib/size/libsupc++.a(tinfo.o)
 .debug_str     0x000009f1      0x238 /home/ishyro/.arduino15/packages/chipKIT/tools/pic32-tools/1.43-pic32gcc/bin/bin/../../lib/gcc/pic32mx/4.8.3/../../../../pic32mx/lib/size/libsupc++.a(vmi_class_type_info.o)
 .debug_str     0x00000c29       0x18 /home/ishyro/.arduino15/packages/chipKIT/tools/pic32-tools/1.43-pic32gcc/bin/bin/../../lib/gcc/pic32mx/4.8.3/../../../../pic32mx/lib/size/libsupc++.a(pure.o)
 .debug_str     0x00000c41       0x18 /home/ishyro/.arduino15/packages/chipKIT/tools/pic32-tools/1.43-pic32gcc/bin/bin/../../lib/gcc/pic32mx/4.8.3/../../../../pic32mx/lib/size/libsupc++.a(eh_terminate.o)
 .debug_str     0x00000c59       0x18 /home/ishyro/.arduino15/packages/chipKIT/tools/pic32-tools/1.43-pic32gcc/bin/bin/../../lib/gcc/pic32mx/4.8.3/../../../../pic32mx/lib/size/libsupc++.a(eh_unex_handler.o)
 .debug_str     0x00000c71       0x18 /home/ishyro/.arduino15/packages/chipKIT/tools/pic32-tools/1.43-pic32gcc/bin/bin/../../lib/gcc/pic32mx/4.8.3/../../../../pic32mx/lib/size/libsupc++.a(eh_term_handler.o)
 .debug_str     0x00000c89        0x0 /home/ishyro/.arduino15/packages/chipKIT/tools/pic32-tools/1.43-pic32gcc/bin/bin/../../lib/gcc/pic32mx/4.8.3/size/libgcc.a(_lshrdi3.o)
 .debug_str     0x00000c89        0x0 /home/ishyro/.arduino15/packages/chipKIT/tools/pic32-tools/1.43-pic32gcc/bin/bin/../../lib/gcc/pic32mx/4.8.3/size/libgcc.a(_ashldi3.o)
 .debug_str     0x00000c89        0x0 /home/ishyro/.arduino15/packages/chipKIT/tools/pic32-tools/1.43-pic32gcc/bin/bin/../../lib/gcc/pic32mx/4.8.3/size/libgcc.a(_ashrdi3.o)
 .debug_str     0x00000c89        0x0 /home/ishyro/.arduino15/packages/chipKIT/tools/pic32-tools/1.43-pic32gcc/bin/bin/../../lib/gcc/pic32mx/4.8.3/size/libgcc.a(_divdi3.o)
 .debug_str     0x00000c89        0x0 /home/ishyro/.arduino15/packages/chipKIT/tools/pic32-tools/1.43-pic32gcc/bin/bin/../../lib/gcc/pic32mx/4.8.3/size/libgcc.a(_moddi3.o)
 .debug_str     0x00000c89        0x0 /home/ishyro/.arduino15/packages/chipKIT/tools/pic32-tools/1.43-pic32gcc/bin/bin/../../lib/gcc/pic32mx/4.8.3/size/libgcc.a(addsf3.o)
 .debug_str     0x00000c89        0x0 /home/ishyro/.arduino15/packages/chipKIT/tools/pic32-tools/1.43-pic32gcc/bin/bin/../../lib/gcc/pic32mx/4.8.3/size/libgcc.a(divsf3.o)
 .debug_str     0x00000c89        0x0 /home/ishyro/.arduino15/packages/chipKIT/tools/pic32-tools/1.43-pic32gcc/bin/bin/../../lib/gcc/pic32mx/4.8.3/size/libgcc.a(eqsf2.o)
 .debug_str     0x00000c89        0x0 /home/ishyro/.arduino15/packages/chipKIT/tools/pic32-tools/1.43-pic32gcc/bin/bin/../../lib/gcc/pic32mx/4.8.3/size/libgcc.a(gesf2.o)
 .debug_str     0x00000c89        0x0 /home/ishyro/.arduino15/packages/chipKIT/tools/pic32-tools/1.43-pic32gcc/bin/bin/../../lib/gcc/pic32mx/4.8.3/size/libgcc.a(lesf2.o)
 .debug_str     0x00000c89        0x0 /home/ishyro/.arduino15/packages/chipKIT/tools/pic32-tools/1.43-pic32gcc/bin/bin/../../lib/gcc/pic32mx/4.8.3/size/libgcc.a(mulsf3.o)
 .debug_str     0x00000c89        0x0 /home/ishyro/.arduino15/packages/chipKIT/tools/pic32-tools/1.43-pic32gcc/bin/bin/../../lib/gcc/pic32mx/4.8.3/size/libgcc.a(subsf3.o)
 .debug_str     0x00000c89        0x0 /home/ishyro/.arduino15/packages/chipKIT/tools/pic32-tools/1.43-pic32gcc/bin/bin/../../lib/gcc/pic32mx/4.8.3/size/libgcc.a(fixsfsi.o)
 .debug_str     0x00000c89        0x0 /home/ishyro/.arduino15/packages/chipKIT/tools/pic32-tools/1.43-pic32gcc/bin/bin/../../lib/gcc/pic32mx/4.8.3/size/libgcc.a(floatsisf.o)
 .debug_str     0x00000c89        0x0 /home/ishyro/.arduino15/packages/chipKIT/tools/pic32-tools/1.43-pic32gcc/bin/bin/../../lib/gcc/pic32mx/4.8.3/size/libgcc.a(fixsfdi.o)
 .debug_str     0x00000c89        0x0 /home/ishyro/.arduino15/packages/chipKIT/tools/pic32-tools/1.43-pic32gcc/bin/bin/../../lib/gcc/pic32mx/4.8.3/size/libgcc.a(floatdisf.o)
 .debug_str     0x00000c89        0x0 /home/ishyro/.arduino15/packages/chipKIT/tools/pic32-tools/1.43-pic32gcc/bin/bin/../../lib/gcc/pic32mx/4.8.3/size/libgcc.a(adddf3.o)
 .debug_str     0x00000c89        0x0 /home/ishyro/.arduino15/packages/chipKIT/tools/pic32-tools/1.43-pic32gcc/bin/bin/../../lib/gcc/pic32mx/4.8.3/size/libgcc.a(divdf3.o)
 .debug_str     0x00000c89        0x0 /home/ishyro/.arduino15/packages/chipKIT/tools/pic32-tools/1.43-pic32gcc/bin/bin/../../lib/gcc/pic32mx/4.8.3/size/libgcc.a(eqdf2.o)
 .debug_str     0x00000c89        0x0 /home/ishyro/.arduino15/packages/chipKIT/tools/pic32-tools/1.43-pic32gcc/bin/bin/../../lib/gcc/pic32mx/4.8.3/size/libgcc.a(gedf2.o)
 .debug_str     0x00000c89        0x0 /home/ishyro/.arduino15/packages/chipKIT/tools/pic32-tools/1.43-pic32gcc/bin/bin/../../lib/gcc/pic32mx/4.8.3/size/libgcc.a(ledf2.o)
 .debug_str     0x00000c89        0x0 /home/ishyro/.arduino15/packages/chipKIT/tools/pic32-tools/1.43-pic32gcc/bin/bin/../../lib/gcc/pic32mx/4.8.3/size/libgcc.a(muldf3.o)
 .debug_str     0x00000c89        0x0 /home/ishyro/.arduino15/packages/chipKIT/tools/pic32-tools/1.43-pic32gcc/bin/bin/../../lib/gcc/pic32mx/4.8.3/size/libgcc.a(subdf3.o)
 .debug_str     0x00000c89        0x0 /home/ishyro/.arduino15/packages/chipKIT/tools/pic32-tools/1.43-pic32gcc/bin/bin/../../lib/gcc/pic32mx/4.8.3/size/libgcc.a(fixdfsi.o)
 .debug_str     0x00000c89        0x0 /home/ishyro/.arduino15/packages/chipKIT/tools/pic32-tools/1.43-pic32gcc/bin/bin/../../lib/gcc/pic32mx/4.8.3/size/libgcc.a(fixunsdfsi.o)
 .debug_str     0x00000c89        0x0 /home/ishyro/.arduino15/packages/chipKIT/tools/pic32-tools/1.43-pic32gcc/bin/bin/../../lib/gcc/pic32mx/4.8.3/size/libgcc.a(floatsidf.o)
 .debug_str     0x00000c89        0x0 /home/ishyro/.arduino15/packages/chipKIT/tools/pic32-tools/1.43-pic32gcc/bin/bin/../../lib/gcc/pic32mx/4.8.3/size/libgcc.a(floatunsidf.o)
 .debug_str     0x00000c89        0x0 /home/ishyro/.arduino15/packages/chipKIT/tools/pic32-tools/1.43-pic32gcc/bin/bin/../../lib/gcc/pic32mx/4.8.3/size/libgcc.a(extendsfdf2.o)
 .debug_str     0x00000c89        0x0 /home/ishyro/.arduino15/packages/chipKIT/tools/pic32-tools/1.43-pic32gcc/bin/bin/../../lib/gcc/pic32mx/4.8.3/size/libgcc.a(truncdfsf2.o)
 .debug_str     0x00000c89        0x0 /home/ishyro/.arduino15/packages/chipKIT/tools/pic32-tools/1.43-pic32gcc/bin/bin/../../lib/gcc/pic32mx/4.8.3/size/libgcc.a(_udivdi3.o)
 .debug_str     0x00000c89        0x0 /home/ishyro/.arduino15/packages/chipKIT/tools/pic32-tools/1.43-pic32gcc/bin/bin/../../lib/gcc/pic32mx/4.8.3/size/libgcc.a(_umoddi3.o)

.debug_loc      0x00000000    0x11e1a
 *(.debug_loc)
 .debug_loc     0x00000000      0x4da /home/ishyro/Documents/Info/M1/S2/OMicroB-next/src/byterun/pic32/cores/core.a(task_manager.c.o)
 .debug_loc     0x000004da      0x554 /home/ishyro/Documents/Info/M1/S2/OMicroB-next/src/byterun/pic32/cores/core.a(wiring.c.o)
 .debug_loc     0x00000a2e      0x34c /home/ishyro/Documents/Info/M1/S2/OMicroB-next/src/byterun/pic32/cores/core.a(wiring_analog.c.o)
 .debug_loc     0x00000d7a      0x2e0 /home/ishyro/Documents/Info/M1/S2/OMicroB-next/src/byterun/pic32/cores/core.a(wiring_digital.c.o)
 .debug_loc     0x0000105a      0xb7d /home/ishyro/Documents/Info/M1/S2/OMicroB-next/src/byterun/pic32/cores/core.a(USB.cpp.o)
 .debug_loc     0x00001bd7     0x1561 /home/ishyro/Documents/Info/M1/S2/OMicroB-next/src/byterun/pic32/cores/core.a(USB_CDCACM.cpp.o)
 .debug_loc     0x00003138      0x831 /home/ishyro/Documents/Info/M1/S2/OMicroB-next/src/byterun/pic32/cores/core.a(USB_FS.cpp.o)
 .debug_loc     0x00003969      0x4ca /home/ishyro/Documents/Info/M1/S2/OMicroB-next/src/byterun/pic32/cores/core.a(WSystem.c.o)
 .debug_loc     0x00003e33     0x17dc /home/ishyro/Documents/Info/M1/S2/OMicroB-next/src/byterun/pic32/cores/core.a(Print.cpp.o)
 .debug_loc     0x0000560f     0x2855 /home/ishyro/Documents/Info/M1/S2/OMicroB-next/src/byterun/pic32/cores/core.a(doprnt.cpp.o)
 .debug_loc     0x00007e64      0x474 /home/ishyro/.arduino15/packages/chipKIT/tools/pic32-tools/1.43-pic32gcc/bin/bin/../../lib/gcc/pic32mx/4.8.3/../../../../pic32mx/lib/size/libsupc++.a(class_type_info.o)
 .debug_loc     0x000082d8       0x21 /home/ishyro/.arduino15/packages/chipKIT/tools/pic32-tools/1.43-pic32gcc/bin/bin/../../lib/gcc/pic32mx/4.8.3/../../../../pic32mx/lib/size/libsupc++.a(del_op.o)
 .debug_loc     0x000082f9      0x3f3 /home/ishyro/.arduino15/packages/chipKIT/tools/pic32-tools/1.43-pic32gcc/bin/bin/../../lib/gcc/pic32mx/4.8.3/../../../../pic32mx/lib/size/libsupc++.a(si_class_type_info.o)
 .debug_loc     0x000086ec       0x84 /home/ishyro/.arduino15/packages/chipKIT/tools/pic32-tools/1.43-pic32gcc/bin/bin/../../lib/gcc/pic32mx/4.8.3/../../../../pic32mx/lib/size/libsupc++.a(tinfo.o)
 .debug_loc     0x00008770      0xd41 /home/ishyro/.arduino15/packages/chipKIT/tools/pic32-tools/1.43-pic32gcc/bin/bin/../../lib/gcc/pic32mx/4.8.3/../../../../pic32mx/lib/size/libsupc++.a(vmi_class_type_info.o)
 .debug_loc     0x000094b1       0x42 /home/ishyro/.arduino15/packages/chipKIT/tools/pic32-tools/1.43-pic32gcc/bin/bin/../../lib/gcc/pic32mx/4.8.3/../../../../pic32mx/lib/size/libsupc++.a(eh_terminate.o)
 .debug_loc     0x000094f3       0x62 /home/ishyro/.arduino15/packages/chipKIT/tools/pic32-tools/1.43-pic32gcc/bin/bin/../../lib/gcc/pic32mx/4.8.3/size/libgcc.a(_lshrdi3.o)
 .debug_loc     0x00009555       0x9b /home/ishyro/.arduino15/packages/chipKIT/tools/pic32-tools/1.43-pic32gcc/bin/bin/../../lib/gcc/pic32mx/4.8.3/size/libgcc.a(_ashldi3.o)
 .debug_loc     0x000095f0       0x62 /home/ishyro/.arduino15/packages/chipKIT/tools/pic32-tools/1.43-pic32gcc/bin/bin/../../lib/gcc/pic32mx/4.8.3/size/libgcc.a(_ashrdi3.o)
 .debug_loc     0x00009652      0x9f9 /home/ishyro/.arduino15/packages/chipKIT/tools/pic32-tools/1.43-pic32gcc/bin/bin/../../lib/gcc/pic32mx/4.8.3/size/libgcc.a(_divdi3.o)
 .debug_loc     0x0000a04b      0x8e3 /home/ishyro/.arduino15/packages/chipKIT/tools/pic32-tools/1.43-pic32gcc/bin/bin/../../lib/gcc/pic32mx/4.8.3/size/libgcc.a(_moddi3.o)
 .debug_loc     0x0000a92e      0x775 /home/ishyro/.arduino15/packages/chipKIT/tools/pic32-tools/1.43-pic32gcc/bin/bin/../../lib/gcc/pic32mx/4.8.3/size/libgcc.a(addsf3.o)
 .debug_loc     0x0000b0a3      0x62c /home/ishyro/.arduino15/packages/chipKIT/tools/pic32-tools/1.43-pic32gcc/bin/bin/../../lib/gcc/pic32mx/4.8.3/size/libgcc.a(divsf3.o)
 .debug_loc     0x0000b6cf       0x8c /home/ishyro/.arduino15/packages/chipKIT/tools/pic32-tools/1.43-pic32gcc/bin/bin/../../lib/gcc/pic32mx/4.8.3/size/libgcc.a(eqsf2.o)
 .debug_loc     0x0000b75b      0x111 /home/ishyro/.arduino15/packages/chipKIT/tools/pic32-tools/1.43-pic32gcc/bin/bin/../../lib/gcc/pic32mx/4.8.3/size/libgcc.a(gesf2.o)
 .debug_loc     0x0000b86c      0x119 /home/ishyro/.arduino15/packages/chipKIT/tools/pic32-tools/1.43-pic32gcc/bin/bin/../../lib/gcc/pic32mx/4.8.3/size/libgcc.a(lesf2.o)
 .debug_loc     0x0000b985      0x438 /home/ishyro/.arduino15/packages/chipKIT/tools/pic32-tools/1.43-pic32gcc/bin/bin/../../lib/gcc/pic32mx/4.8.3/size/libgcc.a(mulsf3.o)
 .debug_loc     0x0000bdbd      0x78b /home/ishyro/.arduino15/packages/chipKIT/tools/pic32-tools/1.43-pic32gcc/bin/bin/../../lib/gcc/pic32mx/4.8.3/size/libgcc.a(subsf3.o)
 .debug_loc     0x0000c548       0xa0 /home/ishyro/.arduino15/packages/chipKIT/tools/pic32-tools/1.43-pic32gcc/bin/bin/../../lib/gcc/pic32mx/4.8.3/size/libgcc.a(fixsfsi.o)
 .debug_loc     0x0000c5e8      0x1d2 /home/ishyro/.arduino15/packages/chipKIT/tools/pic32-tools/1.43-pic32gcc/bin/bin/../../lib/gcc/pic32mx/4.8.3/size/libgcc.a(floatsisf.o)
 .debug_loc     0x0000c7ba      0x1ab /home/ishyro/.arduino15/packages/chipKIT/tools/pic32-tools/1.43-pic32gcc/bin/bin/../../lib/gcc/pic32mx/4.8.3/size/libgcc.a(fixsfdi.o)
 .debug_loc     0x0000c965      0x1b0 /home/ishyro/.arduino15/packages/chipKIT/tools/pic32-tools/1.43-pic32gcc/bin/bin/../../lib/gcc/pic32mx/4.8.3/size/libgcc.a(floatdisf.o)
 .debug_loc     0x0000cb15     0x1092 /home/ishyro/.arduino15/packages/chipKIT/tools/pic32-tools/1.43-pic32gcc/bin/bin/../../lib/gcc/pic32mx/4.8.3/size/libgcc.a(adddf3.o)
 .debug_loc     0x0000dba7      0xc81 /home/ishyro/.arduino15/packages/chipKIT/tools/pic32-tools/1.43-pic32gcc/bin/bin/../../lib/gcc/pic32mx/4.8.3/size/libgcc.a(divdf3.o)
 .debug_loc     0x0000e828       0x47 /home/ishyro/.arduino15/packages/chipKIT/tools/pic32-tools/1.43-pic32gcc/bin/bin/../../lib/gcc/pic32mx/4.8.3/size/libgcc.a(eqdf2.o)
 .debug_loc     0x0000e86f      0x176 /home/ishyro/.arduino15/packages/chipKIT/tools/pic32-tools/1.43-pic32gcc/bin/bin/../../lib/gcc/pic32mx/4.8.3/size/libgcc.a(gedf2.o)
 .debug_loc     0x0000e9e5       0xf7 /home/ishyro/.arduino15/packages/chipKIT/tools/pic32-tools/1.43-pic32gcc/bin/bin/../../lib/gcc/pic32mx/4.8.3/size/libgcc.a(ledf2.o)
 .debug_loc     0x0000eadc      0x8ad /home/ishyro/.arduino15/packages/chipKIT/tools/pic32-tools/1.43-pic32gcc/bin/bin/../../lib/gcc/pic32mx/4.8.3/size/libgcc.a(muldf3.o)
 .debug_loc     0x0000f389     0x10a8 /home/ishyro/.arduino15/packages/chipKIT/tools/pic32-tools/1.43-pic32gcc/bin/bin/../../lib/gcc/pic32mx/4.8.3/size/libgcc.a(subdf3.o)
 .debug_loc     0x00010431       0xb8 /home/ishyro/.arduino15/packages/chipKIT/tools/pic32-tools/1.43-pic32gcc/bin/bin/../../lib/gcc/pic32mx/4.8.3/size/libgcc.a(fixdfsi.o)
 .debug_loc     0x000104e9       0xb8 /home/ishyro/.arduino15/packages/chipKIT/tools/pic32-tools/1.43-pic32gcc/bin/bin/../../lib/gcc/pic32mx/4.8.3/size/libgcc.a(fixunsdfsi.o)
 .debug_loc     0x000105a1      0x1ab /home/ishyro/.arduino15/packages/chipKIT/tools/pic32-tools/1.43-pic32gcc/bin/bin/../../lib/gcc/pic32mx/4.8.3/size/libgcc.a(floatsidf.o)
 .debug_loc     0x0001074c       0x80 /home/ishyro/.arduino15/packages/chipKIT/tools/pic32-tools/1.43-pic32gcc/bin/bin/../../lib/gcc/pic32mx/4.8.3/size/libgcc.a(floatunsidf.o)
 .debug_loc     0x000107cc      0x1b5 /home/ishyro/.arduino15/packages/chipKIT/tools/pic32-tools/1.43-pic32gcc/bin/bin/../../lib/gcc/pic32mx/4.8.3/size/libgcc.a(extendsfdf2.o)
 .debug_loc     0x00010981      0x3c2 /home/ishyro/.arduino15/packages/chipKIT/tools/pic32-tools/1.43-pic32gcc/bin/bin/../../lib/gcc/pic32mx/4.8.3/size/libgcc.a(truncdfsf2.o)
 .debug_loc     0x00010d43      0x8b6 /home/ishyro/.arduino15/packages/chipKIT/tools/pic32-tools/1.43-pic32gcc/bin/bin/../../lib/gcc/pic32mx/4.8.3/size/libgcc.a(_udivdi3.o)
 .debug_loc     0x000115f9      0x821 /home/ishyro/.arduino15/packages/chipKIT/tools/pic32-tools/1.43-pic32gcc/bin/bin/../../lib/gcc/pic32mx/4.8.3/size/libgcc.a(_umoddi3.o)

.debug_macinfo
 *(.debug_macinfo)

.debug_weaknames
 *(.debug_weaknames)

.debug_funcnames
 *(.debug_funcnames)

.debug_typenames
 *(.debug_typenames)

.debug_varnames
 *(.debug_varnames)

.debug_pubtypes
 *(.debug_pubtypes)

.debug_ranges   0x00000000     0x1de0
 *(.debug_ranges)
 .debug_ranges  0x00000000       0x18 /home/ishyro/Documents/Info/M1/S2/OMicroB-next/src/byterun/pic32/cores/core.a(exceptions.c.o)
 .debug_ranges  0x00000018       0x78 /home/ishyro/Documents/Info/M1/S2/OMicroB-next/src/byterun/pic32/cores/core.a(task_manager.c.o)
 .debug_ranges  0x00000090      0x210 /home/ishyro/Documents/Info/M1/S2/OMicroB-next/src/byterun/pic32/cores/core.a(vector_table.S.o)
 .debug_ranges  0x000002a0       0xa8 /home/ishyro/Documents/Info/M1/S2/OMicroB-next/src/byterun/pic32/cores/core.a(wiring.c.o)
 .debug_ranges  0x00000348       0x58 /home/ishyro/Documents/Info/M1/S2/OMicroB-next/src/byterun/pic32/cores/core.a(wiring_analog.c.o)
 .debug_ranges  0x000003a0       0x28 /home/ishyro/Documents/Info/M1/S2/OMicroB-next/src/byterun/pic32/cores/core.a(wiring_digital.c.o)
 .debug_ranges  0x000003c8      0x250 /home/ishyro/Documents/Info/M1/S2/OMicroB-next/src/byterun/pic32/cores/core.a(USB.cpp.o)
 .debug_ranges  0x00000618      0x300 /home/ishyro/Documents/Info/M1/S2/OMicroB-next/src/byterun/pic32/cores/core.a(USB_CDCACM.cpp.o)
 .debug_ranges  0x00000918      0x1d0 /home/ishyro/Documents/Info/M1/S2/OMicroB-next/src/byterun/pic32/cores/core.a(USB_FS.cpp.o)
 .debug_ranges  0x00000ae8      0x110 /home/ishyro/Documents/Info/M1/S2/OMicroB-next/src/byterun/pic32/cores/core.a(WSystem.c.o)
 .debug_ranges  0x00000bf8       0x10 /home/ishyro/Documents/Info/M1/S2/OMicroB-next/src/byterun/pic32/cores/core.a(pins_arduino.c.o)
 .debug_ranges  0x00000c08      0x2e0 /home/ishyro/Documents/Info/M1/S2/OMicroB-next/src/byterun/pic32/cores/core.a(Print.cpp.o)
 .debug_ranges  0x00000ee8      0x420 /home/ishyro/Documents/Info/M1/S2/OMicroB-next/src/byterun/pic32/cores/core.a(doprnt.cpp.o)
 .debug_ranges  0x00001308       0x48 /home/ishyro/.arduino15/packages/chipKIT/tools/pic32-tools/1.43-pic32gcc/bin/bin/../../lib/gcc/pic32mx/4.8.3/../../../../pic32mx/lib/size/libsupc++.a(class_type_info.o)
 .debug_ranges  0x00001350       0x10 /home/ishyro/.arduino15/packages/chipKIT/tools/pic32-tools/1.43-pic32gcc/bin/bin/../../lib/gcc/pic32mx/4.8.3/../../../../pic32mx/lib/size/libsupc++.a(del_op.o)
 .debug_ranges  0x00001360       0x38 /home/ishyro/.arduino15/packages/chipKIT/tools/pic32-tools/1.43-pic32gcc/bin/bin/../../lib/gcc/pic32mx/4.8.3/../../../../pic32mx/lib/size/libsupc++.a(si_class_type_info.o)
 .debug_ranges  0x00001398       0x50 /home/ishyro/.arduino15/packages/chipKIT/tools/pic32-tools/1.43-pic32gcc/bin/bin/../../lib/gcc/pic32mx/4.8.3/../../../../pic32mx/lib/size/libsupc++.a(tinfo.o)
 .debug_ranges  0x000013e8      0x2b8 /home/ishyro/.arduino15/packages/chipKIT/tools/pic32-tools/1.43-pic32gcc/bin/bin/../../lib/gcc/pic32mx/4.8.3/../../../../pic32mx/lib/size/libsupc++.a(vmi_class_type_info.o)
 .debug_ranges  0x000016a0       0x18 /home/ishyro/.arduino15/packages/chipKIT/tools/pic32-tools/1.43-pic32gcc/bin/bin/../../lib/gcc/pic32mx/4.8.3/../../../../pic32mx/lib/size/libsupc++.a(pure.o)
 .debug_ranges  0x000016b8       0x38 /home/ishyro/.arduino15/packages/chipKIT/tools/pic32-tools/1.43-pic32gcc/bin/bin/../../lib/gcc/pic32mx/4.8.3/../../../../pic32mx/lib/size/libsupc++.a(eh_terminate.o)
 .debug_ranges  0x000016f0       0x38 /home/ishyro/.arduino15/packages/chipKIT/tools/pic32-tools/1.43-pic32gcc/bin/bin/../../lib/gcc/pic32mx/4.8.3/size/libgcc.a(_divdi3.o)
 .debug_ranges  0x00001728       0x38 /home/ishyro/.arduino15/packages/chipKIT/tools/pic32-tools/1.43-pic32gcc/bin/bin/../../lib/gcc/pic32mx/4.8.3/size/libgcc.a(_moddi3.o)
 .debug_ranges  0x00001760       0xa0 /home/ishyro/.arduino15/packages/chipKIT/tools/pic32-tools/1.43-pic32gcc/bin/bin/../../lib/gcc/pic32mx/4.8.3/size/libgcc.a(addsf3.o)
 .debug_ranges  0x00001800       0x18 /home/ishyro/.arduino15/packages/chipKIT/tools/pic32-tools/1.43-pic32gcc/bin/bin/../../lib/gcc/pic32mx/4.8.3/size/libgcc.a(divsf3.o)
 .debug_ranges  0x00001818       0x20 /home/ishyro/.arduino15/packages/chipKIT/tools/pic32-tools/1.43-pic32gcc/bin/bin/../../lib/gcc/pic32mx/4.8.3/size/libgcc.a(gesf2.o)
 .debug_ranges  0x00001838       0x18 /home/ishyro/.arduino15/packages/chipKIT/tools/pic32-tools/1.43-pic32gcc/bin/bin/../../lib/gcc/pic32mx/4.8.3/size/libgcc.a(lesf2.o)
 .debug_ranges  0x00001850       0x28 /home/ishyro/.arduino15/packages/chipKIT/tools/pic32-tools/1.43-pic32gcc/bin/bin/../../lib/gcc/pic32mx/4.8.3/size/libgcc.a(mulsf3.o)
 .debug_ranges  0x00001878       0x80 /home/ishyro/.arduino15/packages/chipKIT/tools/pic32-tools/1.43-pic32gcc/bin/bin/../../lib/gcc/pic32mx/4.8.3/size/libgcc.a(subsf3.o)
 .debug_ranges  0x000018f8       0x38 /home/ishyro/.arduino15/packages/chipKIT/tools/pic32-tools/1.43-pic32gcc/bin/bin/../../lib/gcc/pic32mx/4.8.3/size/libgcc.a(floatsisf.o)
 .debug_ranges  0x00001930       0x38 /home/ishyro/.arduino15/packages/chipKIT/tools/pic32-tools/1.43-pic32gcc/bin/bin/../../lib/gcc/pic32mx/4.8.3/size/libgcc.a(floatdisf.o)
 .debug_ranges  0x00001968      0x150 /home/ishyro/.arduino15/packages/chipKIT/tools/pic32-tools/1.43-pic32gcc/bin/bin/../../lib/gcc/pic32mx/4.8.3/size/libgcc.a(adddf3.o)
 .debug_ranges  0x00001ab8       0x60 /home/ishyro/.arduino15/packages/chipKIT/tools/pic32-tools/1.43-pic32gcc/bin/bin/../../lib/gcc/pic32mx/4.8.3/size/libgcc.a(divdf3.o)
 .debug_ranges  0x00001b18       0x18 /home/ishyro/.arduino15/packages/chipKIT/tools/pic32-tools/1.43-pic32gcc/bin/bin/../../lib/gcc/pic32mx/4.8.3/size/libgcc.a(gedf2.o)
 .debug_ranges  0x00001b30       0x18 /home/ishyro/.arduino15/packages/chipKIT/tools/pic32-tools/1.43-pic32gcc/bin/bin/../../lib/gcc/pic32mx/4.8.3/size/libgcc.a(ledf2.o)
 .debug_ranges  0x00001b48       0xc0 /home/ishyro/.arduino15/packages/chipKIT/tools/pic32-tools/1.43-pic32gcc/bin/bin/../../lib/gcc/pic32mx/4.8.3/size/libgcc.a(muldf3.o)
 .debug_ranges  0x00001c08      0x130 /home/ishyro/.arduino15/packages/chipKIT/tools/pic32-tools/1.43-pic32gcc/bin/bin/../../lib/gcc/pic32mx/4.8.3/size/libgcc.a(subdf3.o)
 .debug_ranges  0x00001d38       0x18 /home/ishyro/.arduino15/packages/chipKIT/tools/pic32-tools/1.43-pic32gcc/bin/bin/../../lib/gcc/pic32mx/4.8.3/size/libgcc.a(floatsidf.o)
 .debug_ranges  0x00001d50       0x18 /home/ishyro/.arduino15/packages/chipKIT/tools/pic32-tools/1.43-pic32gcc/bin/bin/../../lib/gcc/pic32mx/4.8.3/size/libgcc.a(extendsfdf2.o)
 .debug_ranges  0x00001d68       0x40 /home/ishyro/.arduino15/packages/chipKIT/tools/pic32-tools/1.43-pic32gcc/bin/bin/../../lib/gcc/pic32mx/4.8.3/size/libgcc.a(_udivdi3.o)
 .debug_ranges  0x00001da8       0x38 /home/ishyro/.arduino15/packages/chipKIT/tools/pic32-tools/1.43-pic32gcc/bin/bin/../../lib/gcc/pic32mx/4.8.3/size/libgcc.a(_umoddi3.o)

.gnu.attributes
                0x00000000       0x10
 *(.gnu.attributes)
 .gnu.attributes
                0x00000000       0x10 /tmp/ccpHnSIR.o
 .gnu.attributes
                0x00000010       0x10 /home/ishyro/Documents/Info/M1/S2/OMicroB-next/src/byterun/pic32/Board_Data.o
 .gnu.attributes
                0x00000020       0x10 /home/ishyro/Documents/Info/M1/S2/OMicroB-next/src/byterun/pic32/cores/core.a(exceptions.c.o)
 .gnu.attributes
                0x00000030       0x10 /home/ishyro/Documents/Info/M1/S2/OMicroB-next/src/byterun/pic32/cores/core.a(task_manager.c.o)
 .gnu.attributes
                0x00000040       0x10 /home/ishyro/Documents/Info/M1/S2/OMicroB-next/src/byterun/pic32/cores/core.a(wiring.c.o)
 .gnu.attributes
                0x00000050       0x10 /home/ishyro/Documents/Info/M1/S2/OMicroB-next/src/byterun/pic32/cores/core.a(wiring_analog.c.o)
 .gnu.attributes
                0x00000060       0x10 /home/ishyro/Documents/Info/M1/S2/OMicroB-next/src/byterun/pic32/cores/core.a(wiring_digital.c.o)
 .gnu.attributes
                0x00000070       0x10 /home/ishyro/Documents/Info/M1/S2/OMicroB-next/src/byterun/pic32/cores/core.a(USB.cpp.o)
 .gnu.attributes
                0x00000080       0x10 /home/ishyro/Documents/Info/M1/S2/OMicroB-next/src/byterun/pic32/cores/core.a(USB_CDCACM.cpp.o)
 .gnu.attributes
                0x00000090       0x10 /home/ishyro/Documents/Info/M1/S2/OMicroB-next/src/byterun/pic32/cores/core.a(USB_FS.cpp.o)
 .gnu.attributes
                0x000000a0       0x10 /home/ishyro/Documents/Info/M1/S2/OMicroB-next/src/byterun/pic32/cores/core.a(WSystem.c.o)
 .gnu.attributes
                0x000000b0       0x10 /home/ishyro/Documents/Info/M1/S2/OMicroB-next/src/byterun/pic32/cores/core.a(pins_arduino.c.o)
 .gnu.attributes
                0x000000c0       0x10 /home/ishyro/Documents/Info/M1/S2/OMicroB-next/src/byterun/pic32/cores/core.a(Print.cpp.o)
 .gnu.attributes
                0x000000d0       0x10 /home/ishyro/Documents/Info/M1/S2/OMicroB-next/src/byterun/pic32/cores/core.a(doprnt.cpp.o)
 .gnu.attributes
                0x000000e0       0x10 /home/ishyro/.arduino15/packages/chipKIT/tools/pic32-tools/1.43-pic32gcc/bin/bin/../../lib/gcc/pic32mx/4.8.3/../../../../pic32mx/lib/size/libsupc++.a(class_type_info.o)
 .gnu.attributes
                0x000000f0       0x10 /home/ishyro/.arduino15/packages/chipKIT/tools/pic32-tools/1.43-pic32gcc/bin/bin/../../lib/gcc/pic32mx/4.8.3/../../../../pic32mx/lib/size/libsupc++.a(del_op.o)
 .gnu.attributes
                0x00000100       0x10 /home/ishyro/.arduino15/packages/chipKIT/tools/pic32-tools/1.43-pic32gcc/bin/bin/../../lib/gcc/pic32mx/4.8.3/../../../../pic32mx/lib/size/libsupc++.a(si_class_type_info.o)
 .gnu.attributes
                0x00000110       0x10 /home/ishyro/.arduino15/packages/chipKIT/tools/pic32-tools/1.43-pic32gcc/bin/bin/../../lib/gcc/pic32mx/4.8.3/../../../../pic32mx/lib/size/libsupc++.a(tinfo.o)
 .gnu.attributes
                0x00000120       0x10 /home/ishyro/.arduino15/packages/chipKIT/tools/pic32-tools/1.43-pic32gcc/bin/bin/../../lib/gcc/pic32mx/4.8.3/../../../../pic32mx/lib/size/libsupc++.a(vmi_class_type_info.o)
 .gnu.attributes
                0x00000130       0x10 /home/ishyro/.arduino15/packages/chipKIT/tools/pic32-tools/1.43-pic32gcc/bin/bin/../../lib/gcc/pic32mx/4.8.3/../../../../pic32mx/lib/size/libsupc++.a(pure.o)
 .gnu.attributes
                0x00000140       0x10 /home/ishyro/.arduino15/packages/chipKIT/tools/pic32-tools/1.43-pic32gcc/bin/bin/../../lib/gcc/pic32mx/4.8.3/../../../../pic32mx/lib/size/libsupc++.a(eh_terminate.o)
 .gnu.attributes
                0x00000150       0x10 /home/ishyro/.arduino15/packages/chipKIT/tools/pic32-tools/1.43-pic32gcc/bin/bin/../../lib/gcc/pic32mx/4.8.3/../../../../pic32mx/lib/size/libsupc++.a(eh_unex_handler.o)
 .gnu.attributes
                0x00000160       0x10 /home/ishyro/.arduino15/packages/chipKIT/tools/pic32-tools/1.43-pic32gcc/bin/bin/../../lib/gcc/pic32mx/4.8.3/../../../../pic32mx/lib/size/libsupc++.a(eh_term_handler.o)
 .gnu.attributes
                0x00000170       0x10 /home/ishyro/.arduino15/packages/chipKIT/tools/pic32-tools/1.43-pic32gcc/bin/bin/../../lib/gcc/pic32mx/4.8.3/../../../../pic32mx/lib/size/libm.a(lib_a-s_cos.o)
 .gnu.attributes
                0x00000180       0x10 /home/ishyro/.arduino15/packages/chipKIT/tools/pic32-tools/1.43-pic32gcc/bin/bin/../../lib/gcc/pic32mx/4.8.3/../../../../pic32mx/lib/size/libm.a(lib_a-s_fpclassify.o)
 .gnu.attributes
                0x00000190       0x10 /home/ishyro/.arduino15/packages/chipKIT/tools/pic32-tools/1.43-pic32gcc/bin/bin/../../lib/gcc/pic32mx/4.8.3/../../../../pic32mx/lib/size/libm.a(lib_a-s_modf.o)
 .gnu.attributes
                0x000001a0       0x10 /home/ishyro/.arduino15/packages/chipKIT/tools/pic32-tools/1.43-pic32gcc/bin/bin/../../lib/gcc/pic32mx/4.8.3/../../../../pic32mx/lib/size/libm.a(lib_a-s_sin.o)
 .gnu.attributes
                0x000001b0       0x10 /home/ishyro/.arduino15/packages/chipKIT/tools/pic32-tools/1.43-pic32gcc/bin/bin/../../lib/gcc/pic32mx/4.8.3/../../../../pic32mx/lib/size/libm.a(lib_a-w_atan2.o)
 .gnu.attributes
                0x000001c0       0x10 /home/ishyro/.arduino15/packages/chipKIT/tools/pic32-tools/1.43-pic32gcc/bin/bin/../../lib/gcc/pic32mx/4.8.3/../../../../pic32mx/lib/size/libm.a(lib_a-w_fmod.o)
 .gnu.attributes
                0x000001d0       0x10 /home/ishyro/.arduino15/packages/chipKIT/tools/pic32-tools/1.43-pic32gcc/bin/bin/../../lib/gcc/pic32mx/4.8.3/../../../../pic32mx/lib/size/libm.a(lib_a-w_sqrt.o)
 .gnu.attributes
                0x000001e0       0x10 /home/ishyro/.arduino15/packages/chipKIT/tools/pic32-tools/1.43-pic32gcc/bin/bin/../../lib/gcc/pic32mx/4.8.3/../../../../pic32mx/lib/size/libm.a(lib_a-e_atan2.o)
 .gnu.attributes
                0x000001f0       0x10 /home/ishyro/.arduino15/packages/chipKIT/tools/pic32-tools/1.43-pic32gcc/bin/bin/../../lib/gcc/pic32mx/4.8.3/../../../../pic32mx/lib/size/libm.a(lib_a-e_fmod.o)
 .gnu.attributes
                0x00000200       0x10 /home/ishyro/.arduino15/packages/chipKIT/tools/pic32-tools/1.43-pic32gcc/bin/bin/../../lib/gcc/pic32mx/4.8.3/../../../../pic32mx/lib/size/libm.a(lib_a-e_rem_pio2.o)
 .gnu.attributes
                0x00000210       0x10 /home/ishyro/.arduino15/packages/chipKIT/tools/pic32-tools/1.43-pic32gcc/bin/bin/../../lib/gcc/pic32mx/4.8.3/../../../../pic32mx/lib/size/libm.a(lib_a-e_sqrt.o)
 .gnu.attributes
                0x00000220       0x10 /home/ishyro/.arduino15/packages/chipKIT/tools/pic32-tools/1.43-pic32gcc/bin/bin/../../lib/gcc/pic32mx/4.8.3/../../../../pic32mx/lib/size/libm.a(lib_a-k_cos.o)
 .gnu.attributes
                0x00000230       0x10 /home/ishyro/.arduino15/packages/chipKIT/tools/pic32-tools/1.43-pic32gcc/bin/bin/../../lib/gcc/pic32mx/4.8.3/../../../../pic32mx/lib/size/libm.a(lib_a-k_rem_pio2.o)
 .gnu.attributes
                0x00000240       0x10 /home/ishyro/.arduino15/packages/chipKIT/tools/pic32-tools/1.43-pic32gcc/bin/bin/../../lib/gcc/pic32mx/4.8.3/../../../../pic32mx/lib/size/libm.a(lib_a-k_sin.o)
 .gnu.attributes
                0x00000250       0x10 /home/ishyro/.arduino15/packages/chipKIT/tools/pic32-tools/1.43-pic32gcc/bin/bin/../../lib/gcc/pic32mx/4.8.3/../../../../pic32mx/lib/size/libm.a(lib_a-s_atan.o)
 .gnu.attributes
                0x00000260       0x10 /home/ishyro/.arduino15/packages/chipKIT/tools/pic32-tools/1.43-pic32gcc/bin/bin/../../lib/gcc/pic32mx/4.8.3/../../../../pic32mx/lib/size/libm.a(lib_a-s_fabs.o)
 .gnu.attributes
                0x00000270       0x10 /home/ishyro/.arduino15/packages/chipKIT/tools/pic32-tools/1.43-pic32gcc/bin/bin/../../lib/gcc/pic32mx/4.8.3/../../../../pic32mx/lib/size/libm.a(lib_a-s_floor.o)
 .gnu.attributes
                0x00000280       0x10 /home/ishyro/.arduino15/packages/chipKIT/tools/pic32-tools/1.43-pic32gcc/bin/bin/../../lib/gcc/pic32mx/4.8.3/../../../../pic32mx/lib/size/libm.a(lib_a-s_lib_ver.o)
 .gnu.attributes
                0x00000290       0x10 /home/ishyro/.arduino15/packages/chipKIT/tools/pic32-tools/1.43-pic32gcc/bin/bin/../../lib/gcc/pic32mx/4.8.3/../../../../pic32mx/lib/size/libm.a(lib_a-s_matherr.o)
 .gnu.attributes
                0x000002a0       0x10 /home/ishyro/.arduino15/packages/chipKIT/tools/pic32-tools/1.43-pic32gcc/bin/bin/../../lib/gcc/pic32mx/4.8.3/../../../../pic32mx/lib/size/libm.a(lib_a-s_scalbn.o)
 .gnu.attributes
                0x000002b0       0x10 /home/ishyro/.arduino15/packages/chipKIT/tools/pic32-tools/1.43-pic32gcc/bin/bin/../../lib/gcc/pic32mx/4.8.3/../../../../pic32mx/lib/size/libm.a(lib_a-s_copysign.o)
 .gnu.attributes
                0x000002c0       0x10 /home/ishyro/.arduino15/packages/chipKIT/tools/pic32-tools/1.43-pic32gcc/bin/bin/../../lib/gcc/pic32mx/4.8.3/size/crtbegin.o
 .gnu.attributes
                0x000002d0       0x10 /home/ishyro/.arduino15/packages/chipKIT/tools/pic32-tools/1.43-pic32gcc/bin/bin/../../lib/gcc/pic32mx/4.8.3/size/crtend.o
 .gnu.attributes
                0x000002e0       0x10 /home/ishyro/.arduino15/packages/chipKIT/tools/pic32-tools/1.43-pic32gcc/bin/bin/../../lib/gcc/pic32mx/4.8.3/size/libgcc.a(_lshrdi3.o)
 .gnu.attributes
                0x000002f0       0x10 /home/ishyro/.arduino15/packages/chipKIT/tools/pic32-tools/1.43-pic32gcc/bin/bin/../../lib/gcc/pic32mx/4.8.3/size/libgcc.a(_ashldi3.o)
 .gnu.attributes
                0x00000300       0x10 /home/ishyro/.arduino15/packages/chipKIT/tools/pic32-tools/1.43-pic32gcc/bin/bin/../../lib/gcc/pic32mx/4.8.3/size/libgcc.a(_ashrdi3.o)
 .gnu.attributes
                0x00000310       0x10 /home/ishyro/.arduino15/packages/chipKIT/tools/pic32-tools/1.43-pic32gcc/bin/bin/../../lib/gcc/pic32mx/4.8.3/size/libgcc.a(_divdi3.o)
 .gnu.attributes
                0x00000320       0x10 /home/ishyro/.arduino15/packages/chipKIT/tools/pic32-tools/1.43-pic32gcc/bin/bin/../../lib/gcc/pic32mx/4.8.3/size/libgcc.a(_moddi3.o)
 .gnu.attributes
                0x00000330       0x10 /home/ishyro/.arduino15/packages/chipKIT/tools/pic32-tools/1.43-pic32gcc/bin/bin/../../lib/gcc/pic32mx/4.8.3/size/libgcc.a(addsf3.o)
 .gnu.attributes
                0x00000340       0x10 /home/ishyro/.arduino15/packages/chipKIT/tools/pic32-tools/1.43-pic32gcc/bin/bin/../../lib/gcc/pic32mx/4.8.3/size/libgcc.a(divsf3.o)
 .gnu.attributes
                0x00000350       0x10 /home/ishyro/.arduino15/packages/chipKIT/tools/pic32-tools/1.43-pic32gcc/bin/bin/../../lib/gcc/pic32mx/4.8.3/size/libgcc.a(eqsf2.o)
 .gnu.attributes
                0x00000360       0x10 /home/ishyro/.arduino15/packages/chipKIT/tools/pic32-tools/1.43-pic32gcc/bin/bin/../../lib/gcc/pic32mx/4.8.3/size/libgcc.a(gesf2.o)
 .gnu.attributes
                0x00000370       0x10 /home/ishyro/.arduino15/packages/chipKIT/tools/pic32-tools/1.43-pic32gcc/bin/bin/../../lib/gcc/pic32mx/4.8.3/size/libgcc.a(lesf2.o)
 .gnu.attributes
                0x00000380       0x10 /home/ishyro/.arduino15/packages/chipKIT/tools/pic32-tools/1.43-pic32gcc/bin/bin/../../lib/gcc/pic32mx/4.8.3/size/libgcc.a(mulsf3.o)
 .gnu.attributes
                0x00000390       0x10 /home/ishyro/.arduino15/packages/chipKIT/tools/pic32-tools/1.43-pic32gcc/bin/bin/../../lib/gcc/pic32mx/4.8.3/size/libgcc.a(subsf3.o)
 .gnu.attributes
                0x000003a0       0x10 /home/ishyro/.arduino15/packages/chipKIT/tools/pic32-tools/1.43-pic32gcc/bin/bin/../../lib/gcc/pic32mx/4.8.3/size/libgcc.a(fixsfsi.o)
 .gnu.attributes
                0x000003b0       0x10 /home/ishyro/.arduino15/packages/chipKIT/tools/pic32-tools/1.43-pic32gcc/bin/bin/../../lib/gcc/pic32mx/4.8.3/size/libgcc.a(floatsisf.o)
 .gnu.attributes
                0x000003c0       0x10 /home/ishyro/.arduino15/packages/chipKIT/tools/pic32-tools/1.43-pic32gcc/bin/bin/../../lib/gcc/pic32mx/4.8.3/size/libgcc.a(fixsfdi.o)
 .gnu.attributes
                0x000003d0       0x10 /home/ishyro/.arduino15/packages/chipKIT/tools/pic32-tools/1.43-pic32gcc/bin/bin/../../lib/gcc/pic32mx/4.8.3/size/libgcc.a(floatdisf.o)
 .gnu.attributes
                0x000003e0       0x10 /home/ishyro/.arduino15/packages/chipKIT/tools/pic32-tools/1.43-pic32gcc/bin/bin/../../lib/gcc/pic32mx/4.8.3/size/libgcc.a(adddf3.o)
 .gnu.attributes
                0x000003f0       0x10 /home/ishyro/.arduino15/packages/chipKIT/tools/pic32-tools/1.43-pic32gcc/bin/bin/../../lib/gcc/pic32mx/4.8.3/size/libgcc.a(divdf3.o)
 .gnu.attributes
                0x00000400       0x10 /home/ishyro/.arduino15/packages/chipKIT/tools/pic32-tools/1.43-pic32gcc/bin/bin/../../lib/gcc/pic32mx/4.8.3/size/libgcc.a(eqdf2.o)
 .gnu.attributes
                0x00000410       0x10 /home/ishyro/.arduino15/packages/chipKIT/tools/pic32-tools/1.43-pic32gcc/bin/bin/../../lib/gcc/pic32mx/4.8.3/size/libgcc.a(gedf2.o)
 .gnu.attributes
                0x00000420       0x10 /home/ishyro/.arduino15/packages/chipKIT/tools/pic32-tools/1.43-pic32gcc/bin/bin/../../lib/gcc/pic32mx/4.8.3/size/libgcc.a(ledf2.o)
 .gnu.attributes
                0x00000430       0x10 /home/ishyro/.arduino15/packages/chipKIT/tools/pic32-tools/1.43-pic32gcc/bin/bin/../../lib/gcc/pic32mx/4.8.3/size/libgcc.a(muldf3.o)
 .gnu.attributes
                0x00000440       0x10 /home/ishyro/.arduino15/packages/chipKIT/tools/pic32-tools/1.43-pic32gcc/bin/bin/../../lib/gcc/pic32mx/4.8.3/size/libgcc.a(subdf3.o)
 .gnu.attributes
                0x00000450       0x10 /home/ishyro/.arduino15/packages/chipKIT/tools/pic32-tools/1.43-pic32gcc/bin/bin/../../lib/gcc/pic32mx/4.8.3/size/libgcc.a(fixdfsi.o)
 .gnu.attributes
                0x00000460       0x10 /home/ishyro/.arduino15/packages/chipKIT/tools/pic32-tools/1.43-pic32gcc/bin/bin/../../lib/gcc/pic32mx/4.8.3/size/libgcc.a(fixunsdfsi.o)
 .gnu.attributes
                0x00000470       0x10 /home/ishyro/.arduino15/packages/chipKIT/tools/pic32-tools/1.43-pic32gcc/bin/bin/../../lib/gcc/pic32mx/4.8.3/size/libgcc.a(floatsidf.o)
 .gnu.attributes
                0x00000480       0x10 /home/ishyro/.arduino15/packages/chipKIT/tools/pic32-tools/1.43-pic32gcc/bin/bin/../../lib/gcc/pic32mx/4.8.3/size/libgcc.a(floatunsidf.o)
 .gnu.attributes
                0x00000490       0x10 /home/ishyro/.arduino15/packages/chipKIT/tools/pic32-tools/1.43-pic32gcc/bin/bin/../../lib/gcc/pic32mx/4.8.3/size/libgcc.a(extendsfdf2.o)
 .gnu.attributes
                0x000004a0       0x10 /home/ishyro/.arduino15/packages/chipKIT/tools/pic32-tools/1.43-pic32gcc/bin/bin/../../lib/gcc/pic32mx/4.8.3/size/libgcc.a(truncdfsf2.o)
 .gnu.attributes
                0x000004b0       0x10 /home/ishyro/.arduino15/packages/chipKIT/tools/pic32-tools/1.43-pic32gcc/bin/bin/../../lib/gcc/pic32mx/4.8.3/../../../../pic32mx/lib/size/libc.a(lib_a-abort.o)
 .gnu.attributes
                0x000004c0       0x10 /home/ishyro/.arduino15/packages/chipKIT/tools/pic32-tools/1.43-pic32gcc/bin/bin/../../lib/gcc/pic32mx/4.8.3/../../../../pic32mx/lib/size/libc.a(lib_a-errno.o)
 .gnu.attributes
                0x000004d0       0x10 /home/ishyro/.arduino15/packages/chipKIT/tools/pic32-tools/1.43-pic32gcc/bin/bin/../../lib/gcc/pic32mx/4.8.3/../../../../pic32mx/lib/size/libc.a(lib_a-impure.o)
 .gnu.attributes
                0x000004e0       0x10 /home/ishyro/.arduino15/packages/chipKIT/tools/pic32-tools/1.43-pic32gcc/bin/bin/../../lib/gcc/pic32mx/4.8.3/../../../../pic32mx/lib/size/libc.a(lib_a-malloc.o)
 .gnu.attributes
                0x000004f0       0x10 /home/ishyro/.arduino15/packages/chipKIT/tools/pic32-tools/1.43-pic32gcc/bin/bin/../../lib/gcc/pic32mx/4.8.3/../../../../pic32mx/lib/size/libc.a(lib_a-mallocr.o)
 .gnu.attributes
                0x00000500       0x10 /home/ishyro/.arduino15/packages/chipKIT/tools/pic32-tools/1.43-pic32gcc/bin/bin/../../lib/gcc/pic32mx/4.8.3/../../../../pic32mx/lib/size/libc.a(lib_a-memcpy.o)
 .gnu.attributes
                0x00000510       0x10 /home/ishyro/.arduino15/packages/chipKIT/tools/pic32-tools/1.43-pic32gcc/bin/bin/../../lib/gcc/pic32mx/4.8.3/../../../../pic32mx/lib/size/libc.a(lib_a-memmove.o)
 .gnu.attributes
                0x00000520       0x10 /home/ishyro/.arduino15/packages/chipKIT/tools/pic32-tools/1.43-pic32gcc/bin/bin/../../lib/gcc/pic32mx/4.8.3/../../../../pic32mx/lib/size/libc.a(lib_a-mlock.o)
 .gnu.attributes
                0x00000530       0x10 /home/ishyro/.arduino15/packages/chipKIT/tools/pic32-tools/1.43-pic32gcc/bin/bin/../../lib/gcc/pic32mx/4.8.3/../../../../pic32mx/lib/size/libc.a(lib_a-sbrkr.o)
 .gnu.attributes
                0x00000540       0x10 /home/ishyro/.arduino15/packages/chipKIT/tools/pic32-tools/1.43-pic32gcc/bin/bin/../../lib/gcc/pic32mx/4.8.3/../../../../pic32mx/lib/size/libc.a(lib_a-signal.o)
 .gnu.attributes
                0x00000550       0x10 /home/ishyro/.arduino15/packages/chipKIT/tools/pic32-tools/1.43-pic32gcc/bin/bin/../../lib/gcc/pic32mx/4.8.3/../../../../pic32mx/lib/size/libc.a(lib_a-signalr.o)
 .gnu.attributes
                0x00000560       0x10 /home/ishyro/.arduino15/packages/chipKIT/tools/pic32-tools/1.43-pic32gcc/bin/bin/../../lib/gcc/pic32mx/4.8.3/../../../../pic32mx/lib/size/libc.a(lib_a-snprintf.o)
 .gnu.attributes
                0x00000570       0x10 /home/ishyro/.arduino15/packages/chipKIT/tools/pic32-tools/1.43-pic32gcc/bin/bin/../../lib/gcc/pic32mx/4.8.3/../../../../pic32mx/lib/size/libc.a(lib_a-strcmp.o)
 .gnu.attributes
                0x00000580       0x10 /home/ishyro/.arduino15/packages/chipKIT/tools/pic32-tools/1.43-pic32gcc/bin/bin/../../lib/gcc/pic32mx/4.8.3/../../../../pic32mx/lib/size/libc.a(lib_a-strlen.o)
 .gnu.attributes
                0x00000590       0x10 /home/ishyro/.arduino15/packages/chipKIT/tools/pic32-tools/1.43-pic32gcc/bin/bin/../../lib/gcc/pic32mx/4.8.3/../../../../pic32mx/lib/size/libc.a(lib_a-svfprintf.o)
 .gnu.attributes
                0x000005a0       0x10 /home/ishyro/.arduino15/packages/chipKIT/tools/pic32-tools/1.43-pic32gcc/bin/bin/../../lib/gcc/pic32mx/4.8.3/../../../../pic32mx/lib/size/libc.a(lib_a-dtoa.o)
 .gnu.attributes
                0x000005b0       0x10 /home/ishyro/.arduino15/packages/chipKIT/tools/pic32-tools/1.43-pic32gcc/bin/bin/../../lib/gcc/pic32mx/4.8.3/../../../../pic32mx/lib/size/libc.a(lib_a-freer.o)
 .gnu.attributes
                0x000005c0       0x10 /home/ishyro/.arduino15/packages/chipKIT/tools/pic32-tools/1.43-pic32gcc/bin/bin/../../lib/gcc/pic32mx/4.8.3/../../../../pic32mx/lib/size/libc.a(lib_a-locale.o)
 .gnu.attributes
                0x000005d0       0x10 /home/ishyro/.arduino15/packages/chipKIT/tools/pic32-tools/1.43-pic32gcc/bin/bin/../../lib/gcc/pic32mx/4.8.3/../../../../pic32mx/lib/size/libc.a(lib_a-memchr.o)
 .gnu.attributes
                0x000005e0       0x10 /home/ishyro/.arduino15/packages/chipKIT/tools/pic32-tools/1.43-pic32gcc/bin/bin/../../lib/gcc/pic32mx/4.8.3/../../../../pic32mx/lib/size/libc.a(lib_a-mprec.o)
 .gnu.attributes
                0x000005f0       0x10 /home/ishyro/.arduino15/packages/chipKIT/tools/pic32-tools/1.43-pic32gcc/bin/bin/../../lib/gcc/pic32mx/4.8.3/../../../../pic32mx/lib/size/libc.a(lib_a-reent.o)
 .gnu.attributes
                0x00000600       0x10 /home/ishyro/.arduino15/packages/chipKIT/tools/pic32-tools/1.43-pic32gcc/bin/bin/../../lib/gcc/pic32mx/4.8.3/../../../../pic32mx/lib/size/libc.a(lib_a-svfiprintf.o)
 .gnu.attributes
                0x00000610       0x10 /home/ishyro/.arduino15/packages/chipKIT/tools/pic32-tools/1.43-pic32gcc/bin/bin/../../lib/gcc/pic32mx/4.8.3/../../../../pic32mx/lib/size/libc.a(lib_a-callocr.o)
 .gnu.attributes
                0x00000620       0x10 /home/ishyro/.arduino15/packages/chipKIT/tools/pic32-tools/1.43-pic32gcc/bin/bin/../../lib/gcc/pic32mx/4.8.3/../../../../pic32mx/lib/size/libc.a(lib_a-memset.o)
 .gnu.attributes
                0x00000630       0x10 /home/ishyro/.arduino15/packages/chipKIT/tools/pic32-tools/1.43-pic32gcc/bin/bin/../../lib/gcc/pic32mx/4.8.3/../../../../pic32mx/lib/size/libc.a(lib_a-reallocr.o)
 .gnu.attributes
                0x00000640       0x10 /home/ishyro/.arduino15/packages/chipKIT/tools/pic32-tools/1.43-pic32gcc/bin/bin/../../lib/gcc/pic32mx/4.8.3/../../../../pic32mx/lib/size/libpic32.a(sbrk.o)
 .gnu.attributes
                0x00000650       0x10 /home/ishyro/.arduino15/packages/chipKIT/tools/pic32-tools/1.43-pic32gcc/bin/bin/../../lib/gcc/pic32mx/4.8.3/../../../../pic32mx/lib/size/libpic32.a(default-bootstrap-exception-handler.o)
 .gnu.attributes
                0x00000660       0x10 /home/ishyro/.arduino15/packages/chipKIT/tools/pic32-tools/1.43-pic32gcc/bin/bin/../../lib/gcc/pic32mx/4.8.3/../../../../pic32mx/lib/size/libpic32.a(default-on-reset.o)
 .gnu.attributes
                0x00000670       0x10 /home/ishyro/.arduino15/packages/chipKIT/tools/pic32-tools/1.43-pic32gcc/bin/bin/../../lib/gcc/pic32mx/4.8.3/../../../../pic32mx/lib/size/libpic32.a(default-on-bootstrap.o)
 .gnu.attributes
                0x00000680       0x10 /home/ishyro/.arduino15/packages/chipKIT/tools/pic32-tools/1.43-pic32gcc/bin/bin/../../lib/gcc/pic32mx/4.8.3/../../../../pic32mx/lib/size/libpic32.a(_exit.o)
 .gnu.attributes
                0x00000690       0x10 /home/ishyro/.arduino15/packages/chipKIT/tools/pic32-tools/1.43-pic32gcc/bin/bin/../../lib/gcc/pic32mx/4.8.3/../../../../pic32mx/lib/size/libpic32.a(kill.o)
 .gnu.attributes
                0x000006a0       0x10 /home/ishyro/.arduino15/packages/chipKIT/tools/pic32-tools/1.43-pic32gcc/bin/bin/../../lib/gcc/pic32mx/4.8.3/../../../../pic32mx/lib/size/libpic32.a(getpid.o)
 .gnu.attributes
                0x000006b0       0x10 /home/ishyro/.arduino15/packages/chipKIT/tools/pic32-tools/1.43-pic32gcc/bin/bin/../../lib/gcc/pic32mx/4.8.3/size/libgcc.a(_udivdi3.o)
 .gnu.attributes
                0x000006c0       0x10 /home/ishyro/.arduino15/packages/chipKIT/tools/pic32-tools/1.43-pic32gcc/bin/bin/../../lib/gcc/pic32mx/4.8.3/size/libgcc.a(_umoddi3.o)
 *(.gnu.attributes)

.gptab.sdata
 *(.gptab.data)
 *(.gptab.sdata)

.gptab.sbss
 *(.gptab.bss)
 *(.gptab.sbss)

.mdebug.abi32   0xa000078c        0x0
 *(.mdebug.abi32)
 .mdebug.abi32  0xa000078c        0x0 /tmp/ccpHnSIR.o
 .mdebug.abi32  0xa000078c        0x0 /home/ishyro/Documents/Info/M1/S2/OMicroB-next/src/byterun/pic32/Board_Data.o
 .mdebug.abi32  0xa000078c        0x0 /home/ishyro/Documents/Info/M1/S2/OMicroB-next/src/byterun/pic32/cores/core.a(exceptions.c.o)
 .mdebug.abi32  0xa000078c        0x0 /home/ishyro/Documents/Info/M1/S2/OMicroB-next/src/byterun/pic32/cores/core.a(task_manager.c.o)
 .mdebug.abi32  0xa000078c        0x0 /home/ishyro/Documents/Info/M1/S2/OMicroB-next/src/byterun/pic32/cores/core.a(wiring.c.o)
 .mdebug.abi32  0xa000078c        0x0 /home/ishyro/Documents/Info/M1/S2/OMicroB-next/src/byterun/pic32/cores/core.a(wiring_analog.c.o)
 .mdebug.abi32  0xa000078c        0x0 /home/ishyro/Documents/Info/M1/S2/OMicroB-next/src/byterun/pic32/cores/core.a(wiring_digital.c.o)
 .mdebug.abi32  0xa000078c        0x0 /home/ishyro/Documents/Info/M1/S2/OMicroB-next/src/byterun/pic32/cores/core.a(USB.cpp.o)
 .mdebug.abi32  0xa000078c        0x0 /home/ishyro/Documents/Info/M1/S2/OMicroB-next/src/byterun/pic32/cores/core.a(USB_CDCACM.cpp.o)
 .mdebug.abi32  0xa000078c        0x0 /home/ishyro/Documents/Info/M1/S2/OMicroB-next/src/byterun/pic32/cores/core.a(USB_FS.cpp.o)
 .mdebug.abi32  0xa000078c        0x0 /home/ishyro/Documents/Info/M1/S2/OMicroB-next/src/byterun/pic32/cores/core.a(WSystem.c.o)
 .mdebug.abi32  0xa000078c        0x0 /home/ishyro/Documents/Info/M1/S2/OMicroB-next/src/byterun/pic32/cores/core.a(pins_arduino.c.o)
 .mdebug.abi32  0xa000078c        0x0 /home/ishyro/Documents/Info/M1/S2/OMicroB-next/src/byterun/pic32/cores/core.a(Print.cpp.o)
 .mdebug.abi32  0xa000078c        0x0 /home/ishyro/Documents/Info/M1/S2/OMicroB-next/src/byterun/pic32/cores/core.a(doprnt.cpp.o)
 .mdebug.abi32  0xa000078c        0x0 /home/ishyro/.arduino15/packages/chipKIT/tools/pic32-tools/1.43-pic32gcc/bin/bin/../../lib/gcc/pic32mx/4.8.3/../../../../pic32mx/lib/size/libsupc++.a(class_type_info.o)
 .mdebug.abi32  0xa000078c        0x0 /home/ishyro/.arduino15/packages/chipKIT/tools/pic32-tools/1.43-pic32gcc/bin/bin/../../lib/gcc/pic32mx/4.8.3/../../../../pic32mx/lib/size/libsupc++.a(del_op.o)
 .mdebug.abi32  0xa000078c        0x0 /home/ishyro/.arduino15/packages/chipKIT/tools/pic32-tools/1.43-pic32gcc/bin/bin/../../lib/gcc/pic32mx/4.8.3/../../../../pic32mx/lib/size/libsupc++.a(si_class_type_info.o)
 .mdebug.abi32  0xa000078c        0x0 /home/ishyro/.arduino15/packages/chipKIT/tools/pic32-tools/1.43-pic32gcc/bin/bin/../../lib/gcc/pic32mx/4.8.3/../../../../pic32mx/lib/size/libsupc++.a(tinfo.o)
 .mdebug.abi32  0xa000078c        0x0 /home/ishyro/.arduino15/packages/chipKIT/tools/pic32-tools/1.43-pic32gcc/bin/bin/../../lib/gcc/pic32mx/4.8.3/../../../../pic32mx/lib/size/libsupc++.a(vmi_class_type_info.o)
 .mdebug.abi32  0xa000078c        0x0 /home/ishyro/.arduino15/packages/chipKIT/tools/pic32-tools/1.43-pic32gcc/bin/bin/../../lib/gcc/pic32mx/4.8.3/../../../../pic32mx/lib/size/libsupc++.a(pure.o)
 .mdebug.abi32  0xa000078c        0x0 /home/ishyro/.arduino15/packages/chipKIT/tools/pic32-tools/1.43-pic32gcc/bin/bin/../../lib/gcc/pic32mx/4.8.3/../../../../pic32mx/lib/size/libsupc++.a(eh_terminate.o)
 .mdebug.abi32  0xa000078c        0x0 /home/ishyro/.arduino15/packages/chipKIT/tools/pic32-tools/1.43-pic32gcc/bin/bin/../../lib/gcc/pic32mx/4.8.3/../../../../pic32mx/lib/size/libsupc++.a(eh_unex_handler.o)
 .mdebug.abi32  0xa000078c        0x0 /home/ishyro/.arduino15/packages/chipKIT/tools/pic32-tools/1.43-pic32gcc/bin/bin/../../lib/gcc/pic32mx/4.8.3/../../../../pic32mx/lib/size/libsupc++.a(eh_term_handler.o)
 .mdebug.abi32  0xa000078c        0x0 /home/ishyro/.arduino15/packages/chipKIT/tools/pic32-tools/1.43-pic32gcc/bin/bin/../../lib/gcc/pic32mx/4.8.3/../../../../pic32mx/lib/size/libm.a(lib_a-s_cos.o)
 .mdebug.abi32  0xa000078c        0x0 /home/ishyro/.arduino15/packages/chipKIT/tools/pic32-tools/1.43-pic32gcc/bin/bin/../../lib/gcc/pic32mx/4.8.3/../../../../pic32mx/lib/size/libm.a(lib_a-s_fpclassify.o)
 .mdebug.abi32  0xa000078c        0x0 /home/ishyro/.arduino15/packages/chipKIT/tools/pic32-tools/1.43-pic32gcc/bin/bin/../../lib/gcc/pic32mx/4.8.3/../../../../pic32mx/lib/size/libm.a(lib_a-s_modf.o)
 .mdebug.abi32  0xa000078c        0x0 /home/ishyro/.arduino15/packages/chipKIT/tools/pic32-tools/1.43-pic32gcc/bin/bin/../../lib/gcc/pic32mx/4.8.3/../../../../pic32mx/lib/size/libm.a(lib_a-s_sin.o)
 .mdebug.abi32  0xa000078c        0x0 /home/ishyro/.arduino15/packages/chipKIT/tools/pic32-tools/1.43-pic32gcc/bin/bin/../../lib/gcc/pic32mx/4.8.3/../../../../pic32mx/lib/size/libm.a(lib_a-w_atan2.o)
 .mdebug.abi32  0xa000078c        0x0 /home/ishyro/.arduino15/packages/chipKIT/tools/pic32-tools/1.43-pic32gcc/bin/bin/../../lib/gcc/pic32mx/4.8.3/../../../../pic32mx/lib/size/libm.a(lib_a-w_fmod.o)
 .mdebug.abi32  0xa000078c        0x0 /home/ishyro/.arduino15/packages/chipKIT/tools/pic32-tools/1.43-pic32gcc/bin/bin/../../lib/gcc/pic32mx/4.8.3/../../../../pic32mx/lib/size/libm.a(lib_a-w_sqrt.o)
 .mdebug.abi32  0xa000078c        0x0 /home/ishyro/.arduino15/packages/chipKIT/tools/pic32-tools/1.43-pic32gcc/bin/bin/../../lib/gcc/pic32mx/4.8.3/../../../../pic32mx/lib/size/libm.a(lib_a-e_atan2.o)
 .mdebug.abi32  0xa000078c        0x0 /home/ishyro/.arduino15/packages/chipKIT/tools/pic32-tools/1.43-pic32gcc/bin/bin/../../lib/gcc/pic32mx/4.8.3/../../../../pic32mx/lib/size/libm.a(lib_a-e_fmod.o)
 .mdebug.abi32  0xa000078c        0x0 /home/ishyro/.arduino15/packages/chipKIT/tools/pic32-tools/1.43-pic32gcc/bin/bin/../../lib/gcc/pic32mx/4.8.3/../../../../pic32mx/lib/size/libm.a(lib_a-e_rem_pio2.o)
 .mdebug.abi32  0xa000078c        0x0 /home/ishyro/.arduino15/packages/chipKIT/tools/pic32-tools/1.43-pic32gcc/bin/bin/../../lib/gcc/pic32mx/4.8.3/../../../../pic32mx/lib/size/libm.a(lib_a-e_sqrt.o)
 .mdebug.abi32  0xa000078c        0x0 /home/ishyro/.arduino15/packages/chipKIT/tools/pic32-tools/1.43-pic32gcc/bin/bin/../../lib/gcc/pic32mx/4.8.3/../../../../pic32mx/lib/size/libm.a(lib_a-k_cos.o)
 .mdebug.abi32  0xa000078c        0x0 /home/ishyro/.arduino15/packages/chipKIT/tools/pic32-tools/1.43-pic32gcc/bin/bin/../../lib/gcc/pic32mx/4.8.3/../../../../pic32mx/lib/size/libm.a(lib_a-k_rem_pio2.o)
 .mdebug.abi32  0xa000078c        0x0 /home/ishyro/.arduino15/packages/chipKIT/tools/pic32-tools/1.43-pic32gcc/bin/bin/../../lib/gcc/pic32mx/4.8.3/../../../../pic32mx/lib/size/libm.a(lib_a-k_sin.o)
 .mdebug.abi32  0xa000078c        0x0 /home/ishyro/.arduino15/packages/chipKIT/tools/pic32-tools/1.43-pic32gcc/bin/bin/../../lib/gcc/pic32mx/4.8.3/../../../../pic32mx/lib/size/libm.a(lib_a-s_atan.o)
 .mdebug.abi32  0xa000078c        0x0 /home/ishyro/.arduino15/packages/chipKIT/tools/pic32-tools/1.43-pic32gcc/bin/bin/../../lib/gcc/pic32mx/4.8.3/../../../../pic32mx/lib/size/libm.a(lib_a-s_fabs.o)
 .mdebug.abi32  0xa000078c        0x0 /home/ishyro/.arduino15/packages/chipKIT/tools/pic32-tools/1.43-pic32gcc/bin/bin/../../lib/gcc/pic32mx/4.8.3/../../../../pic32mx/lib/size/libm.a(lib_a-s_floor.o)
 .mdebug.abi32  0xa000078c        0x0 /home/ishyro/.arduino15/packages/chipKIT/tools/pic32-tools/1.43-pic32gcc/bin/bin/../../lib/gcc/pic32mx/4.8.3/../../../../pic32mx/lib/size/libm.a(lib_a-s_lib_ver.o)
 .mdebug.abi32  0xa000078c        0x0 /home/ishyro/.arduino15/packages/chipKIT/tools/pic32-tools/1.43-pic32gcc/bin/bin/../../lib/gcc/pic32mx/4.8.3/../../../../pic32mx/lib/size/libm.a(lib_a-s_matherr.o)
 .mdebug.abi32  0xa000078c        0x0 /home/ishyro/.arduino15/packages/chipKIT/tools/pic32-tools/1.43-pic32gcc/bin/bin/../../lib/gcc/pic32mx/4.8.3/../../../../pic32mx/lib/size/libm.a(lib_a-s_scalbn.o)
 .mdebug.abi32  0xa000078c        0x0 /home/ishyro/.arduino15/packages/chipKIT/tools/pic32-tools/1.43-pic32gcc/bin/bin/../../lib/gcc/pic32mx/4.8.3/../../../../pic32mx/lib/size/libm.a(lib_a-s_copysign.o)
 .mdebug.abi32  0xa000078c        0x0 /home/ishyro/.arduino15/packages/chipKIT/tools/pic32-tools/1.43-pic32gcc/bin/bin/../../lib/gcc/pic32mx/4.8.3/size/crtbegin.o
 .mdebug.abi32  0xa000078c        0x0 /home/ishyro/.arduino15/packages/chipKIT/tools/pic32-tools/1.43-pic32gcc/bin/bin/../../lib/gcc/pic32mx/4.8.3/size/crtend.o
 .mdebug.abi32  0xa000078c        0x0 /home/ishyro/.arduino15/packages/chipKIT/tools/pic32-tools/1.43-pic32gcc/bin/bin/../../lib/gcc/pic32mx/4.8.3/size/libgcc.a(_lshrdi3.o)
 .mdebug.abi32  0xa000078c        0x0 /home/ishyro/.arduino15/packages/chipKIT/tools/pic32-tools/1.43-pic32gcc/bin/bin/../../lib/gcc/pic32mx/4.8.3/size/libgcc.a(_ashldi3.o)
 .mdebug.abi32  0xa000078c        0x0 /home/ishyro/.arduino15/packages/chipKIT/tools/pic32-tools/1.43-pic32gcc/bin/bin/../../lib/gcc/pic32mx/4.8.3/size/libgcc.a(_ashrdi3.o)
 .mdebug.abi32  0xa000078c        0x0 /home/ishyro/.arduino15/packages/chipKIT/tools/pic32-tools/1.43-pic32gcc/bin/bin/../../lib/gcc/pic32mx/4.8.3/size/libgcc.a(_divdi3.o)
 .mdebug.abi32  0xa000078c        0x0 /home/ishyro/.arduino15/packages/chipKIT/tools/pic32-tools/1.43-pic32gcc/bin/bin/../../lib/gcc/pic32mx/4.8.3/size/libgcc.a(_moddi3.o)
 .mdebug.abi32  0xa000078c        0x0 /home/ishyro/.arduino15/packages/chipKIT/tools/pic32-tools/1.43-pic32gcc/bin/bin/../../lib/gcc/pic32mx/4.8.3/size/libgcc.a(addsf3.o)
 .mdebug.abi32  0xa000078c        0x0 /home/ishyro/.arduino15/packages/chipKIT/tools/pic32-tools/1.43-pic32gcc/bin/bin/../../lib/gcc/pic32mx/4.8.3/size/libgcc.a(divsf3.o)
 .mdebug.abi32  0xa000078c        0x0 /home/ishyro/.arduino15/packages/chipKIT/tools/pic32-tools/1.43-pic32gcc/bin/bin/../../lib/gcc/pic32mx/4.8.3/size/libgcc.a(eqsf2.o)
 .mdebug.abi32  0xa000078c        0x0 /home/ishyro/.arduino15/packages/chipKIT/tools/pic32-tools/1.43-pic32gcc/bin/bin/../../lib/gcc/pic32mx/4.8.3/size/libgcc.a(gesf2.o)
 .mdebug.abi32  0xa000078c        0x0 /home/ishyro/.arduino15/packages/chipKIT/tools/pic32-tools/1.43-pic32gcc/bin/bin/../../lib/gcc/pic32mx/4.8.3/size/libgcc.a(lesf2.o)
 .mdebug.abi32  0xa000078c        0x0 /home/ishyro/.arduino15/packages/chipKIT/tools/pic32-tools/1.43-pic32gcc/bin/bin/../../lib/gcc/pic32mx/4.8.3/size/libgcc.a(mulsf3.o)
 .mdebug.abi32  0xa000078c        0x0 /home/ishyro/.arduino15/packages/chipKIT/tools/pic32-tools/1.43-pic32gcc/bin/bin/../../lib/gcc/pic32mx/4.8.3/size/libgcc.a(subsf3.o)
 .mdebug.abi32  0xa000078c        0x0 /home/ishyro/.arduino15/packages/chipKIT/tools/pic32-tools/1.43-pic32gcc/bin/bin/../../lib/gcc/pic32mx/4.8.3/size/libgcc.a(fixsfsi.o)
 .mdebug.abi32  0xa000078c        0x0 /home/ishyro/.arduino15/packages/chipKIT/tools/pic32-tools/1.43-pic32gcc/bin/bin/../../lib/gcc/pic32mx/4.8.3/size/libgcc.a(floatsisf.o)
 .mdebug.abi32  0xa000078c        0x0 /home/ishyro/.arduino15/packages/chipKIT/tools/pic32-tools/1.43-pic32gcc/bin/bin/../../lib/gcc/pic32mx/4.8.3/size/libgcc.a(fixsfdi.o)
 .mdebug.abi32  0xa000078c        0x0 /home/ishyro/.arduino15/packages/chipKIT/tools/pic32-tools/1.43-pic32gcc/bin/bin/../../lib/gcc/pic32mx/4.8.3/size/libgcc.a(floatdisf.o)
 .mdebug.abi32  0xa000078c        0x0 /home/ishyro/.arduino15/packages/chipKIT/tools/pic32-tools/1.43-pic32gcc/bin/bin/../../lib/gcc/pic32mx/4.8.3/size/libgcc.a(adddf3.o)
 .mdebug.abi32  0xa000078c        0x0 /home/ishyro/.arduino15/packages/chipKIT/tools/pic32-tools/1.43-pic32gcc/bin/bin/../../lib/gcc/pic32mx/4.8.3/size/libgcc.a(divdf3.o)
 .mdebug.abi32  0xa000078c        0x0 /home/ishyro/.arduino15/packages/chipKIT/tools/pic32-tools/1.43-pic32gcc/bin/bin/../../lib/gcc/pic32mx/4.8.3/size/libgcc.a(eqdf2.o)
 .mdebug.abi32  0xa000078c        0x0 /home/ishyro/.arduino15/packages/chipKIT/tools/pic32-tools/1.43-pic32gcc/bin/bin/../../lib/gcc/pic32mx/4.8.3/size/libgcc.a(gedf2.o)
 .mdebug.abi32  0xa000078c        0x0 /home/ishyro/.arduino15/packages/chipKIT/tools/pic32-tools/1.43-pic32gcc/bin/bin/../../lib/gcc/pic32mx/4.8.3/size/libgcc.a(ledf2.o)
 .mdebug.abi32  0xa000078c        0x0 /home/ishyro/.arduino15/packages/chipKIT/tools/pic32-tools/1.43-pic32gcc/bin/bin/../../lib/gcc/pic32mx/4.8.3/size/libgcc.a(muldf3.o)
 .mdebug.abi32  0xa000078c        0x0 /home/ishyro/.arduino15/packages/chipKIT/tools/pic32-tools/1.43-pic32gcc/bin/bin/../../lib/gcc/pic32mx/4.8.3/size/libgcc.a(subdf3.o)
 .mdebug.abi32  0xa000078c        0x0 /home/ishyro/.arduino15/packages/chipKIT/tools/pic32-tools/1.43-pic32gcc/bin/bin/../../lib/gcc/pic32mx/4.8.3/size/libgcc.a(fixdfsi.o)
 .mdebug.abi32  0xa000078c        0x0 /home/ishyro/.arduino15/packages/chipKIT/tools/pic32-tools/1.43-pic32gcc/bin/bin/../../lib/gcc/pic32mx/4.8.3/size/libgcc.a(fixunsdfsi.o)
 .mdebug.abi32  0xa000078c        0x0 /home/ishyro/.arduino15/packages/chipKIT/tools/pic32-tools/1.43-pic32gcc/bin/bin/../../lib/gcc/pic32mx/4.8.3/size/libgcc.a(floatsidf.o)
 .mdebug.abi32  0xa000078c        0x0 /home/ishyro/.arduino15/packages/chipKIT/tools/pic32-tools/1.43-pic32gcc/bin/bin/../../lib/gcc/pic32mx/4.8.3/size/libgcc.a(floatunsidf.o)
 .mdebug.abi32  0xa000078c        0x0 /home/ishyro/.arduino15/packages/chipKIT/tools/pic32-tools/1.43-pic32gcc/bin/bin/../../lib/gcc/pic32mx/4.8.3/size/libgcc.a(extendsfdf2.o)
 .mdebug.abi32  0xa000078c        0x0 /home/ishyro/.arduino15/packages/chipKIT/tools/pic32-tools/1.43-pic32gcc/bin/bin/../../lib/gcc/pic32mx/4.8.3/size/libgcc.a(truncdfsf2.o)
 .mdebug.abi32  0xa000078c        0x0 /home/ishyro/.arduino15/packages/chipKIT/tools/pic32-tools/1.43-pic32gcc/bin/bin/../../lib/gcc/pic32mx/4.8.3/../../../../pic32mx/lib/size/libc.a(lib_a-abort.o)
 .mdebug.abi32  0xa000078c        0x0 /home/ishyro/.arduino15/packages/chipKIT/tools/pic32-tools/1.43-pic32gcc/bin/bin/../../lib/gcc/pic32mx/4.8.3/../../../../pic32mx/lib/size/libc.a(lib_a-errno.o)
 .mdebug.abi32  0xa000078c        0x0 /home/ishyro/.arduino15/packages/chipKIT/tools/pic32-tools/1.43-pic32gcc/bin/bin/../../lib/gcc/pic32mx/4.8.3/../../../../pic32mx/lib/size/libc.a(lib_a-impure.o)
 .mdebug.abi32  0xa000078c        0x0 /home/ishyro/.arduino15/packages/chipKIT/tools/pic32-tools/1.43-pic32gcc/bin/bin/../../lib/gcc/pic32mx/4.8.3/../../../../pic32mx/lib/size/libc.a(lib_a-malloc.o)
 .mdebug.abi32  0xa000078c        0x0 /home/ishyro/.arduino15/packages/chipKIT/tools/pic32-tools/1.43-pic32gcc/bin/bin/../../lib/gcc/pic32mx/4.8.3/../../../../pic32mx/lib/size/libc.a(lib_a-mallocr.o)
 .mdebug.abi32  0xa000078c        0x0 /home/ishyro/.arduino15/packages/chipKIT/tools/pic32-tools/1.43-pic32gcc/bin/bin/../../lib/gcc/pic32mx/4.8.3/../../../../pic32mx/lib/size/libc.a(lib_a-memcpy.o)
 .mdebug.abi32  0xa000078c        0x0 /home/ishyro/.arduino15/packages/chipKIT/tools/pic32-tools/1.43-pic32gcc/bin/bin/../../lib/gcc/pic32mx/4.8.3/../../../../pic32mx/lib/size/libc.a(lib_a-memmove.o)
 .mdebug.abi32  0xa000078c        0x0 /home/ishyro/.arduino15/packages/chipKIT/tools/pic32-tools/1.43-pic32gcc/bin/bin/../../lib/gcc/pic32mx/4.8.3/../../../../pic32mx/lib/size/libc.a(lib_a-mlock.o)
 .mdebug.abi32  0xa000078c        0x0 /home/ishyro/.arduino15/packages/chipKIT/tools/pic32-tools/1.43-pic32gcc/bin/bin/../../lib/gcc/pic32mx/4.8.3/../../../../pic32mx/lib/size/libc.a(lib_a-sbrkr.o)
 .mdebug.abi32  0xa000078c        0x0 /home/ishyro/.arduino15/packages/chipKIT/tools/pic32-tools/1.43-pic32gcc/bin/bin/../../lib/gcc/pic32mx/4.8.3/../../../../pic32mx/lib/size/libc.a(lib_a-signal.o)
 .mdebug.abi32  0xa000078c        0x0 /home/ishyro/.arduino15/packages/chipKIT/tools/pic32-tools/1.43-pic32gcc/bin/bin/../../lib/gcc/pic32mx/4.8.3/../../../../pic32mx/lib/size/libc.a(lib_a-signalr.o)
 .mdebug.abi32  0xa000078c        0x0 /home/ishyro/.arduino15/packages/chipKIT/tools/pic32-tools/1.43-pic32gcc/bin/bin/../../lib/gcc/pic32mx/4.8.3/../../../../pic32mx/lib/size/libc.a(lib_a-snprintf.o)
 .mdebug.abi32  0xa000078c        0x0 /home/ishyro/.arduino15/packages/chipKIT/tools/pic32-tools/1.43-pic32gcc/bin/bin/../../lib/gcc/pic32mx/4.8.3/../../../../pic32mx/lib/size/libc.a(lib_a-strcmp.o)
 .mdebug.abi32  0xa000078c        0x0 /home/ishyro/.arduino15/packages/chipKIT/tools/pic32-tools/1.43-pic32gcc/bin/bin/../../lib/gcc/pic32mx/4.8.3/../../../../pic32mx/lib/size/libc.a(lib_a-strlen.o)
 .mdebug.abi32  0xa000078c        0x0 /home/ishyro/.arduino15/packages/chipKIT/tools/pic32-tools/1.43-pic32gcc/bin/bin/../../lib/gcc/pic32mx/4.8.3/../../../../pic32mx/lib/size/libc.a(lib_a-svfprintf.o)
 .mdebug.abi32  0xa000078c        0x0 /home/ishyro/.arduino15/packages/chipKIT/tools/pic32-tools/1.43-pic32gcc/bin/bin/../../lib/gcc/pic32mx/4.8.3/../../../../pic32mx/lib/size/libc.a(lib_a-dtoa.o)
 .mdebug.abi32  0xa000078c        0x0 /home/ishyro/.arduino15/packages/chipKIT/tools/pic32-tools/1.43-pic32gcc/bin/bin/../../lib/gcc/pic32mx/4.8.3/../../../../pic32mx/lib/size/libc.a(lib_a-freer.o)
 .mdebug.abi32  0xa000078c        0x0 /home/ishyro/.arduino15/packages/chipKIT/tools/pic32-tools/1.43-pic32gcc/bin/bin/../../lib/gcc/pic32mx/4.8.3/../../../../pic32mx/lib/size/libc.a(lib_a-locale.o)
 .mdebug.abi32  0xa000078c        0x0 /home/ishyro/.arduino15/packages/chipKIT/tools/pic32-tools/1.43-pic32gcc/bin/bin/../../lib/gcc/pic32mx/4.8.3/../../../../pic32mx/lib/size/libc.a(lib_a-memchr.o)
 .mdebug.abi32  0xa000078c        0x0 /home/ishyro/.arduino15/packages/chipKIT/tools/pic32-tools/1.43-pic32gcc/bin/bin/../../lib/gcc/pic32mx/4.8.3/../../../../pic32mx/lib/size/libc.a(lib_a-mprec.o)
 .mdebug.abi32  0xa000078c        0x0 /home/ishyro/.arduino15/packages/chipKIT/tools/pic32-tools/1.43-pic32gcc/bin/bin/../../lib/gcc/pic32mx/4.8.3/../../../../pic32mx/lib/size/libc.a(lib_a-reent.o)
 .mdebug.abi32  0xa000078c        0x0 /home/ishyro/.arduino15/packages/chipKIT/tools/pic32-tools/1.43-pic32gcc/bin/bin/../../lib/gcc/pic32mx/4.8.3/../../../../pic32mx/lib/size/libc.a(lib_a-svfiprintf.o)
 .mdebug.abi32  0xa000078c        0x0 /home/ishyro/.arduino15/packages/chipKIT/tools/pic32-tools/1.43-pic32gcc/bin/bin/../../lib/gcc/pic32mx/4.8.3/../../../../pic32mx/lib/size/libc.a(lib_a-callocr.o)
 .mdebug.abi32  0xa000078c        0x0 /home/ishyro/.arduino15/packages/chipKIT/tools/pic32-tools/1.43-pic32gcc/bin/bin/../../lib/gcc/pic32mx/4.8.3/../../../../pic32mx/lib/size/libc.a(lib_a-memset.o)
 .mdebug.abi32  0xa000078c        0x0 /home/ishyro/.arduino15/packages/chipKIT/tools/pic32-tools/1.43-pic32gcc/bin/bin/../../lib/gcc/pic32mx/4.8.3/../../../../pic32mx/lib/size/libc.a(lib_a-reallocr.o)
 .mdebug.abi32  0xa000078c        0x0 /home/ishyro/.arduino15/packages/chipKIT/tools/pic32-tools/1.43-pic32gcc/bin/bin/../../lib/gcc/pic32mx/4.8.3/../../../../pic32mx/lib/size/libpic32.a(sbrk.o)
 .mdebug.abi32  0xa000078c        0x0 /home/ishyro/.arduino15/packages/chipKIT/tools/pic32-tools/1.43-pic32gcc/bin/bin/../../lib/gcc/pic32mx/4.8.3/../../../../pic32mx/lib/size/libpic32.a(default-bootstrap-exception-handler.o)
 .mdebug.abi32  0xa000078c        0x0 /home/ishyro/.arduino15/packages/chipKIT/tools/pic32-tools/1.43-pic32gcc/bin/bin/../../lib/gcc/pic32mx/4.8.3/../../../../pic32mx/lib/size/libpic32.a(default-on-reset.o)
 .mdebug.abi32  0xa000078c        0x0 /home/ishyro/.arduino15/packages/chipKIT/tools/pic32-tools/1.43-pic32gcc/bin/bin/../../lib/gcc/pic32mx/4.8.3/../../../../pic32mx/lib/size/libpic32.a(default-on-bootstrap.o)
 .mdebug.abi32  0xa000078c        0x0 /home/ishyro/.arduino15/packages/chipKIT/tools/pic32-tools/1.43-pic32gcc/bin/bin/../../lib/gcc/pic32mx/4.8.3/../../../../pic32mx/lib/size/libpic32.a(_exit.o)
 .mdebug.abi32  0xa000078c        0x0 /home/ishyro/.arduino15/packages/chipKIT/tools/pic32-tools/1.43-pic32gcc/bin/bin/../../lib/gcc/pic32mx/4.8.3/../../../../pic32mx/lib/size/libpic32.a(kill.o)
 .mdebug.abi32  0xa000078c        0x0 /home/ishyro/.arduino15/packages/chipKIT/tools/pic32-tools/1.43-pic32gcc/bin/bin/../../lib/gcc/pic32mx/4.8.3/../../../../pic32mx/lib/size/libpic32.a(getpid.o)
 .mdebug.abi32  0xa000078c        0x0 /home/ishyro/.arduino15/packages/chipKIT/tools/pic32-tools/1.43-pic32gcc/bin/bin/../../lib/gcc/pic32mx/4.8.3/size/libgcc.a(_udivdi3.o)
 .mdebug.abi32  0xa000078c        0x0 /home/ishyro/.arduino15/packages/chipKIT/tools/pic32-tools/1.43-pic32gcc/bin/bin/../../lib/gcc/pic32mx/4.8.3/size/libgcc.a(_umoddi3.o)

.mdebug.abiN32
 *(.mdebug.abiN32)

.mdebug.abi64
 *(.mdebug.abi64)

.mdebug.abiO64
 *(.mdebug.abiO64)

.mdebug.eabi32
 *(.mdebug.eabi32)

.mdebug.eabi64
 *(.mdebug.eabi64)
LOAD /home/ishyro/.arduino15/packages/chipKIT/tools/pic32-tools/1.43-pic32gcc/bin/bin/../../lib/gcc/pic32mx/4.8.3/size/libgcc.a
START GROUP
LOAD /home/ishyro/.arduino15/packages/chipKIT/tools/pic32-tools/1.43-pic32gcc/bin/bin/../../lib/gcc/pic32mx/4.8.3/../../../../pic32mx/lib/size/libc.a
LOAD /home/ishyro/.arduino15/packages/chipKIT/tools/pic32-tools/1.43-pic32gcc/bin/bin/../../lib/gcc/pic32mx/4.8.3/../../../../pic32mx/lib/size/libsupc++.a
LOAD /home/ishyro/.arduino15/packages/chipKIT/tools/pic32-tools/1.43-pic32gcc/bin/bin/../../lib/gcc/pic32mx/4.8.3/../../../../pic32mx/lib/size/libpic32.a
LOAD /home/ishyro/.arduino15/packages/chipKIT/tools/pic32-tools/1.43-pic32gcc/bin/bin/../../lib/gcc/pic32mx/4.8.3/size/libgcc.a
LOAD /home/ishyro/.arduino15/packages/chipKIT/tools/pic32-tools/1.43-pic32gcc/bin/bin/../../lib/gcc/pic32mx/4.8.3/../../../../pic32mx/lib/size/libm.a
END GROUP
LOAD /home/ishyro/.arduino15/packages/chipKIT/tools/pic32-tools/1.43-pic32gcc/bin/bin/../../lib/gcc/pic32mx/4.8.3/size/libgcc.a
OUTPUT(led.pic32_elf elf32-tradlittlemips)
LOAD stack
LOAD data_init

.stack          0xa00024f8      0x800
 .stack         0xa00024f8      0x800 stack

.bss            0xa000078c      0x66c
 .bss           0xa000078c      0x66c /tmp/ccpHnSIR.o
                0xa000078c                ocaml_stack
                0xa0000aac                ocaml_ram_heap
                0xa0000dcc                ocaml_ram_global_data
                0xa0000dcc                caml_exception_jmp_buf

.bss.usbDriver.usbDriver
                0xa0000e00      0x600
 .bss.usbDriver.usbDriver
                0xa0000e00      0x600 /home/ishyro/Documents/Info/M1/S2/OMicroB-next/src/byterun/pic32/cores/core.a(USB.cpp.o)
                0xa0000e00                usbDriver

.data.impure_data.impure_data
                0xa0001400      0x418
 .data.impure_data.impure_data
                0xa0001400      0x418 /home/ishyro/.arduino15/packages/chipKIT/tools/pic32-tools/1.43-pic32gcc/bin/bin/../../lib/gcc/pic32mx/4.8.3/../../../../pic32mx/lib/size/libc.a(lib_a-impure.o)

.data.__malloc_av_.__malloc_av_
                0xa0001818      0x408
 .data.__malloc_av_.__malloc_av_
                0xa0001818      0x408 /home/ishyro/.arduino15/packages/chipKIT/tools/pic32-tools/1.43-pic32gcc/bin/bin/../../lib/gcc/pic32mx/4.8.3/../../../../pic32mx/lib/size/libc.a(lib_a-mallocr.o)
                0xa0001818                __malloc_av_

.data.lconv.lconv
                0xa0001c20       0x38
 .data.lconv.lconv
                0xa0001c20       0x38 /home/ishyro/.arduino15/packages/chipKIT/tools/pic32-tools/1.43-pic32gcc/bin/bin/../../lib/gcc/pic32mx/4.8.3/../../../../pic32mx/lib/size/libc.a(lib_a-locale.o)

.bss.__malloc_current_mallinfo.__malloc_current_mallinfo
                0xa0001c58       0x28
 .bss.__malloc_current_mallinfo.__malloc_current_mallinfo
                0xa0001c58       0x28 /home/ishyro/.arduino15/packages/chipKIT/tools/pic32-tools/1.43-pic32gcc/bin/bin/../../lib/gcc/pic32mx/4.8.3/../../../../pic32mx/lib/size/libc.a(lib_a-mallocr.o)
                0xa0001c58                __malloc_current_mallinfo

.bss            0xa0001c80       0x20
 .bss           0xa0001c80       0x20 /home/ishyro/.arduino15/packages/chipKIT/tools/pic32-tools/1.43-pic32gcc/bin/bin/../../lib/gcc/pic32mx/4.8.3/size/crtbegin.o

.bss.mem.1296.mem
                0xa0001ca0       0x18
 .bss.mem.1296.mem
                0xa0001ca0       0x18 /home/ishyro/.arduino15/packages/chipKIT/tools/pic32-tools/1.43-pic32gcc/bin/bin/../../lib/gcc/pic32mx/4.8.3/../../../../pic32mx/lib/size/libpic32.a(sbrk.o)

.libc.data.__fdlib_version
                0xa0000df8        0x4
 .libc.data.__fdlib_version
                0xa0000df8        0x4 /home/ishyro/.arduino15/packages/chipKIT/tools/pic32-tools/1.43-pic32gcc/bin/bin/../../lib/gcc/pic32mx/4.8.3/../../../../pic32mx/lib/size/libm.a(lib_a-s_lib_ver.o)
                0xa0000df8                __fdlib_version

.libc.data._impure_ptr
                0xa0000dfc        0x4
 .libc.data._impure_ptr
                0xa0000dfc        0x4 /home/ishyro/.arduino15/packages/chipKIT/tools/pic32-tools/1.43-pic32gcc/bin/bin/../../lib/gcc/pic32mx/4.8.3/../../../../pic32mx/lib/size/libc.a(lib_a-impure.o)
                0xa0000dfc                _impure_ptr

.data.__malloc_trim_threshold.__malloc_trim_threshold
                0xa0001cb8        0x4
 .data.__malloc_trim_threshold.__malloc_trim_threshold
                0xa0001cb8        0x4 /home/ishyro/.arduino15/packages/chipKIT/tools/pic32-tools/1.43-pic32gcc/bin/bin/../../lib/gcc/pic32mx/4.8.3/../../../../pic32mx/lib/size/libc.a(lib_a-mallocr.o)
                0xa0001cb8                __malloc_trim_threshold

.bss.__malloc_top_pad.__malloc_top_pad
                0xa0001cbc        0x4
 .bss.__malloc_top_pad.__malloc_top_pad
                0xa0001cbc        0x4 /home/ishyro/.arduino15/packages/chipKIT/tools/pic32-tools/1.43-pic32gcc/bin/bin/../../lib/gcc/pic32mx/4.8.3/../../../../pic32mx/lib/size/libc.a(lib_a-mallocr.o)
                0xa0001cbc                __malloc_top_pad

.data.__malloc_sbrk_base.__malloc_sbrk_base
                0xa0001cc0        0x4
 .data.__malloc_sbrk_base.__malloc_sbrk_base
                0xa0001cc0        0x4 /home/ishyro/.arduino15/packages/chipKIT/tools/pic32-tools/1.43-pic32gcc/bin/bin/../../lib/gcc/pic32mx/4.8.3/../../../../pic32mx/lib/size/libc.a(lib_a-mallocr.o)
                0xa0001cc0                __malloc_sbrk_base

.bss.__malloc_max_sbrked_mem.__malloc_max_sbrked_mem
                0xa0001cc4        0x4
 .bss.__malloc_max_sbrked_mem.__malloc_max_sbrked_mem
                0xa0001cc4        0x4 /home/ishyro/.arduino15/packages/chipKIT/tools/pic32-tools/1.43-pic32gcc/bin/bin/../../lib/gcc/pic32mx/4.8.3/../../../../pic32mx/lib/size/libc.a(lib_a-mallocr.o)
                0xa0001cc4                __malloc_max_sbrked_mem

.bss.__malloc_max_total_mem.__malloc_max_total_mem
                0xa0001cc8        0x4
 .bss.__malloc_max_total_mem.__malloc_max_total_mem
                0xa0001cc8        0x4 /home/ishyro/.arduino15/packages/chipKIT/tools/pic32-tools/1.43-pic32gcc/bin/bin/../../lib/gcc/pic32mx/4.8.3/../../../../pic32mx/lib/size/libc.a(lib_a-mallocr.o)
                0xa0001cc8                __malloc_max_total_mem

.bss.errno.errno
                0xa0001ccc        0x4
 .bss.errno.errno
                0xa0001ccc        0x4 /home/ishyro/.arduino15/packages/chipKIT/tools/pic32-tools/1.43-pic32gcc/bin/bin/../../lib/gcc/pic32mx/4.8.3/../../../../pic32mx/lib/size/libc.a(lib_a-reent.o)
                0xa0001ccc                errno

.bss._minbrk._minbrk
                0xa0001cd0        0x4
 .bss._minbrk._minbrk
                0xa0001cd0        0x4 /home/ishyro/.arduino15/packages/chipKIT/tools/pic32-tools/1.43-pic32gcc/bin/bin/../../lib/gcc/pic32mx/4.8.3/../../../../pic32mx/lib/size/libpic32.a(sbrk.o)
                0xa0001cd0                _minbrk

.bss._maxbrk._maxbrk
                0xa0001cd4        0x4
 .bss._maxbrk._maxbrk
                0xa0001cd4        0x4 /home/ishyro/.arduino15/packages/chipKIT/tools/pic32-tools/1.43-pic32gcc/bin/bin/../../lib/gcc/pic32mx/4.8.3/../../../../pic32mx/lib/size/libpic32.a(sbrk.o)
                0xa0001cd4                _maxbrk

.bss.curbrk.curbrk
                0xa0001cd8        0x4
 .bss.curbrk.curbrk
                0xa0001cd8        0x4 /home/ishyro/.arduino15/packages/chipKIT/tools/pic32-tools/1.43-pic32gcc/bin/bin/../../lib/gcc/pic32mx/4.8.3/../../../../pic32mx/lib/size/libpic32.a(sbrk.o)

.tm_clone_table
                0x00000000        0x0
 .tm_clone_table
                0x00000000        0x0 /home/ishyro/.arduino15/packages/chipKIT/tools/pic32-tools/1.43-pic32gcc/bin/bin/../../lib/gcc/pic32mx/4.8.3/size/crtend.o
                0x00000000                __TMC_END__

.tm_clone_table
                0x00000000        0x0
 .tm_clone_table
                0x00000000        0x0 /home/ishyro/.arduino15/packages/chipKIT/tools/pic32-tools/1.43-pic32gcc/bin/bin/../../lib/gcc/pic32mx/4.8.3/size/crtbegin.o

.jcr            0x00000000        0x0
 .jcr           0x00000000        0x0 /home/ishyro/.arduino15/packages/chipKIT/tools/pic32-tools/1.43-pic32gcc/bin/bin/../../lib/gcc/pic32mx/4.8.3/size/crtbegin.o

.eh_frame       0x00000000        0x0
 .eh_frame      0x00000000        0x0 /home/ishyro/.arduino15/packages/chipKIT/tools/pic32-tools/1.43-pic32gcc/bin/bin/../../lib/gcc/pic32mx/4.8.3/size/crtbegin.o

.text           0x9d001670     0x4594
 .text          0x9d001670     0x4594 /tmp/ccpHnSIR.o
                0x9d001670                caml_make_vect(long, long)
                0x9d001750                caml_make_array(long)
                0x9d001758                caml_array_get_addr(long, long)
                0x9d0017f4                caml_array_set_addr(long, long, long)
                0x9d001870                caml_array_unsafe_get(long, long)
                0x9d0018c0                caml_array_unsafe_set(long, long, long)
                0x9d0018ec                caml_array_get(long, long)
                0x9d0018f4                caml_array_set(long, long, long)
                0x9d0018fc                caml_floatarray_set(long, long, long)
                0x9d001904                caml_floatarray_get(long, long)
                0x9d00190c                caml_array_sub(long, long, long)
                0x9d001a2c                caml_array_append(long, long)
                0x9d001c18                caml_array_blit(long, long, long, long, long)
                0x9d002264                caml_equal(long, long)
                0x9d002290                caml_notequal(long, long)
                0x9d0022bc                caml_lessthan(long, long)
                0x9d0022ec                caml_lessequal(long, long)
                0x9d00231c                caml_greaterthan(long, long)
                0x9d002354                caml_greaterequal(long, long)
                0x9d00238c                caml_compare(long, long)
                0x9d0023b0                caml_int_compare(long, long)
                0x9d0023d4                debug_blink_error()
                0x9d0023dc                caml_raise(long)
                0x9d0023f8                caml_raise_out_of_memory()
                0x9d00240c                caml_raise_stack_overflow()
                0x9d002420                caml_raise_division_by_zero()
                0x9d002588                caml_raise_invalid_argument(char const*)
                0x9d0025a0                caml_raise_failure(char const*)
                0x9d0025b8                caml_raise_index_out_of_bounds()
                0x9d0025cc                value_of_float(float)
                0x9d00264c                float_of_value(long)
                0x9d00267c                caml_neq_float(long, long)
                0x9d0026c0                caml_eq_float(long, long)
                0x9d002704                caml_le_float(long, long)
                0x9d00274c                caml_lt_float(long, long)
                0x9d002794                caml_ge_float(long, long)
                0x9d0027dc                caml_gt_float(long, long)
                0x9d002824                caml_float_compare(long, long)
                0x9d00288c                caml_cos_float(long)
                0x9d0028cc                caml_sin_float(long)
                0x9d00290c                caml_abs_float(long)
                0x9d00292c                caml_sqrt_float(long)
                0x9d00296c                caml_atan2_float(long, long)
                0x9d0029e8                caml_neg_float(long)
                0x9d002a0c                caml_add_float(long, long)
                0x9d002a44                caml_mul_float(long, long)
                0x9d002a7c                caml_div_float(long, long)
                0x9d002ab4                caml_sub_float(long, long)
                0x9d002aec                caml_fmod_float(long, long)
                0x9d002b68                caml_float_of_int(long)
                0x9d002b88                caml_int_of_float(long)
                0x9d002dd4                main
                0x9d002e0c                caml_obj_dup(long)
                0x9d002f6c                caml_obj_block(long, long)
                0x9d00305c                caml_alloc_dummy(long)
                0x9d003130                caml_alloc_dummy_function(long, long)
                0x9d003138                caml_update_dummy(long, long)
                0x9d003208                caml_fresh_oo_id(long)
                0x9d003218                caml_set_oo_id(long)
                0x9d003244                string_length(long)
                0x9d0032c4                create_bytes(unsigned long)
                0x9d0033b0                copy_bytes(char const*)
                0x9d003418                caml_create_bytes(long)
                0x9d003420                caml_ml_string_length(long)
                0x9d003444                caml_ml_bytes_length(long)
                0x9d00344c                caml_blit_string(long, long, long, long, long)
                0x9d0034d4                caml_blit_bytes(long, long, long, long, long)
                0x9d0034dc                caml_fill_bytes(long, long, long, long)
                0x9d003520                caml_string_equal(long, long)
                0x9d00362c                string_compare(long, long)
                0x9d003768                caml_string_compare(long, long)
                0x9d00378c                caml_bytes_compare(long, long)
                0x9d003794                caml_bytes_equal(long, long)
                0x9d00379c                caml_string_notequal(long, long)
                0x9d0037cc                caml_string_get(long, long)
                0x9d003840                caml_bytes_get(long, long)
                0x9d003848                caml_bytes_set(long, long, long)
                0x9d00389c                caml_string_of_int(long)
                0x9d0038d0                caml_string_of_float(long)
                0x9d003918                caml_sys_const_big_endian(long)
                0x9d003920                caml_sys_const_word_size(long)
                0x9d003928                caml_sys_const_int_size(long)
                0x9d003930                caml_sys_const_max_wosize(long)
                0x9d00393c                caml_ensure_stack_capacity(long)
                0x9d003944                caml_gc_run(long)
                0x9d003964                caml_gc_collections(long)
                0x9d003974                caml_gc_live_words(long)
                0x9d003998                caml_gc_free_words(long)
                0x9d0039b0                caml_gc_used_stack_size(long)
                0x9d0039cc                caml_gc_available_stack_size(long)
                0x9d003c04                caml_hash(long, long, long, long)
                0x9d003d0c                int32_compare(long, long)
                0x9d003da0                caml_int32_compare(long, long)
                0x9d003dc4                caml_int32_neg(long)
                0x9d003e0c                caml_int32_add(long, long)
                0x9d003e94                caml_int32_sub(long, long)
                0x9d003f1c                caml_int32_mul(long, long)
                0x9d003fa4                caml_int32_div(long, long)
                0x9d00404c                caml_int32_mod(long, long)
                0x9d0040f4                caml_int32_and(long, long)
                0x9d00417c                caml_int32_or(long, long)
                0x9d004204                caml_int32_xor(long, long)
                0x9d00428c                caml_int32_lsl(long, long)
                0x9d0042d8                caml_int32_asr(long, long)
                0x9d004324                caml_int32_lsr(long, long)
                0x9d004370                caml_int32_of_int(long)
                0x9d004378                caml_int32_to_int(long)
                0x9d0043c4                caml_int32_of_float(long)
                0x9d0043ec                caml_int32_to_float(long)
                0x9d00444c                caml_string_of_int32(long)
                0x9d0044b8                caml_int32_of_string(long)
                0x9d0045c8                int64_compare(long, long)
                0x9d0046dc                caml_int64_compare(long, long)
                0x9d004700                caml_int64_neg(long)
                0x9d004784                caml_int64_add(long, long)
                0x9d004860                caml_int64_sub(long, long)
                0x9d00493c                caml_int64_mul(long, long)
                0x9d004a24                caml_int64_div(long, long)
                0x9d004b2c                caml_int64_mod(long, long)
                0x9d004c34                caml_int64_and(long, long)
                0x9d004d08                caml_int64_or(long, long)
                0x9d004ddc                caml_int64_xor(long, long)
                0x9d004eb0                caml_int64_lsl(long, long)
                0x9d004f44                caml_int64_asr(long, long)
                0x9d004fd8                caml_int64_lsr(long, long)
                0x9d00506c                caml_int64_of_int(long)
                0x9d005074                caml_int64_to_int(long)
                0x9d0050c0                caml_int64_of_float(long)
                0x9d0050ec                caml_int64_to_float(long)
                0x9d005170                caml_string_of_int64(long)
                0x9d00520c                caml_int64_of_string(long)
                0x9d005220                gc_init()
                0x9d00548c                gc()
                0x9d0057c4                caml_pic32_init(long)
                0x9d0057e4                caml_pic32_schedule_task(long)
                0x9d005804                caml_pic32_pin_mode(long, long)
                0x9d005828                caml_pic32_digital_write(long, long)
                0x9d00584c                caml_pic32_digital_read(long)
                0x9d005870                caml_pic32_analog_write(long, long)
                0x9d005894                caml_pic32_analog_read(long)
                0x9d0058b8                caml_pic32_delay(long)
                0x9d0058d8                caml_random_init(long)
                0x9d0058f8                caml_random_bits(long)
                0x9d00591c                caml_random_bool(long)
                0x9d00593c                caml_unsafe_string_of_bytes(long)
                0x9d005944                caml_unsafe_bytes_of_string(long)
                0x9d00594c                caml_debug_trace(long)
                0x9d005954                caml_debug_tracei(long)
                0x9d00597c                random_init(long)
                0x9d0059a8                random_bits(unsigned long)
                0x9d0059ec                random_bool()
                0x9d005a0c                debug_trace_open()
                0x9d005a14                debug_trace_char(char)
                0x9d005a1c                debug_trace_close()
                0x9d005a24                debug_trace_int(long)
                0x9d005a2c                stdlib_delay(int)
                0x9d005a34                get_pin_addr(unsigned char)
                0x9d005b34                pic32_init()
                0x9d005b3c                pic32_schedule_task()
                0x9d005b44                pic32_pin_mode(unsigned char, unsigned char)
                0x9d005b64                pic32_digital_write(unsigned char, unsigned char)
                0x9d005b84                pic32_digital_read(unsigned char)
                0x9d005bac                pic32_analog_write(unsigned char, unsigned char)
                0x9d005bcc                pic32_analog_read(unsigned char)
                0x9d005bf4                pic32_delay(int)
                0x9d005bfc                pic32_millis()

.text._svfprintf_r
                0x9d005c04     0x1970
 .text._svfprintf_r
                0x9d005c04     0x1970 /home/ishyro/.arduino15/packages/chipKIT/tools/pic32-tools/1.43-pic32gcc/bin/bin/../../lib/gcc/pic32mx/4.8.3/../../../../pic32mx/lib/size/libc.a(lib_a-svfprintf.o)
                0x9d005c04                _svfprintf_r

.text._dtoa_r   0x9d007574     0x1320
 .text._dtoa_r  0x9d007574     0x1320 /home/ishyro/.arduino15/packages/chipKIT/tools/pic32-tools/1.43-pic32gcc/bin/bin/../../lib/gcc/pic32mx/4.8.3/../../../../pic32mx/lib/size/libc.a(lib_a-dtoa.o)
                0x9d007574                _dtoa_r

.text.__kernel_rem_pio2
                0x9d008894      0xc28
 .text.__kernel_rem_pio2
                0x9d008894      0xc28 /home/ishyro/.arduino15/packages/chipKIT/tools/pic32-tools/1.43-pic32gcc/bin/bin/../../lib/gcc/pic32mx/4.8.3/../../../../pic32mx/lib/size/libm.a(lib_a-k_rem_pio2.o)
                0x9d008894                __kernel_rem_pio2

.dinit          0x9d0094bc      0xbb0
 .dinit         0x9d0094bc      0xbb0 data_init

.text           0x9d00a06c      0xfa8
 .text          0x9d00a06c      0x7e0 /home/ishyro/.arduino15/packages/chipKIT/tools/pic32-tools/1.43-pic32gcc/bin/bin/../../lib/gcc/pic32mx/4.8.3/size/libgcc.a(subdf3.o)
                0x9d00a06c                __subdf3
 .text          0x9d00a84c      0x7c8 /home/ishyro/.arduino15/packages/chipKIT/tools/pic32-tools/1.43-pic32gcc/bin/bin/../../lib/gcc/pic32mx/4.8.3/size/libgcc.a(adddf3.o)
                0x9d00a84c                __adddf3

.text.__ieee754_rem_pio2
                0x9d00b014      0x6ec
 .text.__ieee754_rem_pio2
                0x9d00b014      0x6ec /home/ishyro/.arduino15/packages/chipKIT/tools/pic32-tools/1.43-pic32gcc/bin/bin/../../lib/gcc/pic32mx/4.8.3/../../../../pic32mx/lib/size/libm.a(lib_a-e_rem_pio2.o)
                0x9d00b014                __ieee754_rem_pio2

.text           0x9d00b700      0x6e4
 .text          0x9d00b700      0x6e4 /home/ishyro/.arduino15/packages/chipKIT/tools/pic32-tools/1.43-pic32gcc/bin/bin/../../lib/gcc/pic32mx/4.8.3/size/libgcc.a(divdf3.o)
                0x9d00b700                __divdf3

.text._malloc_r
                0x9d00bde4      0x68c
 .text._malloc_r
                0x9d00bde4      0x68c /home/ishyro/.arduino15/packages/chipKIT/tools/pic32-tools/1.43-pic32gcc/bin/bin/../../lib/gcc/pic32mx/4.8.3/../../../../pic32mx/lib/size/libc.a(lib_a-mallocr.o)
                0x9d00bde4                _malloc_r

.text._ZN10USBManager13onSetupPacketEhPhm
                0x9d00c470      0x614
 .text._ZN10USBManager13onSetupPacketEhPhm
                0x9d00c470      0x614 /home/ishyro/Documents/Info/M1/S2/OMicroB-next/src/byterun/pic32/cores/core.a(USB.cpp.o)
                0x9d00c470                USBManager::onSetupPacket(unsigned char, unsigned char*, unsigned long)

.text._ZN5USBFS11addEndpointEhhhmPhS0_
                0x9d00ca84      0x5f4
 .text._ZN5USBFS11addEndpointEhhhmPhS0_
                0x9d00ca84      0x5f4 /home/ishyro/Documents/Info/M1/S2/OMicroB-next/src/byterun/pic32/cores/core.a(USB_FS.cpp.o)
                0x9d00ca84                USBFS::addEndpoint(unsigned char, unsigned char, unsigned char, unsigned long, unsigned char*, unsigned char*)

.text._realloc_r
                0x9d00d078      0x5bc
 .text._realloc_r
                0x9d00d078      0x5bc /home/ishyro/.arduino15/packages/chipKIT/tools/pic32-tools/1.43-pic32gcc/bin/bin/../../lib/gcc/pic32mx/4.8.3/../../../../pic32mx/lib/size/libc.a(lib_a-reallocr.o)
                0x9d00d078                _realloc_r

.text.atan      0x9d00d634      0x58c
 .text.atan     0x9d00d634      0x58c /home/ishyro/.arduino15/packages/chipKIT/tools/pic32-tools/1.43-pic32gcc/bin/bin/../../lib/gcc/pic32mx/4.8.3/../../../../pic32mx/lib/size/libm.a(lib_a-s_atan.o)
                0x9d00d634                atan

.text           0x9d00dbc0      0x930
 .text          0x9d00dbc0      0x49c /home/ishyro/.arduino15/packages/chipKIT/tools/pic32-tools/1.43-pic32gcc/bin/bin/../../lib/gcc/pic32mx/4.8.3/size/libgcc.a(muldf3.o)
                0x9d00dbc0                __muldf3
 .text          0x9d00e05c      0x494 /home/ishyro/.arduino15/packages/chipKIT/tools/pic32-tools/1.43-pic32gcc/bin/bin/../../lib/gcc/pic32mx/4.8.3/size/libgcc.a(_divdi3.o)
                0x9d00e05c                __divdi3

.text._ZNK10__cxxabiv121__vmi_class_type_info12__do_dyncastElNS_17__class_type_info10__sub_kindEPKS1_PKvS4_S6_RNS1_16__dyncast_resultE
                0x9d00e4f0      0x490
 .text._ZNK10__cxxabiv121__vmi_class_type_info12__do_dyncastElNS_17__class_type_info10__sub_kindEPKS1_PKvS4_S6_RNS1_16__dyncast_resultE
                0x9d00e4f0      0x490 /home/ishyro/.arduino15/packages/chipKIT/tools/pic32-tools/1.43-pic32gcc/bin/bin/../../lib/gcc/pic32mx/4.8.3/../../../../pic32mx/lib/size/libsupc++.a(vmi_class_type_info.o)
                0x9d00e4f0                __cxxabiv1::__vmi_class_type_info::__do_dyncast(long, __cxxabiv1::__class_type_info::__sub_kind, __cxxabiv1::__class_type_info const*, void const*, __cxxabiv1::__class_type_info const*, void const*, __cxxabiv1::__class_type_info::__dyncast_result&) const

.text           0x9d00e980      0x8f4
 .text          0x9d00e980      0x484 /home/ishyro/.arduino15/packages/chipKIT/tools/pic32-tools/1.43-pic32gcc/bin/bin/../../lib/gcc/pic32mx/4.8.3/size/libgcc.a(subsf3.o)
                0x9d00e980                __subsf3
 .text          0x9d00ee04      0x470 /home/ishyro/.arduino15/packages/chipKIT/tools/pic32-tools/1.43-pic32gcc/bin/bin/../../lib/gcc/pic32mx/4.8.3/size/libgcc.a(addsf3.o)
                0x9d00ee04                __addsf3

.text           0x9d00f274      0x89c
 .text          0x9d00f274      0x464 /home/ishyro/.arduino15/packages/chipKIT/tools/pic32-tools/1.43-pic32gcc/bin/bin/../../lib/gcc/pic32mx/4.8.3/size/libgcc.a(_moddi3.o)
                0x9d00f274                __moddi3
 .text          0x9d00f6d8      0x438 /home/ishyro/.arduino15/packages/chipKIT/tools/pic32-tools/1.43-pic32gcc/bin/bin/../../lib/gcc/pic32mx/4.8.3/size/libgcc.a(_udivdi3.o)
                0x9d00f6d8                __udivdi3

.text           0x9d00fb10      0x410
 .text          0x9d00fb10      0x410 /home/ishyro/.arduino15/packages/chipKIT/tools/pic32-tools/1.43-pic32gcc/bin/bin/../../lib/gcc/pic32mx/4.8.3/size/libgcc.a(_umoddi3.o)
                0x9d00fb10                __umoddi3

.text._ZN5USBFS15handleInterruptEv
                0x9d00ff20      0x3b0
 .text._ZN5USBFS15handleInterruptEv
                0x9d00ff20      0x3b0 /home/ishyro/Documents/Info/M1/S2/OMicroB-next/src/byterun/pic32/cores/core.a(USB_FS.cpp.o)
                0x9d00ff20                USBFS::handleInterrupt()

.text           0x9d0102d0      0x378
 .text          0x9d0102d0      0x378 /home/ishyro/.arduino15/packages/chipKIT/tools/pic32-tools/1.43-pic32gcc/bin/bin/../../lib/gcc/pic32mx/4.8.3/size/libgcc.a(divsf3.o)
                0x9d0102d0                __divsf3

.text._ZN5USBFS21populateDefaultSerialEPc
                0x9d010648      0x370
 .text._ZN5USBFS21populateDefaultSerialEPc
                0x9d010648      0x370 /home/ishyro/Documents/Info/M1/S2/OMicroB-next/src/byterun/pic32/cores/core.a(USB_FS.cpp.o)
                0x9d010648                USBFS::populateDefaultSerial(char*)

.text.__kernel_cos
                0x9d0109b8      0x354
 .text.__kernel_cos
                0x9d0109b8      0x354 /home/ishyro/.arduino15/packages/chipKIT/tools/pic32-tools/1.43-pic32gcc/bin/bin/../../lib/gcc/pic32mx/4.8.3/../../../../pic32mx/lib/size/libm.a(lib_a-k_cos.o)
                0x9d0109b8                __kernel_cos

.text.__ieee754_fmod
                0x9d010d0c      0x308
 .text.__ieee754_fmod
                0x9d010d0c      0x308 /home/ishyro/.arduino15/packages/chipKIT/tools/pic32-tools/1.43-pic32gcc/bin/bin/../../lib/gcc/pic32mx/4.8.3/../../../../pic32mx/lib/size/libm.a(lib_a-e_fmod.o)
                0x9d010d0c                __ieee754_fmod

.text.__ieee754_atan2
                0x9d011014      0x2ec
 .text.__ieee754_atan2
                0x9d011014      0x2ec /home/ishyro/.arduino15/packages/chipKIT/tools/pic32-tools/1.43-pic32gcc/bin/bin/../../lib/gcc/pic32mx/4.8.3/../../../../pic32mx/lib/size/libm.a(lib_a-e_atan2.o)
                0x9d011014                __ieee754_atan2

.text           0x9d011300      0x2c0
 .text          0x9d011300      0x2c0 /home/ishyro/.arduino15/packages/chipKIT/tools/pic32-tools/1.43-pic32gcc/bin/bin/../../lib/gcc/pic32mx/4.8.3/size/libgcc.a(mulsf3.o)
                0x9d011300                __mulsf3

.text.__kernel_sin
                0x9d0115c0      0x2b8
 .text.__kernel_sin
                0x9d0115c0      0x2b8 /home/ishyro/.arduino15/packages/chipKIT/tools/pic32-tools/1.43-pic32gcc/bin/bin/../../lib/gcc/pic32mx/4.8.3/../../../../pic32mx/lib/size/libm.a(lib_a-k_sin.o)
                0x9d0115c0                __kernel_sin

.text._ZN5USBFS10sendBufferEhPKhm
                0x9d011878      0x28c
 .text._ZN5USBFS10sendBufferEhPKhm
                0x9d011878      0x28c /home/ishyro/Documents/Info/M1/S2/OMicroB-next/src/byterun/pic32/cores/core.a(USB_FS.cpp.o)
                0x9d011878                USBFS::sendBuffer(unsigned char, unsigned char const*, unsigned long)

.text._free_r   0x9d011b04      0x278
 .text._free_r  0x9d011b04      0x278 /home/ishyro/.arduino15/packages/chipKIT/tools/pic32-tools/1.43-pic32gcc/bin/bin/../../lib/gcc/pic32mx/4.8.3/../../../../pic32mx/lib/size/libc.a(lib_a-freer.o)
                0x9d011b04                _free_r

.text.__ieee754_sqrt
                0x9d011d7c      0x260
 .text.__ieee754_sqrt
                0x9d011d7c      0x260 /home/ishyro/.arduino15/packages/chipKIT/tools/pic32-tools/1.43-pic32gcc/bin/bin/../../lib/gcc/pic32mx/4.8.3/../../../../pic32mx/lib/size/libm.a(lib_a-e_sqrt.o)
                0x9d011d7c                __ieee754_sqrt

.text           0x9d011fdc      0x24c
 .text          0x9d011fdc      0x24c /home/ishyro/.arduino15/packages/chipKIT/tools/pic32-tools/1.43-pic32gcc/bin/bin/../../lib/gcc/pic32mx/4.8.3/size/crtbegin.o

.text._ZNK10__cxxabiv121__vmi_class_type_info11__do_upcastEPKNS_17__class_type_infoEPKvRNS1_15__upcast_resultE
                0x9d012228      0x240
 .text._ZNK10__cxxabiv121__vmi_class_type_info11__do_upcastEPKNS_17__class_type_infoEPKvRNS1_15__upcast_resultE
                0x9d012228      0x240 /home/ishyro/.arduino15/packages/chipKIT/tools/pic32-tools/1.43-pic32gcc/bin/bin/../../lib/gcc/pic32mx/4.8.3/../../../../pic32mx/lib/size/libsupc++.a(vmi_class_type_info.o)
                0x9d012228                __cxxabiv1::__vmi_class_type_info::__do_upcast(__cxxabiv1::__class_type_info const*, void const*, __cxxabiv1::__class_type_info::__upcast_result&) const

.text.CoreTimerHandler
                0x9d012468      0x23c
 .text.CoreTimerHandler
                0x9d012468      0x23c /home/ishyro/Documents/Info/M1/S2/OMicroB-next/src/byterun/pic32/cores/core.a(wiring.c.o)
                0x9d012468                CoreTimerHandler

.text._ZN6CDCACM31populateConfigurationDescriptorEPh
                0x9d0126a4      0x224
 .text._ZN6CDCACM31populateConfigurationDescriptorEPh
                0x9d0126a4      0x224 /home/ishyro/Documents/Info/M1/S2/OMicroB-next/src/byterun/pic32/cores/core.a(USB_CDCACM.cpp.o)
                0x9d0126a4                CDCACM::populateConfigurationDescriptor(unsigned char*)

.text.quorem    0x9d0128c8      0x200
 .text.quorem   0x9d0128c8      0x200 /home/ishyro/.arduino15/packages/chipKIT/tools/pic32-tools/1.43-pic32gcc/bin/bin/../../lib/gcc/pic32mx/4.8.3/../../../../pic32mx/lib/size/libc.a(lib_a-dtoa.o)

.text.floor     0x9d012ac8      0x1e8
 .text.floor    0x9d012ac8      0x1e8 /home/ishyro/.arduino15/packages/chipKIT/tools/pic32-tools/1.43-pic32gcc/bin/bin/../../lib/gcc/pic32mx/4.8.3/../../../../pic32mx/lib/size/libm.a(lib_a-s_floor.o)
                0x9d012ac8                floor

.text.__multiply
                0x9d012cb0      0x1e0
 .text.__multiply
                0x9d012cb0      0x1e0 /home/ishyro/.arduino15/packages/chipKIT/tools/pic32-tools/1.43-pic32gcc/bin/bin/../../lib/gcc/pic32mx/4.8.3/../../../../pic32mx/lib/size/libc.a(lib_a-mprec.o)
                0x9d012cb0                __multiply

.text.__ssprint_r
                0x9d012e90      0x1d4
 .text.__ssprint_r
                0x9d012e90      0x1d4 /home/ishyro/.arduino15/packages/chipKIT/tools/pic32-tools/1.43-pic32gcc/bin/bin/../../lib/gcc/pic32mx/4.8.3/../../../../pic32mx/lib/size/libc.a(lib_a-svfiprintf.o)
                0x9d012e90                __ssprint_r

.text._scheduleTask
                0x9d013064      0x1b8
 .text._scheduleTask
                0x9d013064      0x1b8 /home/ishyro/Documents/Info/M1/S2/OMicroB-next/src/byterun/pic32/cores/core.a(task_manager.c.o)
                0x9d013064                _scheduleTask

.text           0x9d01321c      0x1b0
 .text          0x9d01321c      0x1b0 /home/ishyro/.arduino15/packages/chipKIT/tools/pic32-tools/1.43-pic32gcc/bin/bin/../../lib/gcc/pic32mx/4.8.3/size/libgcc.a(truncdfsf2.o)
                0x9d01321c                __truncdfsf2

.rodata         0x9d0133cc      0x1ac
 .rodata        0x9d0133cc      0x1ac /tmp/ccpHnSIR.o
                0x9d013490                ocaml_primitives

.text._ZN6CDCACM11onOutPacketEhhPhm
                0x9d013578      0x194
 .text._ZN6CDCACM11onOutPacketEhhPhm
                0x9d013578      0x194 /home/ishyro/Documents/Info/M1/S2/OMicroB-next/src/byterun/pic32/cores/core.a(USB_CDCACM.cpp.o)
                0x9d013578                CDCACM::onOutPacket(unsigned char, unsigned char, unsigned char*, unsigned long)

.text.analogWrite
                0x9d01370c      0x18c
 .text.analogWrite
                0x9d01370c      0x18c /home/ishyro/Documents/Info/M1/S2/OMicroB-next/src/byterun/pic32/cores/core.a(wiring_analog.c.o)
                0x9d01370c                analogWrite

.text.pinMode   0x9d013898      0x18c
 .text.pinMode  0x9d013898      0x18c /home/ishyro/Documents/Info/M1/S2/OMicroB-next/src/byterun/pic32/cores/core.a(wiring_digital.c.o)
                0x9d013898                pinMode

.text           0x9d013a24      0x184
 .text          0x9d013a24      0x184 /home/ishyro/.arduino15/packages/chipKIT/tools/pic32-tools/1.43-pic32gcc/bin/bin/../../lib/gcc/pic32mx/4.8.3/size/libgcc.a(floatdisf.o)
                0x9d013a24                __floatdisf

.text._ZN6CDCACM5writeEh
                0x9d013ba8      0x180
 .text._ZN6CDCACM5writeEh
                0x9d013ba8      0x180 /home/ishyro/Documents/Info/M1/S2/OMicroB-next/src/byterun/pic32/cores/core.a(USB_CDCACM.cpp.o)
                0x9d013ba8                CDCACM::write(unsigned char)

.text.__mdiff   0x9d013d28      0x164
 .text.__mdiff  0x9d013d28      0x164 /home/ishyro/.arduino15/packages/chipKIT/tools/pic32-tools/1.43-pic32gcc/bin/bin/../../lib/gcc/pic32mx/4.8.3/../../../../pic32mx/lib/size/libc.a(lib_a-mprec.o)
                0x9d013d28                __mdiff

.text._ZN5USBFS9enableUSBEv
                0x9d013e8c      0x160
 .text._ZN5USBFS9enableUSBEv
                0x9d013e8c      0x160 /home/ishyro/Documents/Info/M1/S2/OMicroB-next/src/byterun/pic32/cores/core.a(USB_FS.cpp.o)
                0x9d013e8c                USBFS::enableUSB()

.text.fmod      0x9d013fec      0x160
 .text.fmod     0x9d013fec      0x160 /home/ishyro/.arduino15/packages/chipKIT/tools/pic32-tools/1.43-pic32gcc/bin/bin/../../lib/gcc/pic32mx/4.8.3/../../../../pic32mx/lib/size/libm.a(lib_a-w_fmod.o)
                0x9d013fec                fmod

.text._sbrk_init
                0x9d01414c      0x158
 .text._sbrk_init
                0x9d01414c      0x158 /home/ishyro/.arduino15/packages/chipKIT/tools/pic32-tools/1.43-pic32gcc/bin/bin/../../lib/gcc/pic32mx/4.8.3/../../../../pic32mx/lib/size/libpic32.a(sbrk.o)
                0x9d01414c                _sbrk_init

.text.scalbn    0x9d0142a4      0x154
 .text.scalbn   0x9d0142a4      0x154 /home/ishyro/.arduino15/packages/chipKIT/tools/pic32-tools/1.43-pic32gcc/bin/bin/../../lib/gcc/pic32mx/4.8.3/../../../../pic32mx/lib/size/libm.a(lib_a-s_scalbn.o)
                0x9d0142a4                scalbn

.text.__lshift  0x9d0143f8      0x154
 .text.__lshift
                0x9d0143f8      0x154 /home/ishyro/.arduino15/packages/chipKIT/tools/pic32-tools/1.43-pic32gcc/bin/bin/../../lib/gcc/pic32mx/4.8.3/../../../../pic32mx/lib/size/libc.a(lib_a-mprec.o)
                0x9d0143f8                __lshift

.text._ZN6CDCACM13onSetupPacketEhhPhm
                0x9d01454c      0x138
 .text._ZN6CDCACM13onSetupPacketEhhPhm
                0x9d01454c      0x138 /home/ishyro/Documents/Info/M1/S2/OMicroB-next/src/byterun/pic32/cores/core.a(USB_CDCACM.cpp.o)
                0x9d01454c                CDCACM::onSetupPacket(unsigned char, unsigned char, unsigned char*, unsigned long)

.text.sqrt      0x9d014684      0x138
 .text.sqrt     0x9d014684      0x138 /home/ishyro/.arduino15/packages/chipKIT/tools/pic32-tools/1.43-pic32gcc/bin/bin/../../lib/gcc/pic32mx/4.8.3/../../../../pic32mx/lib/size/libm.a(lib_a-w_sqrt.o)
                0x9d014684                sqrt

.text.__d2b     0x9d0147bc      0x130
 .text.__d2b    0x9d0147bc      0x130 /home/ishyro/.arduino15/packages/chipKIT/tools/pic32-tools/1.43-pic32gcc/bin/bin/../../lib/gcc/pic32mx/4.8.3/../../../../pic32mx/lib/size/libc.a(lib_a-mprec.o)
                0x9d0147bc                __d2b

.text._ZNK10__cxxabiv120__si_class_type_info12__do_dyncastElNS_17__class_type_info10__sub_kindEPKS1_PKvS4_S6_RNS1_16__dyncast_resultE
                0x9d0148ec      0x128
 .text._ZNK10__cxxabiv120__si_class_type_info12__do_dyncastElNS_17__class_type_info10__sub_kindEPKS1_PKvS4_S6_RNS1_16__dyncast_resultE
                0x9d0148ec      0x128 /home/ishyro/.arduino15/packages/chipKIT/tools/pic32-tools/1.43-pic32gcc/bin/bin/../../lib/gcc/pic32mx/4.8.3/../../../../pic32mx/lib/size/libsupc++.a(si_class_type_info.o)
                0x9d0148ec                __cxxabiv1::__si_class_type_info::__do_dyncast(long, __cxxabiv1::__class_type_info::__sub_kind, __cxxabiv1::__class_type_info const*, void const*, __cxxabiv1::__class_type_info const*, void const*, __cxxabiv1::__class_type_info::__dyncast_result&) const

.text           0x9d014a14      0x11c
 .text          0x9d014a14      0x11c /home/ishyro/.arduino15/packages/chipKIT/tools/pic32-tools/1.43-pic32gcc/bin/bin/../../lib/gcc/pic32mx/4.8.3/size/libgcc.a(gedf2.o)
                0x9d014a14                __gtdf2
                0x9d014a14                __gedf2

.text._malloc_trim_r
                0x9d014b30      0x114
 .text._malloc_trim_r
                0x9d014b30      0x114 /home/ishyro/.arduino15/packages/chipKIT/tools/pic32-tools/1.43-pic32gcc/bin/bin/../../lib/gcc/pic32mx/4.8.3/../../../../pic32mx/lib/size/libc.a(lib_a-freer.o)
                0x9d014b30                _malloc_trim_r

.text._ZN6CDCACM10onInPacketEhhPhm
                0x9d014c44      0x110
 .text._ZN6CDCACM10onInPacketEhhPhm
                0x9d014c44      0x110 /home/ishyro/Documents/Info/M1/S2/OMicroB-next/src/byterun/pic32/cores/core.a(USB_CDCACM.cpp.o)
                0x9d014c44                CDCACM::onInPacket(unsigned char, unsigned char, unsigned char*, unsigned long)

.text._ZN5USBFS13enqueuePacketEhPKhm
                0x9d014d54      0x110
 .text._ZN5USBFS13enqueuePacketEhPKhm
                0x9d014d54      0x110 /home/ishyro/Documents/Info/M1/S2/OMicroB-next/src/byterun/pic32/cores/core.a(USB_FS.cpp.o)
                0x9d014d54                USBFS::enqueuePacket(unsigned char, unsigned char const*, unsigned long)

.text           0x9d014e64      0x10c
 .text          0x9d014e64      0x10c /home/ishyro/.arduino15/packages/chipKIT/tools/pic32-tools/1.43-pic32gcc/bin/bin/../../lib/gcc/pic32mx/4.8.3/size/libgcc.a(ledf2.o)
                0x9d014e64                __ltdf2
                0x9d014e64                __ledf2

.text.__multadd
                0x9d014f70      0x10c
 .text.__multadd
                0x9d014f70      0x10c /home/ishyro/.arduino15/packages/chipKIT/tools/pic32-tools/1.43-pic32gcc/bin/bin/../../lib/gcc/pic32mx/4.8.3/../../../../pic32mx/lib/size/libc.a(lib_a-mprec.o)
                0x9d014f70                __multadd

.rodata.two_over_pi.two_over_pi
                0x9d01507c      0x108
 .rodata.two_over_pi.two_over_pi
                0x9d01507c      0x108 /home/ishyro/.arduino15/packages/chipKIT/tools/pic32-tools/1.43-pic32gcc/bin/bin/../../lib/gcc/pic32mx/4.8.3/../../../../pic32mx/lib/size/libm.a(lib_a-e_rem_pio2.o)

.text.__pow5mult
                0x9d015184      0x108
 .text.__pow5mult
                0x9d015184      0x108 /home/ishyro/.arduino15/packages/chipKIT/tools/pic32-tools/1.43-pic32gcc/bin/bin/../../lib/gcc/pic32mx/4.8.3/../../../../pic32mx/lib/size/libc.a(lib_a-mprec.o)
                0x9d015184                __pow5mult

.text           0x9d01528c      0x104
 .text          0x9d01528c      0x104 /home/ishyro/.arduino15/packages/chipKIT/tools/pic32-tools/1.43-pic32gcc/bin/bin/../../lib/gcc/pic32mx/4.8.3/size/libgcc.a(floatsisf.o)
                0x9d01528c                __floatsisf

.text._ZNK10__cxxabiv121__vmi_class_type_info20__do_find_public_srcElPKvPKNS_17__class_type_infoES2_
                0x9d015390      0x100
 .text._ZNK10__cxxabiv121__vmi_class_type_info20__do_find_public_srcElPKvPKNS_17__class_type_infoES2_
                0x9d015390      0x100 /home/ishyro/.arduino15/packages/chipKIT/tools/pic32-tools/1.43-pic32gcc/bin/bin/../../lib/gcc/pic32mx/4.8.3/../../../../pic32mx/lib/size/libsupc++.a(vmi_class_type_info.o)
                0x9d015390                __cxxabiv1::__vmi_class_type_info::__do_find_public_src(long, void const*, __cxxabiv1::__class_type_info const*, void const*) const

.text.configurePWM
                0x9d015490       0xf0
 .text.configurePWM
                0x9d015490       0xf0 /home/ishyro/Documents/Info/M1/S2/OMicroB-next/src/byterun/pic32/cores/core.a(wiring_analog.c.o)

.text._ZN10USBManagerC2EP9USBDriverttPKcS3_S3_
                0x9d015580       0xf0
 .text._ZN10USBManagerC2EP9USBDriverttPKcS3_S3_
                0x9d015580       0xf0 /home/ishyro/Documents/Info/M1/S2/OMicroB-next/src/byterun/pic32/cores/core.a(USB.cpp.o)
                0x9d015580                USBManager::USBManager(USBDriver*, unsigned short, unsigned short, char const*, char const*, char const*)
                0x9d015580                USBManager::USBManager(USBDriver*, unsigned short, unsigned short, char const*, char const*, char const*)

.text._ZN6CDCACM18configureEndpointsEv
                0x9d015670       0xf0
 .text._ZN6CDCACM18configureEndpointsEv
                0x9d015670       0xf0 /home/ishyro/Documents/Info/M1/S2/OMicroB-next/src/byterun/pic32/cores/core.a(USB_CDCACM.cpp.o)
                0x9d015670                CDCACM::configureEndpoints()

.text.analogReadConversionStart
                0x9d015760       0xe8
 .text.analogReadConversionStart
                0x9d015760       0xe8 /home/ishyro/Documents/Info/M1/S2/OMicroB-next/src/byterun/pic32/cores/core.a(wiring_analog.c.o)
                0x9d015760                analogReadConversionStart

.text.digitalWrite
                0x9d015848       0xe8
 .text.digitalWrite
                0x9d015848       0xe8 /home/ishyro/Documents/Info/M1/S2/OMicroB-next/src/byterun/pic32/cores/core.a(wiring_digital.c.o)
                0x9d015848                digitalWrite

.text           0x9d015930       0xe8
 .text          0x9d015930       0xe8 /home/ishyro/.arduino15/packages/chipKIT/tools/pic32-tools/1.43-pic32gcc/bin/bin/../../lib/gcc/pic32mx/4.8.3/size/libgcc.a(gesf2.o)
                0x9d015930                __gtsf2
                0x9d015930                __gesf2

.text.init      0x9d015a18       0xe0
 .text.init     0x9d015a18       0xe0 /home/ishyro/Documents/Info/M1/S2/OMicroB-next/src/byterun/pic32/cores/core.a(wiring.c.o)
                0x9d015a18                init

.text.sin       0x9d015af8       0xd4
 .text.sin      0x9d015af8       0xd4 /home/ishyro/.arduino15/packages/chipKIT/tools/pic32-tools/1.43-pic32gcc/bin/bin/../../lib/gcc/pic32mx/4.8.3/../../../../pic32mx/lib/size/libm.a(lib_a-s_sin.o)
                0x9d015af8                sin

.text           0x9d015bcc       0xd4
 .text          0x9d015bcc       0xd4 /home/ishyro/.arduino15/packages/chipKIT/tools/pic32-tools/1.43-pic32gcc/bin/bin/../../lib/gcc/pic32mx/4.8.3/size/libgcc.a(lesf2.o)
                0x9d015bcc                __lesf2
                0x9d015bcc                __ltsf2

.text._ZN6CDCACM4readEv
                0x9d015ca0       0xc8
 .text._ZN6CDCACM4readEv
                0x9d015ca0       0xc8 /home/ishyro/Documents/Info/M1/S2/OMicroB-next/src/byterun/pic32/cores/core.a(USB_CDCACM.cpp.o)
                0x9d015ca0                CDCACM::read()

.text.cos       0x9d015d68       0xc8
 .text.cos      0x9d015d68       0xc8 /home/ishyro/.arduino15/packages/chipKIT/tools/pic32-tools/1.43-pic32gcc/bin/bin/../../lib/gcc/pic32mx/4.8.3/../../../../pic32mx/lib/size/libm.a(lib_a-s_cos.o)
                0x9d015d68                cos

.rodata.__mprec_tens.__mprec_tens
                0x9d015e30       0xc8
 .rodata.__mprec_tens.__mprec_tens
                0x9d015e30       0xc8 /home/ishyro/.arduino15/packages/chipKIT/tools/pic32-tools/1.43-pic32gcc/bin/bin/../../lib/gcc/pic32mx/4.8.3/../../../../pic32mx/lib/size/libc.a(lib_a-mprec.o)
                0x9d015e30                __mprec_tens

.text.__lo0bits
                0x9d015ef8       0xbc
 .text.__lo0bits
                0x9d015ef8       0xbc /home/ishyro/.arduino15/packages/chipKIT/tools/pic32-tools/1.43-pic32gcc/bin/bin/../../lib/gcc/pic32mx/4.8.3/../../../../pic32mx/lib/size/libc.a(lib_a-mprec.o)
                0x9d015ef8                __lo0bits

.text._sbrk     0x9d015fb4       0xbc
 .text._sbrk    0x9d015fb4       0xbc /home/ishyro/.arduino15/packages/chipKIT/tools/pic32-tools/1.43-pic32gcc/bin/bin/../../lib/gcc/pic32mx/4.8.3/../../../../pic32mx/lib/size/libpic32.a(sbrk.o)
                0x9d015fb4                _sbrk

.text._ZN10USBManager10onInPacketEhPhm
                0x9d016070       0xb8
 .text._ZN10USBManager10onInPacketEhPhm
                0x9d016070       0xb8 /home/ishyro/Documents/Info/M1/S2/OMicroB-next/src/byterun/pic32/cores/core.a(USB.cpp.o)
                0x9d016070                USBManager::onInPacket(unsigned char, unsigned char*, unsigned long)

.text           0x9d016128      0x160
 .text          0x9d016128       0xb0 /home/ishyro/.arduino15/packages/chipKIT/tools/pic32-tools/1.43-pic32gcc/bin/bin/../../lib/gcc/pic32mx/4.8.3/size/libgcc.a(fixsfdi.o)
                0x9d016128                __fixsfdi
 .text          0x9d0161d8       0xb0 /home/ishyro/.arduino15/packages/chipKIT/tools/pic32-tools/1.43-pic32gcc/bin/bin/../../lib/gcc/pic32mx/4.8.3/size/libgcc.a(extendsfdf2.o)
                0x9d0161d8                __extendsfdf2

.text._calloc_r
                0x9d016288       0xb0
 .text._calloc_r
                0x9d016288       0xb0 /home/ishyro/.arduino15/packages/chipKIT/tools/pic32-tools/1.43-pic32gcc/bin/bin/../../lib/gcc/pic32mx/4.8.3/../../../../pic32mx/lib/size/libc.a(lib_a-callocr.o)
                0x9d016288                _calloc_r

.text._Balloc   0x9d016338       0xac
 .text._Balloc  0x9d016338       0xac /home/ishyro/.arduino15/packages/chipKIT/tools/pic32-tools/1.43-pic32gcc/bin/bin/../../lib/gcc/pic32mx/4.8.3/../../../../pic32mx/lib/size/libc.a(lib_a-mprec.o)
                0x9d016338                _Balloc

.text.snprintf  0x9d0163e4       0xa4
 .text.snprintf
                0x9d0163e4       0xa4 /home/ishyro/.arduino15/packages/chipKIT/tools/pic32-tools/1.43-pic32gcc/bin/bin/../../lib/gcc/pic32mx/4.8.3/../../../../pic32mx/lib/size/libc.a(lib_a-snprintf.o)
                0x9d0163e4                snprintf

.text._GLOBAL__sub_I_usbDriver
                0x9d016488       0x98
 .text._GLOBAL__sub_I_usbDriver
                0x9d016488       0x98 /home/ishyro/Documents/Info/M1/S2/OMicroB-next/src/byterun/pic32/cores/core.a(USB.cpp.o)

.text.executeSoftReset
                0x9d016520       0x94
 .text.executeSoftReset
                0x9d016520       0x94 /home/ishyro/Documents/Info/M1/S2/OMicroB-next/src/byterun/pic32/cores/core.a(wiring.c.o)
                0x9d016520                executeSoftReset

.text._ZNK10__cxxabiv117__class_type_info12__do_dyncastElNS0_10__sub_kindEPKS0_PKvS3_S5_RNS0_16__dyncast_resultE
                0x9d0165b4       0x94
 .text._ZNK10__cxxabiv117__class_type_info12__do_dyncastElNS0_10__sub_kindEPKS0_PKvS3_S5_RNS0_16__dyncast_resultE
                0x9d0165b4       0x94 /home/ishyro/.arduino15/packages/chipKIT/tools/pic32-tools/1.43-pic32gcc/bin/bin/../../lib/gcc/pic32mx/4.8.3/../../../../pic32mx/lib/size/libsupc++.a(class_type_info.o)
                0x9d0165b4                __cxxabiv1::__class_type_info::__do_dyncast(long, __cxxabiv1::__class_type_info::__sub_kind, __cxxabiv1::__class_type_info const*, void const*, __cxxabiv1::__class_type_info const*, void const*, __cxxabiv1::__class_type_info::__dyncast_result&) const

.rodata         0x9d016648       0x90
 .rodata        0x9d016648       0x90 /home/ishyro/.arduino15/packages/chipKIT/tools/pic32-tools/1.43-pic32gcc/bin/bin/../../lib/gcc/pic32mx/4.8.3/../../../../pic32mx/lib/size/libm.a(lib_a-s_atan.o)

.text._ZN10USBManager11onOutPacketEhPhm
                0x9d0166d8       0x8c
 .text._ZN10USBManager11onOutPacketEhPhm
                0x9d0166d8       0x8c /home/ishyro/Documents/Info/M1/S2/OMicroB-next/src/byterun/pic32/cores/core.a(USB.cpp.o)
                0x9d0166d8                USBManager::onOutPacket(unsigned char, unsigned char*, unsigned long)

.text._ZN10USBManager9addDeviceEP9USBDevice
                0x9d016764       0x88
 .text._ZN10USBManager9addDeviceEP9USBDevice
                0x9d016764       0x88 /home/ishyro/Documents/Info/M1/S2/OMicroB-next/src/byterun/pic32/cores/core.a(USB.cpp.o)
                0x9d016764                USBManager::addDevice(USBDevice*)

.text.micros    0x9d0167ec       0x80
 .text.micros   0x9d0167ec       0x80 /home/ishyro/Documents/Info/M1/S2/OMicroB-next/src/byterun/pic32/cores/core.a(wiring.c.o)
                0x9d0167ec                micros

.rodata.npio2_hw.npio2_hw
                0x9d01686c       0x80
 .rodata.npio2_hw.npio2_hw
                0x9d01686c       0x80 /home/ishyro/.arduino15/packages/chipKIT/tools/pic32-tools/1.43-pic32gcc/bin/bin/../../lib/gcc/pic32mx/4.8.3/../../../../pic32mx/lib/size/libm.a(lib_a-e_rem_pio2.o)

.text           0x9d0168ec       0x80
 .text          0x9d0168ec       0x80 /home/ishyro/.arduino15/packages/chipKIT/tools/pic32-tools/1.43-pic32gcc/bin/bin/../../lib/gcc/pic32mx/4.8.3/size/libgcc.a(eqdf2.o)
                0x9d0168ec                __eqdf2
                0x9d0168ec                __nedf2

.text._ZNK10__cxxabiv117__class_type_info10__do_catchEPKSt9type_infoPPvj
                0x9d01696c       0x7c
 .text._ZNK10__cxxabiv117__class_type_info10__do_catchEPKSt9type_infoPPvj
                0x9d01696c       0x7c /home/ishyro/.arduino15/packages/chipKIT/tools/pic32-tools/1.43-pic32gcc/bin/bin/../../lib/gcc/pic32mx/4.8.3/../../../../pic32mx/lib/size/libsupc++.a(class_type_info.o)
                0x9d01696c                __cxxabiv1::__class_type_info::__do_catch(std::type_info const*, void**, unsigned int) const

.text._ZNK10__cxxabiv120__si_class_type_info20__do_find_public_srcElPKvPKNS_17__class_type_infoES2_
                0x9d0169e8       0x7c
 .text._ZNK10__cxxabiv120__si_class_type_info20__do_find_public_srcElPKvPKNS_17__class_type_infoES2_
                0x9d0169e8       0x7c /home/ishyro/.arduino15/packages/chipKIT/tools/pic32-tools/1.43-pic32gcc/bin/bin/../../lib/gcc/pic32mx/4.8.3/../../../../pic32mx/lib/size/libsupc++.a(si_class_type_info.o)
                0x9d0169e8                __cxxabiv1::__si_class_type_info::__do_find_public_src(long, void const*, __cxxabiv1::__class_type_info const*, void const*) const

.text._ZN6CDCACM5writeEPKhm
                0x9d016a64       0x78
 .text._ZN6CDCACM5writeEPKhm
                0x9d016a64       0x78 /home/ishyro/Documents/Info/M1/S2/OMicroB-next/src/byterun/pic32/cores/core.a(USB_CDCACM.cpp.o)
                0x9d016a64                CDCACM::write(unsigned char const*, unsigned long)

.text           0x9d016adc       0x78
 .text          0x9d016adc       0x78 /home/ishyro/.arduino15/packages/chipKIT/tools/pic32-tools/1.43-pic32gcc/bin/bin/../../lib/gcc/pic32mx/4.8.3/size/libgcc.a(fixdfsi.o)
                0x9d016adc                __fixdfsi

.text.memmove   0x9d016b54       0x78
 .text.memmove  0x9d016b54       0x78 /home/ishyro/.arduino15/packages/chipKIT/tools/pic32-tools/1.43-pic32gcc/bin/bin/../../lib/gcc/pic32mx/4.8.3/../../../../pic32mx/lib/size/libc.a(lib_a-memmove.o)
                0x9d016b54                memmove

.text.initIntVector
                0x9d016bcc       0x74
 .text.initIntVector
                0x9d016bcc       0x74 /home/ishyro/Documents/Info/M1/S2/OMicroB-next/src/byterun/pic32/cores/core.a(WSystem.c.o)
                0x9d016bcc                initIntVector

.text._ZNK10__cxxabiv120__si_class_type_info11__do_upcastEPKNS_17__class_type_infoEPKvRNS1_15__upcast_resultE
                0x9d016c40       0x74
 .text._ZNK10__cxxabiv120__si_class_type_info11__do_upcastEPKNS_17__class_type_infoEPKvRNS1_15__upcast_resultE
                0x9d016c40       0x74 /home/ishyro/.arduino15/packages/chipKIT/tools/pic32-tools/1.43-pic32gcc/bin/bin/../../lib/gcc/pic32mx/4.8.3/../../../../pic32mx/lib/size/libsupc++.a(si_class_type_info.o)
                0x9d016c40                __cxxabiv1::__si_class_type_info::__do_upcast(__cxxabiv1::__class_type_info const*, void const*, __cxxabiv1::__class_type_info::__upcast_result&) const

.text           0x9d016cb4       0x74
 .text          0x9d016cb4       0x74 /home/ishyro/.arduino15/packages/chipKIT/tools/pic32-tools/1.43-pic32gcc/bin/bin/../../lib/gcc/pic32mx/4.8.3/size/libgcc.a(floatsidf.o)
                0x9d016cb4                __floatsidf

.text.__hi0bits
                0x9d016d28       0x74
 .text.__hi0bits
                0x9d016d28       0x74 /home/ishyro/.arduino15/packages/chipKIT/tools/pic32-tools/1.43-pic32gcc/bin/bin/../../lib/gcc/pic32mx/4.8.3/../../../../pic32mx/lib/size/libc.a(lib_a-mprec.o)
                0x9d016d28                __hi0bits

.text           0x9d016d9c       0x70
 .text          0x9d016d9c       0x70 /home/ishyro/.arduino15/packages/chipKIT/tools/pic32-tools/1.43-pic32gcc/bin/bin/../../lib/gcc/pic32mx/4.8.3/../../../../pic32mx/lib/size/libc.a(lib_a-setjmp.o)
                0x9d016d9c                setjmp
                0x9d016dd0                longjmp

.text.digitalRead
                0x9d016e0c       0x68
 .text.digitalRead
                0x9d016e0c       0x68 /home/ishyro/Documents/Info/M1/S2/OMicroB-next/src/byterun/pic32/cores/core.a(wiring_digital.c.o)
                0x9d016e0c                digitalRead

.text._ZNK10__cxxabiv117__class_type_info11__do_upcastEPKS0_PPv
                0x9d016e74       0x68
 .text._ZNK10__cxxabiv117__class_type_info11__do_upcastEPKS0_PPv
                0x9d016e74       0x68 /home/ishyro/.arduino15/packages/chipKIT/tools/pic32-tools/1.43-pic32gcc/bin/bin/../../lib/gcc/pic32mx/4.8.3/../../../../pic32mx/lib/size/libsupc++.a(class_type_info.o)
                0x9d016e74                __cxxabiv1::__class_type_info::__do_upcast(__cxxabiv1::__class_type_info const*, void**) const

.text           0x9d016edc       0xd0
 .text          0x9d016edc       0x68 /home/ishyro/.arduino15/packages/chipKIT/tools/pic32-tools/1.43-pic32gcc/bin/bin/../../lib/gcc/pic32mx/4.8.3/size/libgcc.a(eqsf2.o)
                0x9d016edc                __nesf2
                0x9d016edc                __eqsf2
 .text          0x9d016f44       0x68 /home/ishyro/.arduino15/packages/chipKIT/tools/pic32-tools/1.43-pic32gcc/bin/bin/../../lib/gcc/pic32mx/4.8.3/size/libgcc.a(fixsfsi.o)
                0x9d016f44                __fixsfsi

.text.__fpclassifyd
                0x9d016fac       0x64
 .text.__fpclassifyd
                0x9d016fac       0x64 /home/ishyro/.arduino15/packages/chipKIT/tools/pic32-tools/1.43-pic32gcc/bin/bin/../../lib/gcc/pic32mx/4.8.3/../../../../pic32mx/lib/size/libm.a(lib_a-s_fpclassify.o)
                0x9d016fac                __fpclassifyd

.text.strcmp    0x9d017010       0x64
 .text.strcmp   0x9d017010       0x64 /home/ishyro/.arduino15/packages/chipKIT/tools/pic32-tools/1.43-pic32gcc/bin/bin/../../lib/gcc/pic32mx/4.8.3/../../../../pic32mx/lib/size/libc.a(lib_a-strcmp.o)
                0x9d017010                strcmp

.text.__mcmp    0x9d017074       0x64
 .text.__mcmp   0x9d017074       0x64 /home/ishyro/.arduino15/packages/chipKIT/tools/pic32-tools/1.43-pic32gcc/bin/bin/../../lib/gcc/pic32mx/4.8.3/../../../../pic32mx/lib/size/libc.a(lib_a-mprec.o)
                0x9d017074                __mcmp

.text._ZN10USBManager5beginEv
                0x9d0170d8       0x60
 .text._ZN10USBManager5beginEv
                0x9d0170d8       0x60 /home/ishyro/Documents/Info/M1/S2/OMicroB-next/src/byterun/pic32/cores/core.a(USB.cpp.o)
                0x9d0170d8                USBManager::begin()

.rodata         0x9d017138       0x60
 .rodata        0x9d017138       0x60 /home/ishyro/.arduino15/packages/chipKIT/tools/pic32-tools/1.43-pic32gcc/bin/bin/../../lib/gcc/pic32mx/4.8.3/../../../../pic32mx/lib/size/libc.a(lib_a-dtoa.o)

.text.turnOffPWM
                0x9d017198       0x5c
 .text.turnOffPWM
                0x9d017198       0x5c /home/ishyro/Documents/Info/M1/S2/OMicroB-next/src/byterun/pic32/cores/core.a(wiring_analog.c.o)
                0x9d017198                turnOffPWM

.text.setIntPriority
                0x9d0171f4       0x5c
 .text.setIntPriority
                0x9d0171f4       0x5c /home/ishyro/Documents/Info/M1/S2/OMicroB-next/src/byterun/pic32/cores/core.a(WSystem.c.o)
                0x9d0171f4                setIntPriority

.text._ZNK10__cxxabiv117__class_type_info11__do_upcastEPKS0_PKvRNS0_15__upcast_resultE
                0x9d017250       0x5c
 .text._ZNK10__cxxabiv117__class_type_info11__do_upcastEPKS0_PKvRNS0_15__upcast_resultE
                0x9d017250       0x5c /home/ishyro/.arduino15/packages/chipKIT/tools/pic32-tools/1.43-pic32gcc/bin/bin/../../lib/gcc/pic32mx/4.8.3/../../../../pic32mx/lib/size/libsupc++.a(class_type_info.o)
                0x9d017250                __cxxabiv1::__class_type_info::__do_upcast(__cxxabiv1::__class_type_info const*, void const*, __cxxabiv1::__class_type_info::__upcast_result&) const

.text.delay     0x9d0172ac       0x58
 .text.delay    0x9d0172ac       0x58 /home/ishyro/Documents/Info/M1/S2/OMicroB-next/src/byterun/pic32/cores/core.a(wiring.c.o)
                0x9d0172ac                delay

.text._ZN6CDCACM10initDeviceEP10USBManager
                0x9d017304       0x54
 .text._ZN6CDCACM10initDeviceEP10USBManager
                0x9d017304       0x54 /home/ishyro/Documents/Info/M1/S2/OMicroB-next/src/byterun/pic32/cores/core.a(USB_CDCACM.cpp.o)
                0x9d017304                CDCACM::initDevice(USBManager*)

.text._ZNKSt9type_info10__do_catchEPKS_PPvj
                0x9d017358       0x50
 .text._ZNKSt9type_info10__do_catchEPKS_PPvj
                0x9d017358       0x50 /home/ishyro/.arduino15/packages/chipKIT/tools/pic32-tools/1.43-pic32gcc/bin/bin/../../lib/gcc/pic32mx/4.8.3/../../../../pic32mx/lib/size/libsupc++.a(tinfo.o)
                0x9d017358                std::type_info::__do_catch(std::type_info const*, void**, unsigned int) const

.rodata         0x9d0173a8       0x50
 .rodata        0x9d0173a8       0x50 /home/ishyro/.arduino15/packages/chipKIT/tools/pic32-tools/1.43-pic32gcc/bin/bin/../../lib/gcc/pic32mx/4.8.3/../../../../pic32mx/lib/size/libm.a(lib_a-e_atan2.o)

.text._sbrk_r   0x9d0173f8       0x50
 .text._sbrk_r  0x9d0173f8       0x50 /home/ishyro/.arduino15/packages/chipKIT/tools/pic32-tools/1.43-pic32gcc/bin/bin/../../lib/gcc/pic32mx/4.8.3/../../../../pic32mx/lib/size/libc.a(lib_a-sbrkr.o)
                0x9d0173f8                _sbrk_r

.text.sbrk      0x9d017448       0x50
 .text.sbrk     0x9d017448       0x50 /home/ishyro/.arduino15/packages/chipKIT/tools/pic32-tools/1.43-pic32gcc/bin/bin/../../lib/gcc/pic32mx/4.8.3/../../../../pic32mx/lib/size/libpic32.a(sbrk.o)
                0x9d017448                sbrk

.text._ZN5USBFS6resumeEv
                0x9d017498       0x48
 .text._ZN5USBFS6resumeEv
                0x9d017498       0x48 /home/ishyro/Documents/Info/M1/S2/OMicroB-next/src/byterun/pic32/cores/core.a(USB_FS.cpp.o)
                0x9d017498                USBFS::resume()

.text._ZNKSt9type_infoeqERKS_.isra.0
                0x9d0174e0       0x90
 .text._ZNKSt9type_infoeqERKS_.isra.0
                0x9d0174e0       0x48 /home/ishyro/.arduino15/packages/chipKIT/tools/pic32-tools/1.43-pic32gcc/bin/bin/../../lib/gcc/pic32mx/4.8.3/../../../../pic32mx/lib/size/libsupc++.a(class_type_info.o)
 .text._ZNKSt9type_infoeqERKS_.isra.0
                0x9d017528       0x48 /home/ishyro/.arduino15/packages/chipKIT/tools/pic32-tools/1.43-pic32gcc/bin/bin/../../lib/gcc/pic32mx/4.8.3/../../../../pic32mx/lib/size/libsupc++.a(si_class_type_info.o)

.text._ZNKSt9type_infoeqERKS_.isra.0
                0x9d017570       0x48
 .text._ZNKSt9type_infoeqERKS_.isra.0
                0x9d017570       0x48 /home/ishyro/.arduino15/packages/chipKIT/tools/pic32-tools/1.43-pic32gcc/bin/bin/../../lib/gcc/pic32mx/4.8.3/../../../../pic32mx/lib/size/libsupc++.a(vmi_class_type_info.o)

.rodata         0x9d0175b8       0x90
 .rodata        0x9d0175b8       0x48 /home/ishyro/.arduino15/packages/chipKIT/tools/pic32-tools/1.43-pic32gcc/bin/bin/../../lib/gcc/pic32mx/4.8.3/../../../../pic32mx/lib/size/libm.a(lib_a-e_rem_pio2.o)
 .rodata        0x9d017600       0x48 /home/ishyro/.arduino15/packages/chipKIT/tools/pic32-tools/1.43-pic32gcc/bin/bin/../../lib/gcc/pic32mx/4.8.3/../../../../pic32mx/lib/size/libm.a(lib_a-k_cos.o)

.text           0x9d017648       0x48
 .text          0x9d017648       0x48 /home/ishyro/.arduino15/packages/chipKIT/tools/pic32-tools/1.43-pic32gcc/bin/bin/../../lib/gcc/pic32mx/4.8.3/size/crtend.o

.text._bootstrap_exception_handler
                0x9d017690       0x48
 .text._bootstrap_exception_handler
                0x9d017690       0x48 /home/ishyro/.arduino15/packages/chipKIT/tools/pic32-tools/1.43-pic32gcc/bin/bin/../../lib/gcc/pic32mx/4.8.3/../../../../pic32mx/lib/size/libpic32.a(default-bootstrap-exception-handler.o)
                0x9d017690                _bootstrap_exception_handler

.text.pic32softwarereset
                0x9d0176d8       0x44
 .text.pic32softwarereset
                0x9d0176d8       0x44 /tmp/cc1iCQly.o
                0x9d0176d8                __pic32_software_reset
                0x9d0176d8                SoftReset

.text.delayMicroseconds
                0x9d01771c       0x44
 .text.delayMicroseconds
                0x9d01771c       0x44 /home/ishyro/Documents/Info/M1/S2/OMicroB-next/src/byterun/pic32/cores/core.a(wiring.c.o)
                0x9d01771c                delayMicroseconds

.rodata.digital_pin_to_timer_PGM.digital_pin_to_timer_PGM
                0x9d017760       0x44
 .rodata.digital_pin_to_timer_PGM.digital_pin_to_timer_PGM
                0x9d017760       0x44 /home/ishyro/Documents/Info/M1/S2/OMicroB-next/src/byterun/pic32/cores/core.a(pins_arduino.c.o)
                0x9d017760                digital_pin_to_timer_PGM

.rodata.digital_pin_to_bit_mask_PGM.digital_pin_to_bit_mask_PGM
                0x9d0177a4       0x44
 .rodata.digital_pin_to_bit_mask_PGM.digital_pin_to_bit_mask_PGM
                0x9d0177a4       0x44 /home/ishyro/Documents/Info/M1/S2/OMicroB-next/src/byterun/pic32/cores/core.a(pins_arduino.c.o)
                0x9d0177a4                digital_pin_to_bit_mask_PGM

.text           0x9d0177e8       0x44
 .text          0x9d0177e8       0x44 /home/ishyro/.arduino15/packages/chipKIT/tools/pic32-tools/1.43-pic32gcc/bin/bin/../../lib/gcc/pic32mx/4.8.3/size/libgcc.a(floatunsidf.o)
                0x9d0177e8                __floatunsidf

.text.analogRead
                0x9d01782c       0x40
 .text.analogRead
                0x9d01782c       0x40 /home/ishyro/Documents/Info/M1/S2/OMicroB-next/src/byterun/pic32/cores/core.a(wiring_analog.c.o)
                0x9d01782c                analogRead

.text._ZN5USBFS16canEnqueuePacketEh
                0x9d01786c       0x40
 .text._ZN5USBFS16canEnqueuePacketEh
                0x9d01786c       0x40 /home/ishyro/Documents/Info/M1/S2/OMicroB-next/src/byterun/pic32/cores/core.a(USB_FS.cpp.o)
                0x9d01786c                USBFS::canEnqueuePacket(unsigned char)

.rodata.PIo2.PIo2
                0x9d0178b0       0x40
 .rodata.PIo2.PIo2
                0x9d0178b0       0x40 /home/ishyro/.arduino15/packages/chipKIT/tools/pic32-tools/1.43-pic32gcc/bin/bin/../../lib/gcc/pic32mx/4.8.3/../../../../pic32mx/lib/size/libm.a(lib_a-k_rem_pio2.o)

.text           0x9d0178f0       0x80
 .text          0x9d0178f0       0x40 /home/ishyro/.arduino15/packages/chipKIT/tools/pic32-tools/1.43-pic32gcc/bin/bin/../../lib/gcc/pic32mx/4.8.3/size/libgcc.a(_lshrdi3.o)
                0x9d0178f0                __lshrdi3
 .text          0x9d017930       0x40 /home/ishyro/.arduino15/packages/chipKIT/tools/pic32-tools/1.43-pic32gcc/bin/bin/../../lib/gcc/pic32mx/4.8.3/size/libgcc.a(_ashldi3.o)
                0x9d017930                __ashldi3

.text           0x9d017970       0x40
 .text          0x9d017970       0x40 /home/ishyro/.arduino15/packages/chipKIT/tools/pic32-tools/1.43-pic32gcc/bin/bin/../../lib/gcc/pic32mx/4.8.3/size/libgcc.a(_ashrdi3.o)
                0x9d017970                __ashrdi3

.text.millisecondCoreTimerService
                0x9d0179b0       0x3c
 .text.millisecondCoreTimerService
                0x9d0179b0       0x3c /home/ishyro/Documents/Info/M1/S2/OMicroB-next/src/byterun/pic32/cores/core.a(wiring.c.o)
                0x9d0179b0                millisecondCoreTimerService

.rodata         0x9d0179ec       0x3c
 .rodata        0x9d0179ec       0x3c /home/ishyro/.arduino15/packages/chipKIT/tools/pic32-tools/1.43-pic32gcc/bin/bin/../../lib/gcc/pic32mx/4.8.3/../../../../pic32mx/lib/size/libc.a(lib_a-svfprintf.o)

.text._general_exception_handler_entry
                0x9d017a28       0x38
 .text._general_exception_handler_entry
                0x9d017a28       0x38 /home/ishyro/Documents/Info/M1/S2/OMicroB-next/src/byterun/pic32/cores/core.a(exceptions.c.o)
                0x9d017a28                _general_exception_handler_entry

.text.setIntEnable
                0x9d017a60       0x38
 .text.setIntEnable
                0x9d017a60       0x38 /home/ishyro/Documents/Info/M1/S2/OMicroB-next/src/byterun/pic32/cores/core.a(WSystem.c.o)
                0x9d017a60                setIntEnable

.text._softwareReset
                0x9d017a98       0x38
 .text._softwareReset
                0x9d017a98       0x38 /home/ishyro/Documents/Info/M1/S2/OMicroB-next/src/byterun/pic32/cores/core.a(WSystem.c.o)
                0x9d017a98                _softwareReset

.rodata         0x9d017ad0       0x38
 .rodata        0x9d017ad0       0x38 /home/ishyro/.arduino15/packages/chipKIT/tools/pic32-tools/1.43-pic32gcc/bin/bin/../../lib/gcc/pic32mx/4.8.3/../../../../pic32mx/lib/size/libm.a(lib_a-k_sin.o)

.text.main_entry
                0x9d017b08       0x34
 .text.main_entry
                0x9d017b08       0x34 /tmp/ccqWBQHT.o

.text.clearIntFlag
                0x9d017b3c       0x34
 .text.clearIntFlag
                0x9d017b3c       0x34 /home/ishyro/Documents/Info/M1/S2/OMicroB-next/src/byterun/pic32/cores/core.a(WSystem.c.o)
                0x9d017b3c                clearIntFlag

.text.memchr    0x9d017b70       0x34
 .text.memchr   0x9d017b70       0x34 /home/ishyro/.arduino15/packages/chipKIT/tools/pic32-tools/1.43-pic32gcc/bin/bin/../../lib/gcc/pic32mx/4.8.3/../../../../pic32mx/lib/size/libc.a(lib_a-memchr.o)
                0x9d017b70                memchr

.text.__i2b     0x9d017ba4       0x34
 .text.__i2b    0x9d017ba4       0x34 /home/ishyro/.arduino15/packages/chipKIT/tools/pic32-tools/1.43-pic32gcc/bin/bin/../../lib/gcc/pic32mx/4.8.3/../../../../pic32mx/lib/size/libc.a(lib_a-mprec.o)
                0x9d017ba4                __i2b

.rodata         0x9d017bd8       0x30
 .rodata        0x9d017bd8       0x30 /home/ishyro/.arduino15/packages/chipKIT/tools/pic32-tools/1.43-pic32gcc/bin/bin/../../lib/gcc/pic32mx/4.8.3/../../../../pic32mx/lib/size/libm.a(lib_a-k_rem_pio2.o)

.text.setIntVector
                0x9d017c08       0x2c
 .text.setIntVector
                0x9d017c08       0x2c /home/ishyro/Documents/Info/M1/S2/OMicroB-next/src/byterun/pic32/cores/core.a(WSystem.c.o)
                0x9d017c08                setIntVector

.text._configSystem
                0x9d017c34       0x2c
 .text._configSystem
                0x9d017c34       0x2c /home/ishyro/Documents/Info/M1/S2/OMicroB-next/src/byterun/pic32/cores/core.a(WSystem.c.o)
                0x9d017c34                _configSystem

.text._ZN10__cxxabiv117__class_type_infoD0Ev
                0x9d017c60       0x2c
 .text._ZN10__cxxabiv117__class_type_infoD0Ev
                0x9d017c60       0x2c /home/ishyro/.arduino15/packages/chipKIT/tools/pic32-tools/1.43-pic32gcc/bin/bin/../../lib/gcc/pic32mx/4.8.3/../../../../pic32mx/lib/size/libsupc++.a(class_type_info.o)
                0x9d017c60                __cxxabiv1::__class_type_info::~__class_type_info()

.text._ZN10__cxxabiv120__si_class_type_infoD0Ev
                0x9d017c8c       0x2c
 .text._ZN10__cxxabiv120__si_class_type_infoD0Ev
                0x9d017c8c       0x2c /home/ishyro/.arduino15/packages/chipKIT/tools/pic32-tools/1.43-pic32gcc/bin/bin/../../lib/gcc/pic32mx/4.8.3/../../../../pic32mx/lib/size/libsupc++.a(si_class_type_info.o)
                0x9d017c8c                __cxxabiv1::__si_class_type_info::~__si_class_type_info()

.text._ZN10__cxxabiv121__vmi_class_type_infoD0Ev
                0x9d017cb8       0x2c
 .text._ZN10__cxxabiv121__vmi_class_type_infoD0Ev
                0x9d017cb8       0x2c /home/ishyro/.arduino15/packages/chipKIT/tools/pic32-tools/1.43-pic32gcc/bin/bin/../../lib/gcc/pic32mx/4.8.3/../../../../pic32mx/lib/size/libsupc++.a(vmi_class_type_info.o)
                0x9d017cb8                __cxxabiv1::__vmi_class_type_info::~__vmi_class_type_info()

.text.memcpy    0x9d017ce4       0x2c
 .text.memcpy   0x9d017ce4       0x2c /home/ishyro/.arduino15/packages/chipKIT/tools/pic32-tools/1.43-pic32gcc/bin/bin/../../lib/gcc/pic32mx/4.8.3/../../../../pic32mx/lib/size/libc.a(lib_a-memcpy.o)
                0x9d017ce4                memcpy

.text._Bfree    0x9d017d10       0x2c
 .text._Bfree   0x9d017d10       0x2c /home/ishyro/.arduino15/packages/chipKIT/tools/pic32-tools/1.43-pic32gcc/bin/bin/../../lib/gcc/pic32mx/4.8.3/../../../../pic32mx/lib/size/libc.a(lib_a-mprec.o)
                0x9d017d10                _Bfree

.text._stub_sbd_memlayout
                0x9d017d3c       0x2c
 .text._stub_sbd_memlayout
                0x9d017d3c       0x2c /home/ishyro/.arduino15/packages/chipKIT/tools/pic32-tools/1.43-pic32gcc/bin/bin/../../lib/gcc/pic32mx/4.8.3/../../../../pic32mx/lib/size/libpic32.a(sbrk.o)
                0x9d017d3c                _stub_sbd_memlayout
                0x9d017d3c                _sbd_memlayout

.text._ZN6CDCACM4peekEv
                0x9d017d68       0x28
 .text._ZN6CDCACM4peekEv
                0x9d017d68       0x28 /home/ishyro/Documents/Info/M1/S2/OMicroB-next/src/byterun/pic32/cores/core.a(USB_CDCACM.cpp.o)
                0x9d017d68                CDCACM::peek()

.text._enableMultiVectorInterrupts
                0x9d017d90       0x28
 .text._enableMultiVectorInterrupts
                0x9d017d90       0x28 /home/ishyro/Documents/Info/M1/S2/OMicroB-next/src/byterun/pic32/cores/core.a(WSystem.c.o)
                0x9d017d90                _enableMultiVectorInterrupts

.text._ZdlPv    0x9d017db8       0x28
 .text._ZdlPv   0x9d017db8       0x28 /home/ishyro/.arduino15/packages/chipKIT/tools/pic32-tools/1.43-pic32gcc/bin/bin/../../lib/gcc/pic32mx/4.8.3/../../../../pic32mx/lib/size/libsupc++.a(del_op.o)
                0x9d017db8                operator delete(void*)

.rodata.__mprec_bigtens.__mprec_bigtens
                0x9d017de0       0x28
 .rodata.__mprec_bigtens.__mprec_bigtens
                0x9d017de0       0x28 /home/ishyro/.arduino15/packages/chipKIT/tools/pic32-tools/1.43-pic32gcc/bin/bin/../../lib/gcc/pic32mx/4.8.3/../../../../pic32mx/lib/size/libc.a(lib_a-mprec.o)
                0x9d017de0                __mprec_bigtens

.text._initTaskManager
                0x9d017e08       0x24
 .text._initTaskManager
                0x9d017e08       0x24 /home/ishyro/Documents/Info/M1/S2/OMicroB-next/src/byterun/pic32/cores/core.a(task_manager.c.o)
                0x9d017e08                _initTaskManager

.text.usb_boot_system
                0x9d017e2c       0x24
 .text.usb_boot_system
                0x9d017e2c       0x24 /home/ishyro/Documents/Info/M1/S2/OMicroB-next/src/byterun/pic32/cores/core.a(USB.cpp.o)
                0x9d017e2c                usb_boot_system

.rodata.digital_pin_to_analog_PGM.digital_pin_to_analog_PGM
                0x9d017e50       0x24
 .rodata.digital_pin_to_analog_PGM.digital_pin_to_analog_PGM
                0x9d017e50       0x24 /home/ishyro/Documents/Info/M1/S2/OMicroB-next/src/byterun/pic32/cores/core.a(pins_arduino.c.o)
                0x9d017e50                digital_pin_to_analog_PGM

.rodata.digital_pin_to_pps_out_PGM.digital_pin_to_pps_out_PGM
                0x9d017e74       0x24
 .rodata.digital_pin_to_pps_out_PGM.digital_pin_to_pps_out_PGM
                0x9d017e74       0x24 /home/ishyro/Documents/Info/M1/S2/OMicroB-next/src/byterun/pic32/cores/core.a(pins_arduino.c.o)
                0x9d017e74                digital_pin_to_pps_out_PGM

.rodata.digital_pin_to_port_PGM.digital_pin_to_port_PGM
                0x9d017e98       0x24
 .rodata.digital_pin_to_port_PGM.digital_pin_to_port_PGM
                0x9d017e98       0x24 /home/ishyro/Documents/Info/M1/S2/OMicroB-next/src/byterun/pic32/cores/core.a(pins_arduino.c.o)
                0x9d017e98                digital_pin_to_port_PGM

.rodata.port_to_tris_PGM.port_to_tris_PGM
                0x9d017ebc       0x24
 .rodata.port_to_tris_PGM.port_to_tris_PGM
                0x9d017ebc       0x24 /home/ishyro/Documents/Info/M1/S2/OMicroB-next/src/byterun/pic32/cores/core.a(pins_arduino.c.o)
                0x9d017ebc                port_to_tris_PGM

.text._ZN10__cxxabiv117__class_type_infoD2Ev
                0x9d017ee0       0x24
 .text._ZN10__cxxabiv117__class_type_infoD2Ev
                0x9d017ee0       0x24 /home/ishyro/.arduino15/packages/chipKIT/tools/pic32-tools/1.43-pic32gcc/bin/bin/../../lib/gcc/pic32mx/4.8.3/../../../../pic32mx/lib/size/libsupc++.a(class_type_info.o)
                0x9d017ee0                __cxxabiv1::__class_type_info::~__class_type_info()
                0x9d017ee0                __cxxabiv1::__class_type_info::~__class_type_info()

.text._ZN10__cxxabiv120__si_class_type_infoD2Ev
                0x9d017f04       0x24
 .text._ZN10__cxxabiv120__si_class_type_infoD2Ev
                0x9d017f04       0x24 /home/ishyro/.arduino15/packages/chipKIT/tools/pic32-tools/1.43-pic32gcc/bin/bin/../../lib/gcc/pic32mx/4.8.3/../../../../pic32mx/lib/size/libsupc++.a(si_class_type_info.o)
                0x9d017f04                __cxxabiv1::__si_class_type_info::~__si_class_type_info()
                0x9d017f04                __cxxabiv1::__si_class_type_info::~__si_class_type_info()

.text._ZNSt9type_infoD0Ev
                0x9d017f28       0x24
 .text._ZNSt9type_infoD0Ev
                0x9d017f28       0x24 /home/ishyro/.arduino15/packages/chipKIT/tools/pic32-tools/1.43-pic32gcc/bin/bin/../../lib/gcc/pic32mx/4.8.3/../../../../pic32mx/lib/size/libsupc++.a(tinfo.o)
                0x9d017f28                std::type_info::~type_info()

.text._ZN10__cxxabiv121__vmi_class_type_infoD2Ev
                0x9d017f4c       0x24
 .text._ZN10__cxxabiv121__vmi_class_type_infoD2Ev
                0x9d017f4c       0x24 /home/ishyro/.arduino15/packages/chipKIT/tools/pic32-tools/1.43-pic32gcc/bin/bin/../../lib/gcc/pic32mx/4.8.3/../../../../pic32mx/lib/size/libsupc++.a(vmi_class_type_info.o)
                0x9d017f4c                __cxxabiv1::__vmi_class_type_info::~__vmi_class_type_info()
                0x9d017f4c                __cxxabiv1::__vmi_class_type_info::~__vmi_class_type_info()

.text.malloc    0x9d017f70       0x24
 .text.malloc   0x9d017f70       0x24 /home/ishyro/.arduino15/packages/chipKIT/tools/pic32-tools/1.43-pic32gcc/bin/bin/../../lib/gcc/pic32mx/4.8.3/../../../../pic32mx/lib/size/libc.a(lib_a-malloc.o)
                0x9d017f70                malloc

.text.free      0x9d017f94       0x24
 .text.free     0x9d017f94       0x24 /home/ishyro/.arduino15/packages/chipKIT/tools/pic32-tools/1.43-pic32gcc/bin/bin/../../lib/gcc/pic32mx/4.8.3/../../../../pic32mx/lib/size/libc.a(lib_a-malloc.o)
                0x9d017f94                free

.text.memset    0x9d017fb8       0x24
 .text.memset   0x9d017fb8       0x24 /home/ishyro/.arduino15/packages/chipKIT/tools/pic32-tools/1.43-pic32gcc/bin/bin/../../lib/gcc/pic32mx/4.8.3/../../../../pic32mx/lib/size/libc.a(lib_a-memset.o)
                0x9d017fb8                memset

.rodata.psval.psval
                0x9d017fdc       0x20
 .rodata.psval.psval
                0x9d017fdc       0x20 /home/ishyro/Documents/Info/M1/S2/OMicroB-next/src/byterun/pic32/cores/core.a(wiring_analog.c.o)

.rodata.atanhi.atanhi
                0x9d018000       0x20
 .rodata.atanhi.atanhi
                0x9d018000       0x20 /home/ishyro/.arduino15/packages/chipKIT/tools/pic32-tools/1.43-pic32gcc/bin/bin/../../lib/gcc/pic32mx/4.8.3/../../../../pic32mx/lib/size/libm.a(lib_a-s_atan.o)

.rodata.atanlo.atanlo
                0x9d018020       0x20
 .rodata.atanlo.atanlo
                0x9d018020       0x20 /home/ishyro/.arduino15/packages/chipKIT/tools/pic32-tools/1.43-pic32gcc/bin/bin/../../lib/gcc/pic32mx/4.8.3/../../../../pic32mx/lib/size/libm.a(lib_a-s_atan.o)

.rodata         0x9d018040       0x20
 .rodata        0x9d018040       0x20 /home/ishyro/.arduino15/packages/chipKIT/tools/pic32-tools/1.43-pic32gcc/bin/bin/../../lib/gcc/pic32mx/4.8.3/../../../../pic32mx/lib/size/libm.a(lib_a-s_scalbn.o)

.text._ZN5USBFS10disableUSBEv
                0x9d018060       0x1c
 .text._ZN5USBFS10disableUSBEv
                0x9d018060       0x1c /home/ishyro/Documents/Info/M1/S2/OMicroB-next/src/byterun/pic32/cores/core.a(USB_FS.cpp.o)
                0x9d018060                USBFS::disableUSB()

.text._ZN5USBFS6isIdleEh
                0x9d01807c       0x1c
 .text._ZN5USBFS6isIdleEh
                0x9d01807c       0x1c /home/ishyro/Documents/Info/M1/S2/OMicroB-next/src/byterun/pic32/cores/core.a(USB_FS.cpp.o)
                0x9d01807c                USBFS::isIdle(unsigned char)

.text.restoreInterrupts
                0x9d018098       0x1c
 .text.restoreInterrupts
                0x9d018098       0x1c /home/ishyro/Documents/Info/M1/S2/OMicroB-next/src/byterun/pic32/cores/core.a(WSystem.c.o)
                0x9d018098                restoreInterrupts

.text.getPeripheralClock
                0x9d0180b4       0x1c
 .text.getPeripheralClock
                0x9d0180b4       0x1c /home/ishyro/Documents/Info/M1/S2/OMicroB-next/src/byterun/pic32/cores/core.a(WSystem.c.o)
                0x9d0180b4                getPeripheralClock

.text._ZNK10__cxxabiv117__class_type_info20__do_find_public_srcElPKvPKS0_S2_
                0x9d0180d0       0x1c
 .text._ZNK10__cxxabiv117__class_type_info20__do_find_public_srcElPKvPKS0_S2_
                0x9d0180d0       0x1c /home/ishyro/.arduino15/packages/chipKIT/tools/pic32-tools/1.43-pic32gcc/bin/bin/../../lib/gcc/pic32mx/4.8.3/../../../../pic32mx/lib/size/libsupc++.a(class_type_info.o)
                0x9d0180d0                __cxxabiv1::__class_type_info::__do_find_public_src(long, void const*, __cxxabiv1::__class_type_info const*, void const*) const

.text.atan2     0x9d0180ec       0x1c
 .text.atan2    0x9d0180ec       0x1c /home/ishyro/.arduino15/packages/chipKIT/tools/pic32-tools/1.43-pic32gcc/bin/bin/../../lib/gcc/pic32mx/4.8.3/../../../../pic32mx/lib/size/libm.a(lib_a-w_atan2.o)
                0x9d0180ec                atan2

.rodata         0x9d018108       0x18
 .rodata        0x9d018108       0x18 /home/ishyro/Documents/Info/M1/S2/OMicroB-next/src/byterun/pic32/cores/core.a(USB.cpp.o)

.text.copysign  0x9d018120       0x18
 .text.copysign
                0x9d018120       0x18 /home/ishyro/.arduino15/packages/chipKIT/tools/pic32-tools/1.43-pic32gcc/bin/bin/../../lib/gcc/pic32mx/4.8.3/../../../../pic32mx/lib/size/libm.a(lib_a-s_copysign.o)
                0x9d018120                copysign

.text           0x9d018138       0x30
 .text          0x9d018138       0x18 /home/ishyro/.arduino15/packages/chipKIT/tools/pic32-tools/1.43-pic32gcc/bin/bin/../../lib/gcc/pic32mx/4.8.3/../../../../pic32mx/lib/size/libc.a(lib_a-strlen.o)
                0x9d018138                strlen
 .text          0x9d018150       0x18 /home/ishyro/.arduino15/packages/chipKIT/tools/pic32-tools/1.43-pic32gcc/bin/bin/../../lib/gcc/pic32mx/4.8.3/../../../../pic32mx/lib/size/libpic32.a(default-nmi-handler.o)
                0x9d018150                _nmi_handler

.text._ZN6CDCACM9availableEv
                0x9d018168       0x14
 .text._ZN6CDCACM9availableEv
                0x9d018168       0x14 /home/ishyro/Documents/Info/M1/S2/OMicroB-next/src/byterun/pic32/cores/core.a(USB_CDCACM.cpp.o)
                0x9d018168                CDCACM::available()

.text._ZN6CDCACM17availableForWriteEv
                0x9d01817c       0x14
 .text._ZN6CDCACM17availableForWriteEv
                0x9d01817c       0x14 /home/ishyro/Documents/Info/M1/S2/OMicroB-next/src/byterun/pic32/cores/core.a(USB_CDCACM.cpp.o)
                0x9d01817c                CDCACM::availableForWrite()

.text._board_init
                0x9d018190       0x14
 .text._board_init
                0x9d018190       0x14 /home/ishyro/Documents/Info/M1/S2/OMicroB-next/src/byterun/pic32/cores/core.a(pins_arduino.c.o)
                0x9d018190                _board_init

.rodata         0x9d0181a4       0x14
 .rodata        0x9d0181a4       0x14 /home/ishyro/.arduino15/packages/chipKIT/tools/pic32-tools/1.43-pic32gcc/bin/bin/../../lib/gcc/pic32mx/4.8.3/../../../../pic32mx/lib/size/libc.a(lib_a-locale.o)

.text._ZN10USBManager17allocateInterfaceEv
                0x9d0181b8       0x10
 .text._ZN10USBManager17allocateInterfaceEv
                0x9d0181b8       0x10 /home/ishyro/Documents/Info/M1/S2/OMicroB-next/src/byterun/pic32/cores/core.a(USB.cpp.o)
                0x9d0181b8                USBManager::allocateInterface()

.text._ZN10USBManager16allocateEndpointEv
                0x9d0181c8       0x10
 .text._ZN10USBManager16allocateEndpointEv
                0x9d0181c8       0x10 /home/ishyro/Documents/Info/M1/S2/OMicroB-next/src/byterun/pic32/cores/core.a(USB.cpp.o)
                0x9d0181c8                USBManager::allocateEndpoint()

.text._ZN5USBFS10setAddressEh
                0x9d0181d8       0x10
 .text._ZN5USBFS10setAddressEh
                0x9d0181d8       0x10 /home/ishyro/Documents/Info/M1/S2/OMicroB-next/src/byterun/pic32/cores/core.a(USB_FS.cpp.o)
                0x9d0181d8                USBFS::setAddress(unsigned char)

.text._initCoreTimer
                0x9d0181e8       0x10
 .text._initCoreTimer
                0x9d0181e8       0x10 /home/ishyro/Documents/Info/M1/S2/OMicroB-next/src/byterun/pic32/cores/core.a(WSystem.c.o)
                0x9d0181e8                _initCoreTimer

.rodata.analog_pin_to_channel_PGM.analog_pin_to_channel_PGM
                0x9d0181f8       0x10
 .rodata.analog_pin_to_channel_PGM.analog_pin_to_channel_PGM
                0x9d0181f8       0x10 /home/ishyro/Documents/Info/M1/S2/OMicroB-next/src/byterun/pic32/cores/core.a(pins_arduino.c.o)
                0x9d0181f8                analog_pin_to_channel_PGM

.text._ZNSt9type_infoD2Ev
                0x9d018208       0x10
 .text._ZNSt9type_infoD2Ev
                0x9d018208       0x10 /home/ishyro/.arduino15/packages/chipKIT/tools/pic32-tools/1.43-pic32gcc/bin/bin/../../lib/gcc/pic32mx/4.8.3/../../../../pic32mx/lib/size/libsupc++.a(tinfo.o)
                0x9d018208                std::type_info::~type_info()
                0x9d018208                std::type_info::~type_info()

.rodata.Zero.Zero
                0x9d018218       0x10
 .rodata.Zero.Zero
                0x9d018218       0x10 /home/ishyro/.arduino15/packages/chipKIT/tools/pic32-tools/1.43-pic32gcc/bin/bin/../../lib/gcc/pic32mx/4.8.3/../../../../pic32mx/lib/size/libm.a(lib_a-e_fmod.o)

.rodata.init_jk.init_jk
                0x9d018228       0x10
 .rodata.init_jk.init_jk
                0x9d018228       0x10 /home/ishyro/.arduino15/packages/chipKIT/tools/pic32-tools/1.43-pic32gcc/bin/bin/../../lib/gcc/pic32mx/4.8.3/../../../../pic32mx/lib/size/libm.a(lib_a-k_rem_pio2.o)

.text.fabs      0x9d018238       0x10
 .text.fabs     0x9d018238       0x10 /home/ishyro/.arduino15/packages/chipKIT/tools/pic32-tools/1.43-pic32gcc/bin/bin/../../lib/gcc/pic32mx/4.8.3/../../../../pic32mx/lib/size/libm.a(lib_a-s_fabs.o)
                0x9d018238                fabs

.rodata.blanks.4081.blanks
                0x9d018248       0x10
 .rodata.blanks.4081.blanks
                0x9d018248       0x10 /home/ishyro/.arduino15/packages/chipKIT/tools/pic32-tools/1.43-pic32gcc/bin/bin/../../lib/gcc/pic32mx/4.8.3/../../../../pic32mx/lib/size/libc.a(lib_a-svfprintf.o)

.rodata.zeroes.4082.zeroes
                0x9d018258       0x10
 .rodata.zeroes.4082.zeroes
                0x9d018258       0x10 /home/ishyro/.arduino15/packages/chipKIT/tools/pic32-tools/1.43-pic32gcc/bin/bin/../../lib/gcc/pic32mx/4.8.3/../../../../pic32mx/lib/size/libc.a(lib_a-svfprintf.o)

.text.millis    0x9d018268        0xc
 .text.millis   0x9d018268        0xc /home/ishyro/Documents/Info/M1/S2/OMicroB-next/src/byterun/pic32/cores/core.a(wiring.c.o)
                0x9d018268                millis

.text.disableInterrupts
                0x9d018274        0xc
 .text.disableInterrupts
                0x9d018274        0xc /home/ishyro/Documents/Info/M1/S2/OMicroB-next/src/byterun/pic32/cores/core.a(WSystem.c.o)
                0x9d018274                disableInterrupts

.text.readCoreTimer
                0x9d018280        0xc
 .text.readCoreTimer
                0x9d018280        0xc /home/ishyro/Documents/Info/M1/S2/OMicroB-next/src/byterun/pic32/cores/core.a(WSystem.c.o)
                0x9d018280                readCoreTimer

.text.__errno   0x9d01828c        0xc
 .text.__errno  0x9d01828c        0xc /home/ishyro/.arduino15/packages/chipKIT/tools/pic32-tools/1.43-pic32gcc/bin/bin/../../lib/gcc/pic32mx/4.8.3/../../../../pic32mx/lib/size/libc.a(lib_a-errno.o)
                0x9d01828c                __errno

.text._localeconv_r
                0x9d018298        0xc
 .text._localeconv_r
                0x9d018298        0xc /home/ishyro/.arduino15/packages/chipKIT/tools/pic32-tools/1.43-pic32gcc/bin/bin/../../lib/gcc/pic32mx/4.8.3/../../../../pic32mx/lib/size/libc.a(lib_a-locale.o)
                0x9d018298                _localeconv_r

.rodata.p05.2611.p05
                0x9d0182a4        0xc
 .rodata.p05.2611.p05
                0x9d0182a4        0xc /home/ishyro/.arduino15/packages/chipKIT/tools/pic32-tools/1.43-pic32gcc/bin/bin/../../lib/gcc/pic32mx/4.8.3/../../../../pic32mx/lib/size/libc.a(lib_a-mprec.o)

.text._general_exception_handler
                0x9d0182b0        0x8
 .text._general_exception_handler
                0x9d0182b0        0x8 /home/ishyro/Documents/Info/M1/S2/OMicroB-next/src/byterun/pic32/cores/core.a(exceptions.c.o)
                0x9d0182b0                _general_exception_handler

.text._ZN6CDCACM19getDescriptorLengthEv
                0x9d0182b8        0x8
 .text._ZN6CDCACM19getDescriptorLengthEv
                0x9d0182b8        0x8 /home/ishyro/Documents/Info/M1/S2/OMicroB-next/src/byterun/pic32/cores/core.a(USB_CDCACM.cpp.o)
                0x9d0182b8                CDCACM::getDescriptorLength()

.text._ZN6CDCACM17getInterfaceCountEv
                0x9d0182c0        0x8
 .text._ZN6CDCACM17getInterfaceCountEv
                0x9d0182c0        0x8 /home/ishyro/Documents/Info/M1/S2/OMicroB-next/src/byterun/pic32/cores/core.a(USB_CDCACM.cpp.o)
                0x9d0182c0                CDCACM::getInterfaceCount()

.text._ZN6CDCACM13getDescriptorEhhhh
                0x9d0182c8        0x8
 .text._ZN6CDCACM13getDescriptorEhhhh
                0x9d0182c8        0x8 /home/ishyro/Documents/Info/M1/S2/OMicroB-next/src/byterun/pic32/cores/core.a(USB_CDCACM.cpp.o)
                0x9d0182c8                CDCACM::getDescriptor(unsigned char, unsigned char, unsigned char, unsigned char)

.text._ZThn4_N6CDCACM9availableEv
                0x9d0182d0        0x8
 .text._ZThn4_N6CDCACM9availableEv
                0x9d0182d0        0x8 /home/ishyro/Documents/Info/M1/S2/OMicroB-next/src/byterun/pic32/cores/core.a(USB_CDCACM.cpp.o)
                0x9d0182d0                non-virtual thunk to CDCACM::available()

.text._ZThn4_N6CDCACM17availableForWriteEv
                0x9d0182d8        0x8
 .text._ZThn4_N6CDCACM17availableForWriteEv
                0x9d0182d8        0x8 /home/ishyro/Documents/Info/M1/S2/OMicroB-next/src/byterun/pic32/cores/core.a(USB_CDCACM.cpp.o)
                0x9d0182d8                non-virtual thunk to CDCACM::availableForWrite()

.text._ZThn4_N6CDCACM4readEv
                0x9d0182e0        0x8
 .text._ZThn4_N6CDCACM4readEv
                0x9d0182e0        0x8 /home/ishyro/Documents/Info/M1/S2/OMicroB-next/src/byterun/pic32/cores/core.a(USB_CDCACM.cpp.o)
                0x9d0182e0                non-virtual thunk to CDCACM::read()

.text._ZN6CDCACM5flushEv
                0x9d0182e8        0x8
 .text._ZN6CDCACM5flushEv
                0x9d0182e8        0x8 /home/ishyro/Documents/Info/M1/S2/OMicroB-next/src/byterun/pic32/cores/core.a(USB_CDCACM.cpp.o)
                0x9d0182e8                CDCACM::flush()

.text._ZThn4_N6CDCACM5flushEv
                0x9d0182f0        0x8
 .text._ZThn4_N6CDCACM5flushEv
                0x9d0182f0        0x8 /home/ishyro/Documents/Info/M1/S2/OMicroB-next/src/byterun/pic32/cores/core.a(USB_CDCACM.cpp.o)
                0x9d0182f0                non-virtual thunk to CDCACM::flush()

.text._ZThn4_N6CDCACM4peekEv
                0x9d0182f8        0x8
 .text._ZThn4_N6CDCACM4peekEv
                0x9d0182f8        0x8 /home/ishyro/Documents/Info/M1/S2/OMicroB-next/src/byterun/pic32/cores/core.a(USB_CDCACM.cpp.o)
                0x9d0182f8                non-virtual thunk to CDCACM::peek()

.text._ZN6CDCACM12onEnumeratedEv
                0x9d018300        0x8
 .text._ZN6CDCACM12onEnumeratedEv
                0x9d018300        0x8 /home/ishyro/Documents/Info/M1/S2/OMicroB-next/src/byterun/pic32/cores/core.a(USB_CDCACM.cpp.o)
                0x9d018300                CDCACM::onEnumerated()

.text._ZThn4_N6CDCACM5writeEPKhm
                0x9d018308        0x8
 .text._ZThn4_N6CDCACM5writeEPKhm
                0x9d018308        0x8 /home/ishyro/Documents/Info/M1/S2/OMicroB-next/src/byterun/pic32/cores/core.a(USB_CDCACM.cpp.o)
                0x9d018308                non-virtual thunk to CDCACM::write(unsigned char const*, unsigned long)

.text._ZThn4_N6CDCACM5writeEh
                0x9d018310        0x8
 .text._ZThn4_N6CDCACM5writeEh
                0x9d018310        0x8 /home/ishyro/Documents/Info/M1/S2/OMicroB-next/src/byterun/pic32/cores/core.a(USB_CDCACM.cpp.o)
                0x9d018310                non-virtual thunk to CDCACM::write(unsigned char)

.rodata.output_compare_to_pps_sel_PGM.output_compare_to_pps_sel_PGM
                0x9d018318        0x8
 .rodata.output_compare_to_pps_sel_PGM.output_compare_to_pps_sel_PGM
                0x9d018318        0x8 /home/ishyro/Documents/Info/M1/S2/OMicroB-next/src/byterun/pic32/cores/core.a(pins_arduino.c.o)
                0x9d018318                output_compare_to_pps_sel_PGM

.text._ZNKSt9type_info14__is_pointer_pEv
                0x9d018320        0x8
 .text._ZNKSt9type_info14__is_pointer_pEv
                0x9d018320        0x8 /home/ishyro/.arduino15/packages/chipKIT/tools/pic32-tools/1.43-pic32gcc/bin/bin/../../lib/gcc/pic32mx/4.8.3/../../../../pic32mx/lib/size/libsupc++.a(tinfo.o)
                0x9d018320                std::type_info::__is_pointer_p() const

.text._ZNKSt9type_info15__is_function_pEv
                0x9d018328        0x8
 .text._ZNKSt9type_info15__is_function_pEv
                0x9d018328        0x8 /home/ishyro/.arduino15/packages/chipKIT/tools/pic32-tools/1.43-pic32gcc/bin/bin/../../lib/gcc/pic32mx/4.8.3/../../../../pic32mx/lib/size/libsupc++.a(tinfo.o)
                0x9d018328                std::type_info::__is_function_p() const

.text._ZNKSt9type_info11__do_upcastEPKN10__cxxabiv117__class_type_infoEPPv
                0x9d018330        0x8
 .text._ZNKSt9type_info11__do_upcastEPKN10__cxxabiv117__class_type_infoEPPv
                0x9d018330        0x8 /home/ishyro/.arduino15/packages/chipKIT/tools/pic32-tools/1.43-pic32gcc/bin/bin/../../lib/gcc/pic32mx/4.8.3/../../../../pic32mx/lib/size/libsupc++.a(tinfo.o)
                0x9d018330                std::type_info::__do_upcast(__cxxabiv1::__class_type_info const*, void**) const

.rodata         0x9d018338       0x10
 .rodata        0x9d018338        0x8 /home/ishyro/.arduino15/packages/chipKIT/tools/pic32-tools/1.43-pic32gcc/bin/bin/../../lib/gcc/pic32mx/4.8.3/../../../../pic32mx/lib/size/libm.a(lib_a-w_fmod.o)
 .rodata        0x9d018340        0x8 /home/ishyro/.arduino15/packages/chipKIT/tools/pic32-tools/1.43-pic32gcc/bin/bin/../../lib/gcc/pic32mx/4.8.3/../../../../pic32mx/lib/size/libm.a(lib_a-w_sqrt.o)

.rodata         0x9d018348        0x8
 .rodata        0x9d018348        0x8 /home/ishyro/.arduino15/packages/chipKIT/tools/pic32-tools/1.43-pic32gcc/bin/bin/../../lib/gcc/pic32mx/4.8.3/../../../../pic32mx/lib/size/libm.a(lib_a-s_floor.o)

.text.matherr   0x9d018350        0x8
 .text.matherr  0x9d018350        0x8 /home/ishyro/.arduino15/packages/chipKIT/tools/pic32-tools/1.43-pic32gcc/bin/bin/../../lib/gcc/pic32mx/4.8.3/../../../../pic32mx/lib/size/libm.a(lib_a-s_matherr.o)
                0x9d018350                matherr

.rodata         0x9d018358        0x8
 .rodata        0x9d018358        0x8 /home/ishyro/.arduino15/packages/chipKIT/tools/pic32-tools/1.43-pic32gcc/bin/bin/../../lib/gcc/pic32mx/4.8.3/size/libgcc.a(floatunsidf.o)

.text.__malloc_lock
                0x9d018360        0x8
 .text.__malloc_lock
                0x9d018360        0x8 /home/ishyro/.arduino15/packages/chipKIT/tools/pic32-tools/1.43-pic32gcc/bin/bin/../../lib/gcc/pic32mx/4.8.3/../../../../pic32mx/lib/size/libc.a(lib_a-mlock.o)
                0x9d018360                __malloc_lock

.text.__malloc_unlock
                0x9d018368        0x8
 .text.__malloc_unlock
                0x9d018368        0x8 /home/ishyro/.arduino15/packages/chipKIT/tools/pic32-tools/1.43-pic32gcc/bin/bin/../../lib/gcc/pic32mx/4.8.3/../../../../pic32mx/lib/size/libc.a(lib_a-mlock.o)
                0x9d018368                __malloc_unlock

.text._on_reset
                0x9d018370        0x8
 .text._on_reset
                0x9d018370        0x8 /home/ishyro/.arduino15/packages/chipKIT/tools/pic32-tools/1.43-pic32gcc/bin/bin/../../lib/gcc/pic32mx/4.8.3/../../../../pic32mx/lib/size/libpic32.a(default-on-reset.o)
                0x9d018370                _on_reset

.text._on_bootstrap
                0x9d018378        0x8
 .text._on_bootstrap
                0x9d018378        0x8 /home/ishyro/.arduino15/packages/chipKIT/tools/pic32-tools/1.43-pic32gcc/bin/bin/../../lib/gcc/pic32mx/4.8.3/../../../../pic32mx/lib/size/libpic32.a(default-on-bootstrap.o)
                0x9d018378                _on_bootstrap

.rodata         0x9d0178ac        0x4
 .rodata        0x9d0178ac        0x4 /home/ishyro/.arduino15/packages/chipKIT/tools/pic32-tools/1.43-pic32gcc/bin/bin/../../lib/gcc/pic32mx/4.8.3/../../../../pic32mx/lib/size/libc.a(lib_a-impure.o)

.reset.startup  0x00000000        0x0
 .reset.startup
                0x00000000        0x0 /tmp/ccqWBQHT.o
