	.file	"test.c"
	.text
.Ltext0:
	.type	_ZL14int_of_hexcharc, @function
_ZL14int_of_hexcharc:
.LFB118:
	.file 1 "/home/adilla/Documents/VmMic/Tools/OMicroBPIC32/src/byterun/simul/sf-regs.c"
	.loc 1 113 0
	.cfi_startproc
.LVL0:
	.loc 1 114 0
	leal	-48(%rdi), %eax
	cmpb	$9, %al
	jbe	.L6
	.loc 1 115 0
	leal	-65(%rdi), %eax
	cmpb	$5, %al
	jbe	.L7
	.loc 1 116 0
	leal	-97(%rdi), %eax
	cmpb	$5, %al
	ja	.L5
	.loc 1 116 0 is_stmt 0 discriminator 1
	movsbl	%dil, %edi
	leal	-87(%rdi), %eax
	ret
.L6:
	.loc 1 114 0 is_stmt 1 discriminator 1
	movsbl	%dil, %edi
	leal	-48(%rdi), %eax
	ret
.L7:
	.loc 1 115 0 discriminator 1
	movsbl	%dil, %edi
	leal	-55(%rdi), %eax
	ret
.L5:
	.loc 1 117 0
	movl	$-1, %eax
	.loc 1 118 0
	ret
	.cfi_endproc
.LFE118:
	.size	_ZL14int_of_hexcharc, .-_ZL14int_of_hexcharc
	.type	_ZL14hexchar_of_inti, @function
_ZL14hexchar_of_inti:
.LFB119:
	.loc 1 120 0
	.cfi_startproc
.LVL1:
	.loc 1 121 0
	andl	$15, %edi
.LVL2:
	.loc 1 122 0
	leal	48(%rdi), %edx
	leal	55(%rdi), %eax
	cmpl	$9, %edi
	cmovle	%edx, %eax
	.loc 1 124 0
	ret
	.cfi_endproc
.LFE119:
	.size	_ZL14hexchar_of_inti, .-_ZL14hexchar_of_inti
	.type	_ZL4hashPjS_ji, @function
_ZL4hashPjS_ji:
.LFB519:
	.file 2 "/home/adilla/Documents/VmMic/Tools/OMicroBPIC32/src/byterun/vm/hash.c"
	.loc 2 4 0
	.cfi_startproc
.LVL3:
	movl	%edx, %eax
	.loc 2 5 0
	movl	(%rdi), %edx
.LVL4:
	cmpl	$1, %edx
	jbe	.L28
	.loc 2 4 0 discriminator 2
	pushq	%r15
	.cfi_def_cfa_offset 16
	.cfi_offset 15, -16
	pushq	%r14
	.cfi_def_cfa_offset 24
	.cfi_offset 14, -24
	pushq	%r13
	.cfi_def_cfa_offset 32
	.cfi_offset 13, -32
	pushq	%r12
	.cfi_def_cfa_offset 40
	.cfi_offset 12, -40
	pushq	%rbp
	.cfi_def_cfa_offset 48
	.cfi_offset 6, -48
	pushq	%rbx
	.cfi_def_cfa_offset 56
	.cfi_offset 3, -56
	subq	$24, %rsp
	.cfi_def_cfa_offset 80
	movq	%rdi, %rbx
	movq	%rsi, %rbp
	.loc 2 5 0 discriminator 2
	cmpl	$0, (%rsi)
	je	.L25
	.loc 2 6 0
	subl	$1, %edx
	movl	%edx, (%rdi)
.LBB517:
	.loc 2 7 0
	testb	$3, %cl
	jne	.L13
	.loc 2 7 0 is_stmt 0 discriminator 1
	movl	%ecx, %edx
	shrl	$22, %edx
	cmpw	$511, %dx
	je	.L31
.L13:
	.loc 2 28 0 is_stmt 1
	subl	$1, 0(%rbp)
	.loc 2 29 0
	imull	$223, %eax, %eax
.LVL5:
	addl	%ecx, %eax
.LVL6:
.L25:
.LBE517:
	.loc 2 31 0
	addq	$24, %rsp
	.cfi_remember_state
	.cfi_def_cfa_offset 56
	popq	%rbx
	.cfi_def_cfa_offset 48
.LVL7:
	popq	%rbp
	.cfi_def_cfa_offset 40
.LVL8:
	popq	%r12
	.cfi_def_cfa_offset 32
	popq	%r13
	.cfi_def_cfa_offset 24
	popq	%r14
	.cfi_def_cfa_offset 16
	popq	%r15
	.cfi_def_cfa_offset 8
	ret
.LVL9:
.L31:
	.cfi_restore_state
.LBB524:
.LBB518:
	.loc 2 8 0
	movl	%ecx, %r13d
	shrl	$16, %r13d
	movzbl	%r13b, %r13d
	andl	$32, %r13d
	jne	.L14
	.loc 2 8 0 is_stmt 0 discriminator 1
	movl	%ecx, %edx
	sall	$12, %edx
	sarl	$12, %edx
	movslq	%edx, %rdx
	leaq	-4+ocaml_ram_heap(%rip), %rsi
.LVL10:
	movl	(%rsi,%rdx), %edx
	movl	%edx, %edi
	shrl	$24, %edi
	movl	%edi, %esi
.LVL11:
	.loc 2 9 0 is_stmt 1 discriminator 1
	movl	%edx, %edi
	sarl	$2, %edi
	andl	$4194303, %edi
.LVL12:
	.loc 2 10 0 discriminator 1
	imull	$223, %eax, %eax
.LVL13:
	movl	%esi, %edx
.LVL14:
.L15:
	.loc 2 10 0 is_stmt 0 discriminator 4
	addl	%edx, %eax
.LVL15:
.LBB519:
	.loc 2 12 0 is_stmt 1 discriminator 4
	cmpb	$-6, %sil
	ja	.L16
.LVL16:
.LBB520:
	.loc 2 14 0
	testl	%edi, %edi
	je	.L25
	.loc 2 15 0
	movl	%ecx, %edx
	sall	$12, %edx
	sarl	$12, %edx
	movslq	%edx, %rsi
	movq	%rsi, 8(%rsp)
	leal	-1(%rdi), %edx
	leaq	4(,%rdx,4), %r15
	movl	$0, %r14d
	andl	$1048575, %ecx
.LVL17:
	leaq	_ZL16ocaml_flash_heap(%rip), %rdx
	leaq	(%rcx,%rdx), %r12
	jmp	.L19
.LVL18:
.L14:
.LBE520:
.LBE519:
	.loc 2 8 0 discriminator 2
	movl	%ecx, %edx
	andl	$1048575, %edx
	leaq	-4+_ZL16ocaml_flash_heap(%rip), %rsi
.LVL19:
	movl	(%rsi,%rdx), %edx
	movl	%edx, %edi
	shrl	$24, %edi
	movl	%edi, %esi
.LVL20:
	.loc 2 9 0 discriminator 2
	movl	%edx, %edi
	sarl	$2, %edi
	andl	$4194303, %edi
.LVL21:
	.loc 2 10 0 discriminator 2
	imull	$223, %eax, %eax
.LVL22:
	movl	%esi, %edx
.LVL23:
	jmp	.L15
.LVL24:
.L17:
.LBB523:
.LBB521:
	.loc 2 15 0 discriminator 2
	movl	(%r12,%r14), %ecx
.L18:
	.loc 2 15 0 is_stmt 0 discriminator 4
	movl	%eax, %edx
	movq	%rbp, %rsi
	movq	%rbx, %rdi
	call	_ZL4hashPjS_ji
.LVL25:
	.loc 2 16 0 is_stmt 1 discriminator 4
	cmpl	$0, (%rbx)
	je	.L25
	.loc 2 16 0 is_stmt 0 discriminator 2
	cmpl	$0, 0(%rbp)
	je	.L25
	addq	$4, %r14
	.loc 2 14 0 is_stmt 1 discriminator 2
	cmpq	%r15, %r14
	je	.L25
.L19:
	.loc 2 15 0
	testl	%r13d, %r13d
	jne	.L17
	.loc 2 15 0 is_stmt 0 discriminator 1
	leaq	ocaml_ram_heap(%rip), %rdx
	addq	8(%rsp), %rdx
	movl	(%rdx,%r14), %ecx
	jmp	.L18
.LVL26:
.L16:
.LBE521:
.LBB522:
	.loc 2 20 0 is_stmt 1
	testl	%edi, %edi
	je	.L20
	.loc 2 21 0
	movl	%ecx, %r8d
	sall	$12, %r8d
	sarl	$12, %r8d
	movslq	%r8d, %r8
	leal	-1(%rdi), %edx
	leaq	4(,%rdx,4), %r9
	movl	$0, %esi
	andl	$1048575, %ecx
.LVL27:
	leaq	_ZL16ocaml_flash_heap(%rip), %rdx
	addq	%rdx, %rcx
	leaq	ocaml_ram_heap(%rip), %rdx
	addq	%rdx, %r8
	jmp	.L23
.LVL28:
.L21:
	.loc 2 21 0 is_stmt 0 discriminator 2
	movl	(%rcx,%rsi), %edx
.L22:
	.loc 2 21 0 discriminator 4
	addl	%edx, %eax
.LVL29:
	addq	$4, %rsi
	.loc 2 20 0 is_stmt 1 discriminator 4
	cmpq	%r9, %rsi
	je	.L32
.L23:
	.loc 2 21 0
	imull	$223, %eax, %eax
.LVL30:
	testl	%r13d, %r13d
	jne	.L21
	.loc 2 21 0 is_stmt 0 discriminator 1
	movl	(%r8,%rsi), %edx
	jmp	.L22
.LVL31:
.L32:
	.loc 2 23 0 is_stmt 1
	movl	0(%rbp), %edx
	cmpl	%edi, %edx
	jnb	.L24
	.loc 2 23 0 is_stmt 0 discriminator 1
	movl	$0, 0(%rbp)
	jmp	.L25
.LVL32:
.L20:
	.loc 2 23 0
	movl	0(%rbp), %edx
.LVL33:
.L24:
	.loc 2 24 0 is_stmt 1
	subl	%edi, %edx
	movl	%edx, 0(%rbp)
	jmp	.L25
.LVL34:
.L28:
	.cfi_def_cfa_offset 8
	.cfi_restore 3
	.cfi_restore 6
	.cfi_restore 12
	.cfi_restore 13
	.cfi_restore 14
	.cfi_restore 15
.LBE522:
.LBE523:
.LBE518:
.LBE524:
	.loc 2 31 0
	rep ret
	.cfi_endproc
.LFE519:
	.size	_ZL4hashPjS_ji, .-_ZL4hashPjS_ji
	.type	_ZL9mark_rooti, @function
_ZL9mark_rooti:
.LFB565:
	.file 3 "/home/adilla/Documents/VmMic/Tools/OMicroBPIC32/src/byterun/vm/mark-and-compact.c"
	.loc 3 87 0
	.cfi_startproc
.LVL35:
.LBB538:
	.loc 3 88 0
	testb	$3, %dil
	jne	.L33
	.loc 3 88 0 is_stmt 0 discriminator 1
	movl	%edi, %eax
	shrl	$20, %eax
	cmpw	$2044, %ax
	je	.L46
.LVL36:
.L33:
.LBE538:
	.loc 3 98 0 is_stmt 1
	rep ret
.LVL37:
.L46:
.LBB560:
.LBB539:
	.loc 3 89 0
	sall	$12, %edi
.LVL38:
	sarl	$12, %edi
	movslq	%edi, %rdi
	leaq	ocaml_ram_heap(%rip), %rax
	leaq	-4(%rax,%rdi), %rsi
	movl	(%rsi), %ecx
.LVL39:
	.loc 3 90 0
	testb	$3, %cl
	jne	.L33
	.loc 3 91 0
	movl	%ecx, %eax
	sarl	$24, %eax
	cmpb	$-6, %al
	jbe	.L47
.L35:
	.loc 3 95 0
	orl	$2, %ecx
.LVL40:
	movl	%ecx, (%rsi)
.LBE539:
.LBE560:
	.loc 3 98 0
	jmp	.L33
.LVL41:
.L47:
.LBB561:
.LBB559:
	.loc 3 92 0
	movl	$2143289346, (%rsi)
	.loc 3 93 0
	movl	%ecx, %eax
	sarl	$2, %eax
	andl	$4194303, %eax
	leal	-1(%rax), %eax
	leaq	(%rdi,%rax,4), %rdx
	leaq	ocaml_ram_heap(%rip), %rax
	addq	%rax, %rdx
.LVL42:
.LBB540:
.LBB541:
	.loc 3 32 0
	movl	(%rdx), %eax
.LVL43:
	.loc 3 33 0
	cmpl	$2143289346, %eax
	je	.L35
.LBB542:
.LBB543:
.LBB544:
.LBB545:
	.loc 3 50 0
	leaq	ocaml_ram_heap(%rip), %r8
	jmp	.L44
.L49:
.LBE545:
.LBE544:
	.loc 3 34 0
	movl	%eax, %edi
	shrl	$22, %edi
	cmpw	$511, %di
	je	.L48
.L37:
.LBB551:
	.loc 3 77 0
	subq	$4, %rdx
.LVL44:
.L39:
.LBE551:
.LBE543:
	.loc 3 80 0
	movl	(%rdx), %eax
.LVL45:
.LBE542:
	.loc 3 33 0
	cmpl	$2143289346, %eax
	je	.L35
.L44:
.LBB558:
.LBB557:
	.loc 3 34 0
	movl	%eax, %edi
	andl	$3, %edi
	cmpl	$2, %edi
	je	.L49
.LBB552:
	.loc 3 49 0
	testl	%edi, %edi
	jne	.L37
	movl	%eax, %edi
	shrl	$20, %edi
	cmpw	$2044, %di
	jne	.L37
.LBB549:
	.loc 3 50 0
	sall	$12, %eax
.LVL46:
	sarl	$12, %eax
	cltq
	leaq	-4(%rax), %r9
	leaq	(%r9,%r8), %r10
	movl	(%r10), %edi
.LVL47:
	.loc 3 51 0
	movl	%edi, %r11d
	sarl	$24, %r11d
.LVL48:
.LBB546:
	.loc 3 52 0
	cmpb	$-7, %r11b
	je	.L50
	.loc 3 63 0
	testb	$3, %dil
	jne	.L42
	.loc 3 64 0
	cmpb	$-6, %r11b
	ja	.L43
	.loc 3 65 0
	movl	%edi, %r9d
	orl	$2, %r9d
	movl	%r9d, (%rdx)
	.loc 3 66 0
	subq	%r8, %rdx
.LVL49:
	orl	$2143289346, %edx
	movl	%edx, (%r10)
	.loc 3 67 0
	sarl	$2, %edi
.LVL50:
	andl	$4194303, %edi
	leal	-1(%rdi), %edx
	leaq	(%rax,%rdx,4), %rdx
	addq	%r8, %rdx
.LVL51:
	jmp	.L39
.LVL52:
.L48:
.LBE546:
.LBE549:
.LBE552:
.LBB553:
	.loc 3 35 0
	sall	$12, %eax
.LVL53:
	sarl	$12, %eax
	xorl	$2, %eax
	cltq
	addq	%r8, %rax
.LVL54:
	.loc 3 36 0
	movl	(%rax), %r9d
.LVL55:
.LBB554:
	.loc 3 37 0
	movl	%r9d, %edi
	andl	$3, %edi
	cmpl	$1, %edi
	je	.L51
	.loc 3 44 0
	movl	%r9d, (%rdx)
	.loc 3 45 0
	addq	$4, %rdx
.LVL56:
	subq	%r8, %rdx
.LVL57:
	orl	$2143289344, %edx
	movl	%edx, (%rax)
	.loc 3 46 0
	leaq	-4(%rax), %rdx
.LVL58:
	jmp	.L39
.L51:
.LBB555:
	.loc 3 38 0
	movl	%r9d, %edi
	sarl	$2, %edi
	andl	$4194303, %edi
	leaq	(%rdx,%rdi,4), %rdi
.LVL59:
	.loc 3 39 0
	movl	(%rdi), %r10d
	xorl	$1, %r10d
	movl	%r10d, (%rdx)
	.loc 3 40 0
	movl	%r9d, (%rdi)
	.loc 3 41 0
	addq	$4, %rdi
.LVL60:
	subq	%r8, %rdi
.LVL61:
	orl	$2143289344, %edi
	movl	%edi, (%rax)
	.loc 3 42 0
	leaq	-4(%rax), %rdx
.LVL62:
	jmp	.L39
.LVL63:
.L50:
.LBE555:
.LBE554:
.LBE553:
.LBB556:
.LBB550:
.LBB548:
.LBB547:
	.loc 3 53 0
	movl	%edi, %eax
	sarl	$2, %eax
	andl	$4194303, %eax
	salq	$2, %rax
	subq	%rax, %r9
	leaq	(%r9,%r8), %rax
.LVL64:
	.loc 3 54 0
	movl	(%rax), %r9d
.LVL65:
	.loc 3 55 0
	testb	$3, %r9b
	jne	.L41
	.loc 3 56 0
	movl	%edi, (%rdx)
	.loc 3 57 0
	movl	%r9d, %edi
.LVL66:
	orl	$3, %edi
	movl	%edi, (%r10)
.LVL67:
	.loc 3 58 0
	subq	%r8, %rdx
.LVL68:
	orl	$2143289346, %edx
	movl	%edx, (%rax)
	.loc 3 59 0
	sarl	$2, %r9d
.LVL69:
	andl	$4194303, %r9d
	leaq	(%rax,%r9,4), %rdx
.LVL70:
	jmp	.L39
.LVL71:
.L41:
	.loc 3 61 0
	subq	$4, %rdx
.LVL72:
	jmp	.L39
.LVL73:
.L43:
.LBE547:
	.loc 3 69 0
	orl	$2, %edi
.LVL74:
	movl	%edi, (%r10)
.LVL75:
	.loc 3 70 0
	subq	$4, %rdx
.LVL76:
	jmp	.L39
.LVL77:
.L42:
	.loc 3 73 0
	subq	$4, %rdx
.LVL78:
	jmp	.L39
.LBE548:
.LBE550:
.LBE556:
.LBE557:
.LBE558:
.LBE541:
.LBE540:
.LBE559:
.LBE561:
	.cfi_endproc
.LFE565:
	.size	_ZL9mark_rooti, .-_ZL9mark_rooti
	.type	_ZL15reverse_pointerPi, @function
_ZL15reverse_pointerPi:
.LFB568:
	.loc 3 172 0
	.cfi_startproc
.LVL79:
	.loc 3 173 0
	movl	(%rdi), %eax
.LVL80:
	.loc 3 174 0
	testb	$3, %al
	jne	.L52
	.loc 3 174 0 is_stmt 0 discriminator 1
	movl	%eax, %edx
	shrl	$20, %edx
	cmpw	$2044, %dx
	je	.L54
.LVL81:
.L52:
	.loc 3 180 0 is_stmt 1
	rep ret
.LVL82:
.L54:
	.loc 3 176 0
	sall	$12, %eax
.LVL83:
	sarl	$12, %eax
	cltq
	leaq	ocaml_ram_heap(%rip), %rcx
	leaq	-4(%rcx,%rax), %rdx
	movl	(%rdx), %eax
	orl	$1, %eax
	movl	%eax, (%rdi)
.LVL84:
	.loc 3 178 0
	subq	%rcx, %rdi
.LVL85:
	orl	$2143289346, %edi
.LVL86:
	movl	%edi, (%rdx)
	.loc 3 180 0
	jmp	.L52
	.cfi_endproc
.LFE568:
	.size	_ZL15reverse_pointerPi, .-_ZL15reverse_pointerPi
	.type	_ZL11random_turnv, @function
_ZL11random_turnv:
.LFB593:
	.file 4 "/home/adilla/Documents/VmMic/Tools/OMicroBPIC32/src/byterun/vm/../stdlib/random.c"
	.loc 4 9 0
	.cfi_startproc
	.loc 4 10 0
	movl	_ZL9random_n0(%rip), %eax
	movl	%eax, %edx
	addl	_ZL9random_n2(%rip), %edx
.LVL87:
	.loc 4 11 0
	movl	_ZL9random_n1(%rip), %ecx
	movl	%ecx, _ZL9random_n2(%rip)
	.loc 4 12 0
	movl	%eax, _ZL9random_n1(%rip)
	.loc 4 13 0
	movl	%edx, _ZL9random_n0(%rip)
	.loc 4 14 0
	ret
	.cfi_endproc
.LFE593:
	.size	_ZL11random_turnv, .-_ZL11random_turnv
	.section	.rodata.str1.1,"aMS",@progbits,1
.LC0:
	.string	"Invalid instruction: '%s'\n"
	.text
	.type	_ZL13invalid_instrPc, @function
_ZL13invalid_instrPc:
.LFB143:
	.loc 1 482 0
	.cfi_startproc
.LVL88:
	subq	$8, %rsp
	.cfi_def_cfa_offset 16
	movq	%rdi, %rcx
.LVL89:
.LBB562:
.LBB563:
	.file 5 "/usr/include/x86_64-linux-gnu/bits/stdio2.h"
	.loc 5 98 0
	leaq	.LC0(%rip), %rdx
	movl	$1, %esi
	movq	stderr(%rip), %rdi
.LVL90:
	movl	$0, %eax
	call	__fprintf_chk@PLT
.LVL91:
.LBE563:
.LBE562:
	.loc 1 484 0
	addq	$8, %rsp
	.cfi_def_cfa_offset 8
	ret
	.cfi_endproc
.LFE143:
	.size	_ZL13invalid_instrPc, .-_ZL13invalid_instrPc
	.type	_ZL9may_sleepv, @function
_ZL9may_sleepv:
.LFB122:
	.loc 1 139 0
	.cfi_startproc
	pushq	%rbx
	.cfi_def_cfa_offset 16
	.cfi_offset 3, -16
	subq	$32, %rsp
	.cfi_def_cfa_offset 48
	.loc 1 139 0
	movq	%fs:40, %rax
	movq	%rax, 24(%rsp)
	xorl	%eax, %eax
.LBB574:
	.loc 1 141 0
	cmpl	$0, _ZL7is_slow(%rip)
	jne	.L62
.L58:
.LBE574:
	.loc 1 149 0
	movq	24(%rsp), %rax
	xorq	%fs:40, %rax
	jne	.L63
	addq	$32, %rsp
	.cfi_remember_state
	.cfi_def_cfa_offset 16
	popq	%rbx
	.cfi_def_cfa_offset 8
	ret
.L62:
	.cfi_restore_state
.LBB584:
.LBB575:
.LBB576:
.LBB577:
	.loc 1 136 0
	call	clock@PLT
.LVL92:
	imulq	$1000000, %rax, %rdx
	.loc 1 136 0
	movabsq	$4835703278458516699, %rcx
	movq	%rdx, %rax
	mulq	%rcx
	shrq	$18, %rdx
.LBE577:
.LBE576:
.LBB578:
	.loc 1 143 0
	subq	_ZZL9may_sleepvE8mem_elpt(%rip), %rdx
	cmpq	$100, %rdx
	jbe	.L58
.LBB579:
	.loc 1 144 0
	leaq	0(,%rdx,4), %rcx
.LVL93:
.LBB580:
.LBB581:
	.loc 1 130 0
	movabsq	$4835703278458516699, %rbx
	movq	%rcx, %rax
	mulq	%rbx
	shrq	$18, %rdx
	movq	%rdx, (%rsp)
	.loc 1 131 0
	imulq	$1000, %rcx, %rcx
.LVL94:
	movq	%rcx, %rdx
	shrq	$9, %rdx
	movabsq	$19342813113834067, %rsi
	movq	%rdx, %rax
	mulq	%rsi
	shrq	$11, %rdx
	imulq	$1000000000, %rdx, %rdx
	subq	%rdx, %rcx
	movq	%rcx, 8(%rsp)
	.loc 1 132 0
	movq	%rsp, %rdi
	movl	$0, %esi
	call	nanosleep@PLT
.LVL95:
.LBE581:
.LBE580:
.LBB582:
.LBB583:
	.loc 1 136 0
	call	clock@PLT
.LVL96:
	imulq	$1000000, %rax, %rdx
	.loc 1 136 0
	movq	%rdx, %rax
	mulq	%rbx
	shrq	$18, %rdx
	movq	%rdx, _ZZL9may_sleepvE8mem_elpt(%rip)
.LBE583:
.LBE582:
.LBE579:
.LBE578:
.LBE575:
.LBE584:
	.loc 1 149 0
	jmp	.L58
.L63:
	call	__stack_chk_fail@PLT
.LVL97:
	.cfi_endproc
.LFE122:
	.size	_ZL9may_sleepv, .-_ZL9may_sleepv
	.globl	_Z7signalsv
	.type	_Z7signalsv, @function
_Z7signalsv:
.LFB104:
	.file 6 "/home/adilla/Documents/VmMic/Tools/OMicroBPIC32/src/byterun/simul/simul.c"
	.loc 6 51 0
	.cfi_startproc
	subq	$8, %rsp
	.cfi_def_cfa_offset 16
	.loc 6 52 0
	leaq	_Z14signal_handleri(%rip), %rsi
	movl	$2, %edi
	call	signal@PLT
.LVL98:
	.loc 6 53 0
	leaq	_Z14signal_handleri(%rip), %rsi
	movl	$13, %edi
	call	signal@PLT
.LVL99:
	.loc 6 54 0
	leaq	_Z14signal_handleri(%rip), %rsi
	movl	$11, %edi
	call	signal@PLT
.LVL100:
	.loc 6 55 0
	addq	$8, %rsp
	.cfi_def_cfa_offset 8
	ret
	.cfi_endproc
.LFE104:
	.size	_Z7signalsv, .-_Z7signalsv
	.globl	_Z7is_stopPci
	.type	_Z7is_stopPci, @function
_Z7is_stopPci:
.LFB105:
	.loc 6 57 0
	.cfi_startproc
.LVL101:
	.loc 6 62 0
	movl	$0, %eax
	cmpl	$4, %esi
	je	.L72
.L67:
	.loc 6 63 0
	movzbl	%al, %eax
	.loc 6 64 0
	ret
.L72:
	.loc 6 60 0
	movzbl	(%rdi), %edx
	andl	$-33, %edx
	.loc 6 59 0
	cmpb	$83, %dl
	jne	.L67
	.loc 6 61 0
	movzbl	1(%rdi), %edx
	andl	$-33, %edx
	.loc 6 60 0
	cmpb	$84, %dl
	jne	.L67
	.loc 6 62 0
	movzbl	2(%rdi), %edx
	andl	$-33, %edx
	.loc 6 61 0
	cmpb	$79, %dl
	jne	.L67
	.loc 6 63 0 discriminator 3
	movzbl	3(%rdi), %eax
	andl	$-33, %eax
	.loc 6 62 0 discriminator 3
	cmpb	$80, %al
	sete	%al
	jmp	.L67
	.cfi_endproc
.LFE105:
	.size	_Z7is_stopPci, .-_Z7is_stopPci
	.section	.rodata.str1.1
.LC1:
	.string	"Error: semget()\n"
.LC2:
	.string	"Error: semctl()\n"
	.text
	.globl	_Z10create_semi
	.type	_Z10create_semi, @function
_Z10create_semi:
.LFB110:
	.file 7 "/home/adilla/Documents/VmMic/Tools/OMicroBPIC32/src/byterun/simul/shared.c"
	.loc 7 12 0
	.cfi_startproc
.LVL102:
	pushq	%rbp
	.cfi_def_cfa_offset 16
	.cfi_offset 6, -16
	pushq	%rbx
	.cfi_def_cfa_offset 24
	.cfi_offset 3, -24
	subq	$8, %rsp
	.cfi_def_cfa_offset 32
	movl	%edi, %ebp
	.loc 7 13 0
	movl	$896, %edx
	movl	$1, %esi
	movl	$0, %edi
.LVL103:
	call	semget@PLT
.LVL104:
	.loc 7 14 0
	cmpl	$-1, %eax
	je	.L77
	movl	%eax, %ebx
	.loc 7 18 0
	movl	%ebp, %ecx
	movl	$16, %edx
	movl	$0, %esi
	movl	%eax, %edi
	movl	$0, %eax
.LVL105:
	call	semctl@PLT
.LVL106:
	cmpl	$-1, %eax
	je	.L78
	.loc 7 23 0
	movl	%ebx, %eax
	addq	$8, %rsp
	.cfi_remember_state
	.cfi_def_cfa_offset 24
	popq	%rbx
	.cfi_def_cfa_offset 16
.LVL107:
	popq	%rbp
	.cfi_def_cfa_offset 8
.LVL108:
	ret
.LVL109:
.L77:
	.cfi_restore_state
.LBB585:
.LBB586:
	.loc 5 98 0
	leaq	.LC1(%rip), %rdx
	movl	$1, %esi
	movq	stderr(%rip), %rdi
	movl	$0, %eax
.LVL110:
	call	__fprintf_chk@PLT
.LVL111:
.LBE586:
.LBE585:
	.loc 7 16 0
	movl	$1, %edi
	call	exit@PLT
.LVL112:
.L78:
.LBB587:
.LBB588:
	.loc 5 98 0
	leaq	.LC2(%rip), %rdx
	movl	$1, %esi
	movq	stderr(%rip), %rdi
	movl	$0, %eax
	call	__fprintf_chk@PLT
.LVL113:
.LBE588:
.LBE587:
	.loc 7 20 0
	movl	$1, %edi
	call	exit@PLT
.LVL114:
	.cfi_endproc
.LFE110:
	.size	_Z10create_semi, .-_Z10create_semi
	.globl	_Z11destroy_semi
	.type	_Z11destroy_semi, @function
_Z11destroy_semi:
.LFB111:
	.loc 7 25 0
	.cfi_startproc
.LVL115:
	subq	$8, %rsp
	.cfi_def_cfa_offset 16
	.loc 7 26 0
	movl	$0, %ecx
	movl	$0, %edx
	movl	$0, %esi
	movl	$0, %eax
	call	semctl@PLT
.LVL116:
	cmpl	$-1, %eax
	je	.L82
	.loc 7 30 0
	addq	$8, %rsp
	.cfi_remember_state
	.cfi_def_cfa_offset 8
	ret
.L82:
	.cfi_restore_state
.LVL117:
.LBB589:
.LBB590:
	.loc 5 98 0
	leaq	.LC2(%rip), %rdx
	movl	$1, %esi
	movq	stderr(%rip), %rdi
	movl	$0, %eax
	call	__fprintf_chk@PLT
.LVL118:
.LBE590:
.LBE589:
	.loc 7 28 0
	movl	$1, %edi
	call	exit@PLT
.LVL119:
	.cfi_endproc
.LFE111:
	.size	_Z11destroy_semi, .-_Z11destroy_semi
	.section	.rodata.str1.1
.LC3:
	.string	"Error: shmget()\n"
.LC4:
	.string	"Error: shmat()\n"
.LC5:
	.string	"Error: shmctl()\n"
	.text
	.globl	_Z9alloc_shmm
	.type	_Z9alloc_shmm, @function
_Z9alloc_shmm:
.LFB112:
	.loc 7 32 0
	.cfi_startproc
.LVL120:
	pushq	%rbp
	.cfi_def_cfa_offset 16
	.cfi_offset 6, -16
	pushq	%rbx
	.cfi_def_cfa_offset 24
	.cfi_offset 3, -24
	subq	$8, %rsp
	.cfi_def_cfa_offset 32
.LBB591:
	.loc 7 33 0
	testq	%rdi, %rdi
	je	.L87
	movq	%rdi, %rsi
.LBB592:
	.loc 7 36 0
	movl	$896, %edx
	movl	$0, %edi
.LVL121:
	call	shmget@PLT
.LVL122:
	movl	%eax, %ebx
.LVL123:
	.loc 7 38 0
	cmpl	$-1, %eax
	je	.L89
	.loc 7 42 0
	movl	$0, %edx
	movl	$0, %esi
	movl	%eax, %edi
	call	shmat@PLT
.LVL124:
	movq	%rax, %rbp
.LVL125:
	.loc 7 43 0
	testq	%rax, %rax
	je	.L90
	.loc 7 47 0
	movl	$0, %edx
	movl	$0, %esi
	movl	%ebx, %edi
	call	shmctl@PLT
.LVL126:
	cmpl	$-1, %eax
	je	.L91
.LVL127:
.L83:
.LBE592:
.LBE591:
	.loc 7 50 0
	movq	%rbp, %rax
	addq	$8, %rsp
	.cfi_remember_state
	.cfi_def_cfa_offset 24
	popq	%rbx
	.cfi_def_cfa_offset 16
	popq	%rbp
	.cfi_def_cfa_offset 8
	ret
.LVL128:
.L89:
	.cfi_restore_state
.LBB600:
.LBB599:
.LBB593:
.LBB594:
	.loc 5 98 0
	leaq	.LC3(%rip), %rdx
	movl	$1, %esi
	movq	stderr(%rip), %rdi
	movl	$0, %eax
.LVL129:
	call	__fprintf_chk@PLT
.LVL130:
.LBE594:
.LBE593:
	.loc 7 40 0
	movl	$1, %edi
	call	exit@PLT
.LVL131:
.L90:
.LBB595:
.LBB596:
	.loc 5 98 0
	leaq	.LC4(%rip), %rdx
	movl	$1, %esi
	movq	stderr(%rip), %rdi
	movl	$0, %eax
.LVL132:
	call	__fprintf_chk@PLT
.LVL133:
.LBE596:
.LBE595:
	.loc 7 45 0
	movl	$1, %edi
	call	exit@PLT
.LVL134:
.L91:
.LBB597:
.LBB598:
	.loc 5 98 0 discriminator 1
	leaq	.LC5(%rip), %rdx
	movl	$1, %esi
	movq	stderr(%rip), %rdi
	movl	$0, %eax
	call	__fprintf_chk@PLT
.LVL135:
	jmp	.L83
.LVL136:
.L87:
.LBE598:
.LBE597:
.LBE599:
	.loc 7 34 0
	movl	$0, %ebp
	jmp	.L83
.LBE600:
	.cfi_endproc
.LFE112:
	.size	_Z9alloc_shmm, .-_Z9alloc_shmm
	.section	.rodata.str1.1
.LC6:
	.string	"Error: semop()\n"
	.text
	.globl	_Z1Pi
	.type	_Z1Pi, @function
_Z1Pi:
.LFB113:
	.loc 7 52 0
	.cfi_startproc
.LVL137:
	subq	$24, %rsp
	.cfi_def_cfa_offset 32
	.loc 7 52 0
	movq	%fs:40, %rax
	movq	%rax, 8(%rsp)
	xorl	%eax, %eax
	.loc 7 54 0
	movw	$0, 2(%rsp)
	.loc 7 55 0
	movw	$-1, 4(%rsp)
	.loc 7 56 0
	movw	$0, 6(%rsp)
	.loc 7 57 0
	leaq	2(%rsp), %rsi
	movl	$1, %edx
	call	semop@PLT
.LVL138:
	cmpl	$-1, %eax
	je	.L96
	.loc 7 61 0
	movq	8(%rsp), %rax
	xorq	%fs:40, %rax
	jne	.L97
	addq	$24, %rsp
	.cfi_remember_state
	.cfi_def_cfa_offset 8
	ret
.L96:
	.cfi_restore_state
.LVL139:
.LBB601:
.LBB602:
	.loc 5 98 0
	leaq	.LC6(%rip), %rdx
	movl	$1, %esi
	movq	stderr(%rip), %rdi
	movl	$0, %eax
	call	__fprintf_chk@PLT
.LVL140:
.LBE602:
.LBE601:
	.loc 7 59 0
	movl	$1, %edi
	call	exit@PLT
.LVL141:
.L97:
	.loc 7 61 0
	call	__stack_chk_fail@PLT
.LVL142:
	.cfi_endproc
.LFE113:
	.size	_Z1Pi, .-_Z1Pi
	.globl	_Z1Vi
	.type	_Z1Vi, @function
_Z1Vi:
.LFB114:
	.loc 7 63 0
	.cfi_startproc
.LVL143:
	subq	$24, %rsp
	.cfi_def_cfa_offset 32
	.loc 7 63 0
	movq	%fs:40, %rax
	movq	%rax, 8(%rsp)
	xorl	%eax, %eax
	.loc 7 65 0
	movw	$0, 2(%rsp)
	.loc 7 66 0
	movw	$1, 4(%rsp)
	.loc 7 67 0
	movw	$0, 6(%rsp)
	.loc 7 68 0
	leaq	2(%rsp), %rsi
	movl	$1, %edx
	call	semop@PLT
.LVL144:
	cmpl	$-1, %eax
	je	.L102
	.loc 7 72 0
	movq	8(%rsp), %rax
	xorq	%fs:40, %rax
	jne	.L103
	addq	$24, %rsp
	.cfi_remember_state
	.cfi_def_cfa_offset 8
	ret
.L102:
	.cfi_restore_state
.LVL145:
.LBB603:
.LBB604:
	.loc 5 98 0
	leaq	.LC6(%rip), %rdx
	movl	$1, %esi
	movq	stderr(%rip), %rdi
	movl	$0, %eax
	call	__fprintf_chk@PLT
.LVL146:
.LBE604:
.LBE603:
	.loc 7 70 0
	movl	$1, %edi
	call	exit@PLT
.LVL147:
.L103:
	.loc 7 72 0
	call	__stack_chk_fail@PLT
.LVL148:
	.cfi_endproc
.LFE114:
	.size	_Z1Vi, .-_Z1Vi
	.globl	_Z13send_all_procPKci
	.type	_Z13send_all_procPKci, @function
_Z13send_all_procPKci:
.LFB108:
	.loc 6 131 0
	.cfi_startproc
.LVL149:
	pushq	%r15
	.cfi_def_cfa_offset 16
	.cfi_offset 15, -16
	pushq	%r14
	.cfi_def_cfa_offset 24
	.cfi_offset 14, -24
	pushq	%r13
	.cfi_def_cfa_offset 32
	.cfi_offset 13, -32
	pushq	%r12
	.cfi_def_cfa_offset 40
	.cfi_offset 12, -40
	pushq	%rbp
	.cfi_def_cfa_offset 48
	.cfi_offset 6, -48
	pushq	%rbx
	.cfi_def_cfa_offset 56
	.cfi_offset 3, -56
	subq	$8, %rsp
	.cfi_def_cfa_offset 64
	movq	%rdi, %r15
	movl	%esi, %r14d
	.loc 6 133 0
	movl	_ZL8sem_outs(%rip), %edi
.LVL150:
	call	_Z1Pi
.LVL151:
.LBB605:
	.loc 6 134 0
	cmpl	$0, _ZL7nb_proc(%rip)
	jle	.L105
	movl	$0, %r13d
	jmp	.L108
.LVL152:
.L106:
	.loc 6 134 0 is_stmt 0 discriminator 2
	addl	$1, %r13d
.LVL153:
	cmpl	%r13d, _ZL7nb_proc(%rip)
	jle	.L105
.LVL154:
.L108:
.LBB606:
	.loc 6 137 0 is_stmt 1
	testl	%r14d, %r14d
	jle	.L106
.LBB607:
	.loc 6 138 0
	movslq	%r13d, %r12
	salq	$2, %r12
.LBE607:
	.loc 6 136 0
	movq	%r15, %rbp
	.loc 6 135 0
	movl	%r14d, %ebx
.LVL155:
.L107:
.LBB608:
	.loc 6 138 0
	movslq	%ebx, %rdx
	movq	_ZL4outs(%rip), %rax
	movl	(%rax,%r12), %edi
	movq	%rbp, %rsi
	call	write@PLT
.LVL156:
	.loc 6 139 0
	testl	%eax, %eax
	jle	.L106
	.loc 6 140 0
	subl	%eax, %ebx
.LVL157:
	.loc 6 141 0
	cltq
	addq	%rax, %rbp
.LVL158:
.LBE608:
	.loc 6 137 0
	testl	%ebx, %ebx
	jg	.L107
	jmp	.L106
.LVL159:
.L105:
.LBE606:
.LBE605:
	.loc 6 144 0
	movl	_ZL8sem_outs(%rip), %edi
	call	_Z1Vi
.LVL160:
	.loc 6 145 0
	addq	$8, %rsp
	.cfi_def_cfa_offset 56
	popq	%rbx
	.cfi_def_cfa_offset 48
	popq	%rbp
	.cfi_def_cfa_offset 40
	popq	%r12
	.cfi_def_cfa_offset 32
	popq	%r13
	.cfi_def_cfa_offset 24
	popq	%r14
	.cfi_def_cfa_offset 16
.LVL161:
	popq	%r15
	.cfi_def_cfa_offset 8
.LVL162:
	ret
	.cfi_endproc
.LFE108:
	.size	_Z13send_all_procPKci, .-_Z13send_all_procPKci
	.type	_ZL10send_writecih, @function
_ZL10send_writecih:
.LFB123:
	.loc 1 153 0
	.cfi_startproc
.LVL163:
	pushq	%rbx
	.cfi_def_cfa_offset 16
	.cfi_offset 3, -16
	subq	$16, %rsp
	.cfi_def_cfa_offset 32
	movl	%edx, %ebx
	.loc 1 153 0
	movq	%fs:40, %rax
	movq	%rax, 8(%rsp)
	xorl	%eax, %eax
	.loc 1 155 0
	movb	%dil, 3(%rsp)
	.loc 1 156 0
	addl	$65, %esi
.LVL164:
	movb	%sil, 4(%rsp)
	.loc 1 157 0
	movl	%edx, %edi
.LVL165:
	shrb	$4, %dil
	movzbl	%dil, %edi
	call	_ZL14hexchar_of_inti
.LVL166:
	movb	%al, 5(%rsp)
	.loc 1 158 0
	andl	$15, %ebx
	movl	%ebx, %edi
	call	_ZL14hexchar_of_inti
.LVL167:
	movb	%al, 6(%rsp)
	.loc 1 159 0
	movb	$10, 7(%rsp)
	.loc 1 160 0
	leaq	3(%rsp), %rdi
	movl	$5, %esi
	call	_Z13send_all_procPKci
.LVL168:
	.loc 1 161 0
	movq	8(%rsp), %rax
	xorq	%fs:40, %rax
	jne	.L115
	addq	$16, %rsp
	.cfi_remember_state
	.cfi_def_cfa_offset 16
	popq	%rbx
	.cfi_def_cfa_offset 8
	ret
.L115:
	.cfi_restore_state
	call	__stack_chk_fail@PLT
.LVL169:
	.cfi_endproc
.LFE123:
	.size	_ZL10send_writecih, .-_ZL10send_writecih
	.section	.rodata.str1.1
.LC7:
	.string	"SYNC\n"
	.text
	.type	_ZL11synchronizev, @function
_ZL11synchronizev:
.LFB127:
	.loc 1 205 0
	.cfi_startproc
	subq	$8, %rsp
	.cfi_def_cfa_offset 16
	.loc 1 206 0
	movl	_ZL8sem_sync(%rip), %edi
	call	_Z1Pi
.LVL170:
	.loc 1 207 0
	movq	_ZL12sync_counter(%rip), %rax
	movl	_ZL7proc_nb(%rip), %edx
	movl	%edx, (%rax)
	.loc 1 208 0
	movl	_ZL8sem_sync(%rip), %edi
	call	_Z1Vi
.LVL171:
	.loc 1 209 0
	movl	$5, %esi
	leaq	.LC7(%rip), %rdi
	call	_Z13send_all_procPKci
.LVL172:
	.loc 1 210 0
	cmpl	$0, _ZL7proc_nb(%rip)
	jne	.L119
.L117:
	.loc 1 211 0
	call	_ZL9may_sleepv
.LVL173:
	.loc 1 212 0
	addq	$8, %rsp
	.cfi_remember_state
	.cfi_def_cfa_offset 8
	ret
.L119:
	.cfi_restore_state
	.loc 1 210 0 discriminator 1
	movl	_ZL8sem_done(%rip), %edi
	call	_Z1Pi
.LVL174:
	jmp	.L117
	.cfi_endproc
.LFE127:
	.size	_ZL11synchronizev, .-_ZL11synchronizev
	.globl	_Z9init_regsii
	.type	_Z9init_regsii, @function
_Z9init_regsii:
.LFB115:
	.loc 1 82 0
	.cfi_startproc
.LVL175:
	pushq	%rbp
	.cfi_def_cfa_offset 16
	.cfi_offset 6, -16
	pushq	%rbx
	.cfi_def_cfa_offset 24
	.cfi_offset 3, -24
	subq	$8, %rsp
	.cfi_def_cfa_offset 32
	movl	%edi, %ebx
	movl	%esi, %ebp
	.loc 1 84 0
	movl	$255, %edi
.LVL176:
	call	_Z9alloc_shmm
.LVL177:
	movq	%rax, _ZL4regs(%rip)
	.loc 1 85 0
	movl	$64, %edi
	call	_Z9alloc_shmm
.LVL178:
	movq	%rax, _ZL7analogs(%rip)
	.loc 1 86 0
	movl	$4, %edi
	call	_Z9alloc_shmm
.LVL179:
	movq	%rax, _ZL12sync_counter(%rip)
	.loc 1 87 0
	movl	$0, (%rax)
	.loc 1 88 0
	movl	%ebp, _ZL7is_slow(%rip)
	.loc 1 89 0
	movl	$1, %edi
	call	_Z10create_semi
.LVL180:
	movl	%eax, _ZL8sem_regs(%rip)
	.loc 1 90 0
	movl	$1, %edi
	call	_Z10create_semi
.LVL181:
	movl	%eax, _ZL8sem_sync(%rip)
	.loc 1 91 0
	movl	$0, %edi
	call	_Z10create_semi
.LVL182:
	movl	%eax, _ZL8sem_done(%rip)
	.loc 1 92 0
	movl	%ebx, _ZL7proc_nb(%rip)
.LVL183:
	movq	_ZL4regs(%rip), %rax
	leaq	255(%rax), %rdx
.LVL184:
.L121:
	.loc 1 93 0 discriminator 2
	movb	$0, (%rax)
.LVL185:
	addq	$1, %rax
.LVL186:
	cmpq	%rdx, %rax
	jne	.L121
	.loc 1 94 0
	addq	$8, %rsp
	.cfi_def_cfa_offset 24
	popq	%rbx
	.cfi_def_cfa_offset 16
.LVL187:
	popq	%rbp
	.cfi_def_cfa_offset 8
.LVL188:
	ret
	.cfi_endproc
.LFE115:
	.size	_Z9init_regsii, .-_Z9init_regsii
	.globl	_Z12destroy_regsv
	.type	_Z12destroy_regsv, @function
_Z12destroy_regsv:
.LFB116:
	.loc 1 96 0
	.cfi_startproc
	subq	$8, %rsp
	.cfi_def_cfa_offset 16
	.loc 1 97 0
	movl	_ZL8sem_regs(%rip), %edi
	call	_Z11destroy_semi
.LVL189:
	.loc 1 98 0
	movl	_ZL8sem_sync(%rip), %edi
	call	_Z11destroy_semi
.LVL190:
	.loc 1 99 0
	movl	_ZL8sem_done(%rip), %edi
	call	_Z11destroy_semi
.LVL191:
	.loc 1 100 0
	addq	$8, %rsp
	.cfi_def_cfa_offset 8
	ret
	.cfi_endproc
.LFE116:
	.size	_Z12destroy_regsv, .-_Z12destroy_regsv
	.section	.rodata.str1.1
.LC8:
	.string	"STOP\n"
	.text
	.globl	_Z7destroyv
	.type	_Z7destroyv, @function
_Z7destroyv:
.LFB100:
	.loc 6 22 0
	.cfi_startproc
	subq	$8, %rsp
	.cfi_def_cfa_offset 16
	.loc 6 23 0
	movl	_ZL8sem_outs(%rip), %edi
	call	_Z1Vi
.LVL192:
	.loc 6 24 0
	movl	$1, %esi
	movl	$13, %edi
	call	signal@PLT
.LVL193:
	.loc 6 25 0
	movl	$5, %esi
	leaq	.LC8(%rip), %rdi
	call	_Z13send_all_procPKci
.LVL194:
	.loc 6 26 0
	call	_Z12destroy_regsv
.LVL195:
	.loc 6 27 0
	movl	_ZL8sem_outs(%rip), %edi
	call	_Z11destroy_semi
.LVL196:
	.loc 6 28 0
	addq	$8, %rsp
	.cfi_def_cfa_offset 8
	ret
	.cfi_endproc
.LFE100:
	.size	_Z7destroyv, .-_Z7destroyv
	.globl	_Z9terminatev
	.type	_Z9terminatev, @function
_Z9terminatev:
.LFB101:
	.loc 6 30 0
	.cfi_startproc
	subq	$8, %rsp
	.cfi_def_cfa_offset 16
	.loc 6 31 0
	call	getpid@PLT
.LVL197:
	.loc 6 32 0
	movl	_ZL8main_pid(%rip), %edi
	cmpl	%eax, %edi
	jne	.L132
.LVL198:
.L129:
	.loc 6 34 0
	cmpl	$0, _ZL9is_parent(%rip)
	jne	.L133
.L130:
	.loc 6 36 0
	movl	$0, %edi
	call	exit@PLT
.LVL199:
.L132:
	.loc 6 33 0
	movl	$2, %esi
	call	kill@PLT
.LVL200:
	jmp	.L129
.L133:
	.loc 6 35 0
	call	_Z7destroyv
.LVL201:
	jmp	.L130
	.cfi_endproc
.LFE101:
	.size	_Z9terminatev, .-_Z9terminatev
	.section	.rodata.str1.1
.LC9:
	.string	"Error: %s\n"
	.text
	.globl	_Z5errorPKc
	.type	_Z5errorPKc, @function
_Z5errorPKc:
.LFB102:
	.loc 6 39 0
	.cfi_startproc
.LVL202:
	subq	$8, %rsp
	.cfi_def_cfa_offset 16
	movq	%rdi, %rcx
.LVL203:
.LBB609:
.LBB610:
	.loc 5 98 0
	leaq	.LC9(%rip), %rdx
	movl	$1, %esi
	movq	stderr(%rip), %rdi
.LVL204:
	movl	$0, %eax
	call	__fprintf_chk@PLT
.LVL205:
.LBE610:
.LBE609:
	.loc 6 41 0
	call	_Z9terminatev
.LVL206:
	.cfi_endproc
.LFE102:
	.size	_Z5errorPKc, .-_Z5errorPKc
	.section	.rodata.str1.1
.LC10:
	.string	"%s!\n"
	.text
	.globl	_Z14signal_handleri
	.type	_Z14signal_handleri, @function
_Z14signal_handleri:
.LFB103:
	.loc 6 44 0
	.cfi_startproc
.LVL207:
	subq	$8, %rsp
	.cfi_def_cfa_offset 16
	.loc 6 45 0
	cmpl	$11, %edi
	je	.L139
.LVL208:
.L137:
	.loc 6 48 0
	call	_Z9terminatev
.LVL209:
.L139:
	.loc 6 46 0
	call	strsignal@PLT
.LVL210:
.LBB611:
.LBB612:
	.loc 5 98 0
	movq	%rax, %rcx
	leaq	.LC10(%rip), %rdx
	movl	$1, %esi
	movq	stderr(%rip), %rdi
	movl	$0, %eax
	call	__fprintf_chk@PLT
.LVL211:
	jmp	.L137
.LBE612:
.LBE611:
	.cfi_endproc
.LFE103:
	.size	_Z14signal_handleri, .-_Z14signal_handleri
	.section	.rodata.str1.1
.LC11:
	.string	"%c: 0b"
.LC12:
	.string	"%d"
.LC13:
	.string	"  = %3d  = 0x%02x\n"
	.text
	.globl	_Z9dump_regsv
	.type	_Z9dump_regsv, @function
_Z9dump_regsv:
.LFB117:
	.loc 1 102 0
	.cfi_startproc
	pushq	%r12
	.cfi_def_cfa_offset 16
	.cfi_offset 12, -16
	pushq	%rbp
	.cfi_def_cfa_offset 24
	.cfi_offset 6, -24
	pushq	%rbx
	.cfi_def_cfa_offset 32
	.cfi_offset 3, -32
	.loc 1 104 0
	movl	_ZL8sem_regs(%rip), %edi
	call	_Z1Pi
.LVL212:
	movl	$0, %ebp
.LBB613:
.LBB614:
	.loc 5 104 0
	leaq	.LC12(%rip), %r12
	jmp	.L142
.LVL213:
.L147:
.LBE614:
.LBE613:
	.loc 1 108 0 discriminator 2
	movq	_ZL4regs(%rip), %rax
	movzbl	(%rax,%rbp), %edx
.LVL214:
.LBB616:
.LBB617:
	.loc 5 104 0 discriminator 2
	movl	%edx, %ecx
	leaq	.LC13(%rip), %rsi
	movl	$1, %edi
	movl	$0, %eax
	call	__printf_chk@PLT
.LVL215:
	addq	$1, %rbp
.LVL216:
.LBE617:
.LBE616:
	.loc 1 105 0 discriminator 2
	cmpq	$11, %rbp
	je	.L146
.LVL217:
.L142:
.LBB618:
.LBB619:
	.loc 5 104 0
	leal	65(%rbp), %edx
	leaq	.LC11(%rip), %rsi
	movl	$1, %edi
	movl	$0, %eax
	call	__printf_chk@PLT
.LVL218:
.LBE619:
.LBE618:
	.loc 1 107 0
	movl	$7, %ebx
.LVL219:
.L141:
	.loc 1 107 0 is_stmt 0 discriminator 2
	movq	_ZL4regs(%rip), %rax
	movzbl	(%rax,%rbp), %edx
	movl	%ebx, %ecx
	sarl	%cl, %edx
	andl	$1, %edx
.LBB620:
.LBB615:
	.loc 5 104 0 is_stmt 1 discriminator 2
	movq	%r12, %rsi
	movl	$1, %edi
	movl	$0, %eax
	call	__printf_chk@PLT
.LVL220:
.LBE615:
.LBE620:
	.loc 1 107 0 discriminator 2
	subl	$1, %ebx
.LVL221:
	cmpl	$-1, %ebx
	jne	.L141
	jmp	.L147
.LVL222:
.L146:
	.loc 1 110 0
	movl	_ZL8sem_regs(%rip), %edi
	call	_Z1Vi
.LVL223:
	.loc 1 111 0
	popq	%rbx
	.cfi_def_cfa_offset 24
.LVL224:
	popq	%rbp
	.cfi_def_cfa_offset 16
	popq	%r12
	.cfi_def_cfa_offset 8
	ret
	.cfi_endproc
.LFE117:
	.size	_Z9dump_regsv, .-_Z9dump_regsv
	.section	.rodata.str1.1
.LC14:
	.string	"millis()\n"
	.text
	.globl	_Z10avr_millisv
	.type	_Z10avr_millisv, @function
_Z10avr_millisv:
.LFB134:
	.loc 1 324 0
	.cfi_startproc
	subq	$8, %rsp
	.cfi_def_cfa_offset 16
.LVL225:
.LBB621:
.LBB622:
	.loc 5 104 0
	leaq	.LC14(%rip), %rsi
	movl	$1, %edi
	movl	$0, %eax
	call	__printf_chk@PLT
.LVL226:
.LBE622:
.LBE621:
	.loc 1 327 0
	movl	$0, %eax
	addq	$8, %rsp
	.cfi_def_cfa_offset 8
	ret
	.cfi_endproc
.LFE134:
	.size	_Z10avr_millisv, .-_Z10avr_millisv
	.section	.rodata.str1.1
.LC15:
	.string	"delay(%d)\n"
	.text
	.globl	_Z9avr_delayi
	.type	_Z9avr_delayi, @function
_Z9avr_delayi:
.LFB135:
	.loc 1 329 0
	.cfi_startproc
.LVL227:
	pushq	%rbx
	.cfi_def_cfa_offset 16
	.cfi_offset 3, -16
	movl	%edi, %ebx
.LVL228:
.LBB623:
.LBB624:
	.loc 5 104 0
	movl	%edi, %edx
	leaq	.LC15(%rip), %rsi
	movl	$1, %edi
.LVL229:
	movl	$0, %eax
	call	__printf_chk@PLT
.LVL230:
.LBE624:
.LBE623:
	.loc 1 331 0
	imull	$1000, %ebx, %edi
	call	usleep@PLT
.LVL231:
	.loc 1 332 0
	popq	%rbx
	.cfi_def_cfa_offset 8
.LVL232:
	ret
	.cfi_endproc
.LFE135:
	.size	_Z9avr_delayi, .-_Z9avr_delayi
	.globl	_Z14caml_avr_delayi
	.type	_Z14caml_avr_delayi, @function
_Z14caml_avr_delayi:
.LFB577:
	.file 8 "/home/adilla/Documents/VmMic/Tools/OMicroBPIC32/src/byterun/vm/../prims/bindings.c"
	.loc 8 31 0
	.cfi_startproc
.LVL233:
	subq	$8, %rsp
	.cfi_def_cfa_offset 16
	.loc 8 32 0
	sarl	%edi
.LVL234:
	call	_Z9avr_delayi
.LVL235:
	.loc 8 34 0
	movl	$1, %eax
	addq	$8, %rsp
	.cfi_def_cfa_offset 8
	ret
	.cfi_endproc
.LFE577:
	.size	_Z14caml_avr_delayi, .-_Z14caml_avr_delayi
	.globl	_Z10avr_randomi
	.type	_Z10avr_randomi, @function
_Z10avr_randomi:
.LFB136:
	.loc 1 334 0
	.cfi_startproc
.LVL236:
	.loc 1 336 0
	movl	$0, %eax
	ret
	.cfi_endproc
.LFE136:
	.size	_Z10avr_randomi, .-_Z10avr_randomi
	.globl	_Z16pic_tris_of_porti
	.type	_Z16pic_tris_of_porti, @function
_Z16pic_tris_of_porti:
.LFB138:
	.loc 1 383 0
	.cfi_startproc
.LVL237:
	.loc 1 396 0
	movl	$1, %eax
	ret
	.cfi_endproc
.LFE138:
	.size	_Z16pic_tris_of_porti, .-_Z16pic_tris_of_porti
	.section	.rodata.str1.1
.LC16:
	.string	"I put %d in analog %d"
.LC17:
	.string	"SET ANALOG %d to %d"
	.section	.rodata.str1.8,"aMS",@progbits,1
	.align 8
.LC18:
	.string	"Warning: an outside component writes PORT%c=0x%02X when TRIS%c=0x%02X\n"
	.align 8
.LC19:
	.string	"Warning: an outside component clears PORT%c.R%c%d when TRIS%c=0x%02X\n"
	.align 8
.LC20:
	.string	"Warning: an outside component sets PORT%c.R%c%d when DDR%c=0x%02X\n"
	.text
	.globl	_Z10exec_instrPci
	.type	_Z10exec_instrPci, @function
_Z10exec_instrPci:
.LFB144:
	.loc 1 486 0
	.cfi_startproc
.LVL238:
	pushq	%r14
	.cfi_def_cfa_offset 16
	.cfi_offset 14, -16
	pushq	%r13
	.cfi_def_cfa_offset 24
	.cfi_offset 13, -24
	pushq	%r12
	.cfi_def_cfa_offset 32
	.cfi_offset 12, -32
	pushq	%rbp
	.cfi_def_cfa_offset 40
	.cfi_offset 6, -40
	pushq	%rbx
	.cfi_def_cfa_offset 48
	.cfi_offset 3, -48
	subq	$16, %rsp
	.cfi_def_cfa_offset 64
	movq	%rdi, %rbx
	.loc 1 486 0
	movq	%fs:40, %rax
	movq	%rax, 8(%rsp)
	xorl	%eax, %eax
.LBB669:
	.loc 1 487 0
	cmpl	$2, %esi
	jle	.L193
.LBB670:
	.loc 1 489 0
	cmpl	$4, %esi
	je	.L194
.LBB671:
	.loc 1 498 0
	cmpl	$5, %esi
	jne	.L160
	.loc 1 498 0 is_stmt 0 discriminator 1
	cmpb	$90, (%rdi)
	je	.L195
.L160:
.LBB672:
	.loc 1 516 0 is_stmt 1
	movzbl	1(%rbx), %eax
	leal	-65(%rax), %edx
	cmpb	$10, %dl
	ja	.L168
	.loc 1 517 0
	movsbl	%al, %eax
	leal	-65(%rax), %ebp
.LVL239:
.L169:
.LBB673:
	.loc 1 524 0
	movzbl	(%rbx), %eax
	subl	$67, %eax
	cmpb	$52, %al
	ja	.L171
	movzbl	%al, %eax
	leaq	.L173(%rip), %rdx
	movslq	(%rdx,%rax,4), %rax
	addq	%rdx, %rax
	jmp	*%rax
	.section	.rodata
	.align 4
	.align 4
.L173:
	.long	.L172-.L173
	.long	.L171-.L173
	.long	.L171-.L173
	.long	.L171-.L173
	.long	.L171-.L173
	.long	.L171-.L173
	.long	.L171-.L173
	.long	.L171-.L173
	.long	.L171-.L173
	.long	.L171-.L173
	.long	.L171-.L173
	.long	.L171-.L173
	.long	.L171-.L173
	.long	.L171-.L173
	.long	.L171-.L173
	.long	.L171-.L173
	.long	.L174-.L173
	.long	.L171-.L173
	.long	.L171-.L173
	.long	.L171-.L173
	.long	.L175-.L173
	.long	.L171-.L173
	.long	.L171-.L173
	.long	.L171-.L173
	.long	.L171-.L173
	.long	.L171-.L173
	.long	.L171-.L173
	.long	.L171-.L173
	.long	.L171-.L173
	.long	.L171-.L173
	.long	.L171-.L173
	.long	.L171-.L173
	.long	.L172-.L173
	.long	.L171-.L173
	.long	.L171-.L173
	.long	.L171-.L173
	.long	.L171-.L173
	.long	.L171-.L173
	.long	.L171-.L173
	.long	.L171-.L173
	.long	.L171-.L173
	.long	.L171-.L173
	.long	.L171-.L173
	.long	.L171-.L173
	.long	.L171-.L173
	.long	.L171-.L173
	.long	.L171-.L173
	.long	.L171-.L173
	.long	.L174-.L173
	.long	.L171-.L173
	.long	.L171-.L173
	.long	.L171-.L173
	.long	.L175-.L173
	.text
.LVL240:
.L193:
.LBE673:
.LBE672:
.LBE671:
.LBE670:
	.loc 1 488 0
	call	_ZL13invalid_instrPc
.LVL241:
.L156:
.LBE669:
	.loc 1 556 0
	movq	8(%rsp), %rax
	xorq	%fs:40, %rax
	jne	.L196
	addq	$16, %rsp
	.cfi_remember_state
	.cfi_def_cfa_offset 48
	popq	%rbx
	.cfi_def_cfa_offset 40
	popq	%rbp
	.cfi_def_cfa_offset 32
	popq	%r12
	.cfi_def_cfa_offset 24
	popq	%r13
	.cfi_def_cfa_offset 16
	popq	%r14
	.cfi_def_cfa_offset 8
	ret
.LVL242:
.L194:
	.cfi_restore_state
.LBB726:
.LBB725:
	.loc 1 489 0 discriminator 1
	movzbl	(%rdi), %eax
	andl	$-33, %eax
	.loc 1 490 0 discriminator 1
	cmpb	$68, %al
	jne	.L160
	movzbl	1(%rdi), %eax
	andl	$-33, %eax
	.loc 1 491 0 discriminator 1
	cmpb	$79, %al
	jne	.L160
	movzbl	2(%rdi), %eax
	andl	$-33, %eax
	.loc 1 492 0 discriminator 1
	cmpb	$78, %al
	jne	.L160
	movzbl	3(%rdi), %eax
	andl	$-33, %eax
	.loc 1 493 0 discriminator 1
	cmpb	$69, %al
	jne	.L160
	.loc 1 494 0
	movl	_ZL8sem_sync(%rip), %edi
	call	_Z1Pi
.LVL243:
	.loc 1 495 0
	movq	_ZL12sync_counter(%rip), %rdx
	movl	(%rdx), %eax
	subl	$1, %eax
	movl	%eax, (%rdx)
	.loc 1 496 0
	testl	%eax, %eax
	je	.L197
.L161:
	.loc 1 497 0
	movl	_ZL8sem_sync(%rip), %edi
	call	_Z1Vi
.LVL244:
	jmp	.L156
.L197:
	.loc 1 496 0 discriminator 1
	movl	_ZL8sem_done(%rip), %edi
	call	_Z1Vi
.LVL245:
	jmp	.L161
.LVL246:
.L195:
.LBB724:
.LBB714:
	.loc 1 500 0
	movsbl	1(%rdi), %edi
	call	_ZL14int_of_hexcharc
.LVL247:
	movl	%eax, %r12d
.LVL248:
	.loc 1 501 0
	cmpl	$-1, %eax
	je	.L190
	cmpl	$14, %eax
	jg	.L190
	.loc 1 505 0
	movsbl	2(%rbx), %edi
	call	_ZL14int_of_hexcharc
.LVL249:
	movl	%eax, %ebp
.LVL250:
	.loc 1 506 0
	movsbl	3(%rbx), %edi
	call	_ZL14int_of_hexcharc
.LVL251:
	movl	%eax, %r13d
.LVL252:
	.loc 1 507 0
	movsbl	4(%rbx), %edi
	call	_ZL14int_of_hexcharc
.LVL253:
	.loc 1 509 0
	cmpl	$-1, %ebp
	je	.L164
	cmpl	$-1, %r13d
	je	.L164
	.loc 1 508 0 discriminator 1
	sall	$4, %ebp
.LVL254:
	addl	%r13d, %ebp
.LVL255:
	sall	$4, %ebp
	addl	%eax, %ebp
	.loc 1 509 0 discriminator 1
	cmpl	$-1, %eax
	je	.L164
	cmpl	$1023, %ebp
	jle	.L165
.L164:
	.loc 1 510 0
	movq	%rbx, %rdi
	call	_ZL13invalid_instrPc
.LVL256:
	.loc 1 511 0
	jmp	.L156
.LVL257:
.L190:
	.loc 1 502 0
	movq	%rbx, %rdi
	call	_ZL13invalid_instrPc
.LVL258:
	.loc 1 503 0
	jmp	.L156
.LVL259:
.L165:
.LBB715:
.LBB716:
	.loc 1 468 0
	movl	_ZL8sem_regs(%rip), %edi
	call	_Z1Pi
.LVL260:
	.loc 1 470 0
	movl	%r12d, %eax
	movq	_ZL7analogs(%rip), %rdx
	leaq	(%rdx,%rax,4), %rax
	cmpl	(%rax), %ebp
	je	.L167
	.loc 1 471 0
	movl	%ebp, (%rax)
.LVL261:
.LBB717:
.LBB718:
	.loc 5 98 0
	movl	%r12d, %r8d
	movl	%ebp, %ecx
	leaq	.LC16(%rip), %rdx
	movl	$1, %esi
	movq	stderr(%rip), %rdi
	movl	$0, %eax
	call	__fprintf_chk@PLT
.LVL262:
.LBE718:
.LBE717:
.LBB719:
.LBB720:
.LBB721:
.LBB722:
	movl	%ebp, %r8d
	movl	%r12d, %ecx
	leaq	.LC17(%rip), %rdx
	movl	$1, %esi
	movq	stderr(%rip), %rdi
	movl	$0, %eax
	call	__fprintf_chk@PLT
.LVL263:
.LBE722:
.LBE721:
	.loc 1 193 0
	movb	$90, 2(%rsp)
	.loc 1 194 0
	movl	%r12d, %edi
	call	_ZL14hexchar_of_inti
.LVL264:
	movb	%al, 3(%rsp)
	.loc 1 195 0
	movl	%ebp, %edi
	shrl	$8, %edi
	andl	$15, %edi
	call	_ZL14hexchar_of_inti
.LVL265:
	movb	%al, 4(%rsp)
	.loc 1 196 0
	movl	%ebp, %edi
	shrl	$4, %edi
	andl	$15, %edi
	call	_ZL14hexchar_of_inti
.LVL266:
	movb	%al, 5(%rsp)
	.loc 1 197 0
	movl	%ebp, %edi
	andl	$15, %edi
	call	_ZL14hexchar_of_inti
.LVL267:
	movb	%al, 6(%rsp)
	.loc 1 198 0
	movb	$10, 7(%rsp)
	.loc 1 199 0
	leaq	2(%rsp), %rdi
	movl	$6, %esi
	call	_Z13send_all_procPKci
.LVL268:
.L167:
.LBE720:
.LBE719:
	.loc 1 476 0
	movl	_ZL8sem_regs(%rip), %edi
	call	_Z1Vi
.LVL269:
	.loc 1 477 0
	call	_ZL9may_sleepv
.LVL270:
	jmp	.L156
.LVL271:
.L168:
.LBE716:
.LBE715:
.LBE714:
.LBB723:
	.loc 1 518 0
	leal	-97(%rax), %edx
	cmpb	$10, %dl
	ja	.L170
	.loc 1 519 0
	movsbl	%al, %eax
	leal	-97(%rax), %ebp
.LVL272:
	jmp	.L169
.LVL273:
.L170:
	.loc 1 521 0
	movq	%rbx, %rdi
	call	_ZL13invalid_instrPc
.LVL274:
	.loc 1 522 0
	jmp	.L156
.LVL275:
.L175:
.LBB713:
.LBB674:
.LBB675:
	.loc 1 527 0
	cmpl	$4, %esi
	jne	.L198
.LBB676:
	.loc 1 529 0
	movsbl	2(%rbx), %edi
	call	_ZL14int_of_hexcharc
.LVL276:
	movl	%eax, %r12d
.LVL277:
	.loc 1 530 0
	movsbl	3(%rbx), %edi
	call	_ZL14int_of_hexcharc
.LVL278:
	.loc 1 531 0
	cmpl	$-1, %r12d
	je	.L191
	cmpl	$-1, %eax
	je	.L191
	.loc 1 535 0
	sall	$4, %r12d
.LVL279:
	addl	%eax, %r12d
	movzbl	%r12b, %ebx
.LVL280:
.LBB677:
.LBB678:
	.loc 1 401 0
	movl	_ZL8sem_regs(%rip), %edi
	call	_Z1Pi
.LVL281:
.LBB679:
	.loc 1 404 0
	movq	_ZL4regs(%rip), %rdx
	.loc 1 403 0
	leal	11(%rbp), %eax
.LVL282:
	.loc 1 404 0
	cltq
	movzbl	(%rdx,%rax), %esi
.LVL283:
	.loc 1 405 0
	movslq	%ebp, %r13
	movzbl	(%rdx,%r13), %r14d
.LVL284:
.LBB680:
	.loc 1 406 0
	movl	%esi, %eax
.LVL285:
	notl	%eax
	andl	%ebx, %eax
	cmpl	$255, %eax
	jne	.L199
.LVL286:
.L179:
.LBE680:
	.loc 1 412 0
	cmpb	%r14b, %r12b
	je	.L180
	.loc 1 413 0
	movq	_ZL4regs(%rip), %rax
	movb	%r12b, (%rax,%r13)
.LVL287:
.LBB684:
.LBB685:
	.loc 1 165 0
	movl	%ebx, %edx
	movl	%ebp, %esi
	movl	$87, %edi
	call	_ZL10send_writecih
.LVL288:
.L180:
.LBE685:
.LBE684:
.LBE679:
	.loc 1 417 0
	movl	_ZL8sem_regs(%rip), %edi
	call	_Z1Vi
.LVL289:
	.loc 1 418 0
	call	_ZL9may_sleepv
.LVL290:
	jmp	.L156
.LVL291:
.L198:
.LBE678:
.LBE677:
.LBE676:
	.loc 1 527 0 discriminator 1
	movq	%rbx, %rdi
	call	_ZL13invalid_instrPc
.LVL292:
	jmp	.L156
.LVL293:
.L191:
.LBB690:
	.loc 1 532 0
	movq	%rbx, %rdi
	call	_ZL13invalid_instrPc
.LVL294:
	.loc 1 533 0
	jmp	.L156
.LVL295:
.L199:
.LBB689:
.LBB688:
.LBB687:
.LBB686:
.LBB681:
	.loc 1 407 0
	leal	65(%rbp), %ecx
	.loc 1 408 0
	movsbl	%cl, %ecx
.LVL296:
.LBB682:
.LBB683:
	.loc 5 98 0
	subq	$8, %rsp
	.cfi_def_cfa_offset 72
	pushq	%rsi
	.cfi_def_cfa_offset 80
	movl	%ecx, %r9d
	movl	%ebx, %r8d
	leaq	.LC18(%rip), %rdx
	movl	$1, %esi
.LVL297:
	movq	stderr(%rip), %rdi
	movl	$0, %eax
	call	__fprintf_chk@PLT
.LVL298:
	addq	$16, %rsp
	.cfi_def_cfa_offset 64
	jmp	.L179
.LVL299:
.L172:
.LBE683:
.LBE682:
.LBE681:
.LBE686:
.LBE687:
.LBE688:
.LBE689:
.LBE690:
.LBE675:
	.loc 1 540 0
	cmpl	$3, %esi
	jne	.L181
	.loc 1 540 0 is_stmt 0 discriminator 2
	movzbl	2(%rbx), %eax
	leal	-48(%rax), %edx
	cmpb	$7, %dl
	jbe	.L182
.L181:
	.loc 1 540 0 discriminator 5
	movq	%rbx, %rdi
	call	_ZL13invalid_instrPc
.LVL300:
	jmp	.L156
.LVL301:
.L182:
	.loc 1 542 0 is_stmt 1
	movsbl	%al, %eax
	leal	-48(%rax), %ebx
.LVL302:
.LBB691:
.LBB692:
	.loc 1 422 0
	movl	_ZL8sem_regs(%rip), %edi
.LVL303:
	call	_Z1Pi
.LVL304:
.LBB693:
	.loc 1 424 0
	movl	$1, %eax
	movl	%ebx, %ecx
	sall	%cl, %eax
.LVL305:
	.loc 1 426 0
	movq	_ZL4regs(%rip), %rcx
	.loc 1 425 0
	leal	11(%rbp), %edx
.LVL306:
	.loc 1 426 0
	movslq	%edx, %rdx
	movzbl	(%rcx,%rdx), %edx
.LVL307:
	.loc 1 427 0
	movslq	%ebp, %r14
	movzbl	(%rcx,%r14), %r13d
.LVL308:
	.loc 1 428 0
	movl	%eax, %r12d
	notl	%r12d
	andl	%r13d, %r12d
.LVL309:
.LBB694:
	.loc 1 429 0
	testl	%edx, %eax
	jne	.L200
.LVL310:
.L183:
.LBE694:
	.loc 1 435 0
	cmpl	%r12d, %r13d
	je	.L184
	.loc 1 436 0
	movq	_ZL4regs(%rip), %rax
	movb	%r12b, (%rax,%r14)
.LVL311:
.LBB698:
.LBB699:
	.loc 1 165 0
	movl	%r12d, %edx
	movl	%ebp, %esi
	movl	$87, %edi
	call	_ZL10send_writecih
.LVL312:
.L184:
.LBE699:
.LBE698:
.LBE693:
	.loc 1 440 0
	movl	_ZL8sem_regs(%rip), %edi
	call	_Z1Vi
.LVL313:
	.loc 1 441 0
	call	_ZL9may_sleepv
.LVL314:
	jmp	.L156
.LVL315:
.L200:
.LBB701:
.LBB700:
.LBB695:
	.loc 1 430 0
	leal	65(%rbp), %ecx
	.loc 1 431 0
	movsbl	%cl, %ecx
.LVL316:
.LBB696:
.LBB697:
	.loc 5 98 0
	pushq	%rdx
	.cfi_def_cfa_offset 72
	pushq	%rcx
	.cfi_def_cfa_offset 80
	movl	%ebx, %r9d
	movl	%ecx, %r8d
	leaq	.LC19(%rip), %rdx
.LVL317:
	movl	$1, %esi
	movq	stderr(%rip), %rdi
	movl	$0, %eax
.LVL318:
	call	__fprintf_chk@PLT
.LVL319:
	addq	$16, %rsp
	.cfi_def_cfa_offset 64
	jmp	.L183
.LVL320:
.L174:
.LBE697:
.LBE696:
.LBE695:
.LBE700:
.LBE701:
.LBE692:
.LBE691:
	.loc 1 547 0
	cmpl	$3, %esi
	jne	.L185
	.loc 1 547 0 is_stmt 0 discriminator 2
	movzbl	2(%rbx), %eax
	leal	-48(%rax), %edx
	cmpb	$7, %dl
	jbe	.L186
.L185:
	.loc 1 547 0 discriminator 5
	movq	%rbx, %rdi
	call	_ZL13invalid_instrPc
.LVL321:
	jmp	.L156
.LVL322:
.L186:
	.loc 1 549 0 is_stmt 1
	movsbl	%al, %eax
	leal	-48(%rax), %ebx
.LVL323:
.LBB702:
.LBB703:
	.loc 1 445 0
	movl	_ZL8sem_regs(%rip), %edi
.LVL324:
	call	_Z1Pi
.LVL325:
.LBB704:
	.loc 1 447 0
	movl	$1, %eax
	movl	%ebx, %ecx
	sall	%cl, %eax
.LVL326:
	.loc 1 449 0
	movq	_ZL4regs(%rip), %rcx
	.loc 1 448 0
	leal	11(%rbp), %edx
.LVL327:
	.loc 1 449 0
	movslq	%edx, %rdx
	movzbl	(%rcx,%rdx), %edx
.LVL328:
	.loc 1 450 0
	movslq	%ebp, %r14
	movzbl	(%rcx,%r14), %r13d
.LVL329:
	.loc 1 451 0
	movl	%eax, %r12d
	orl	%r13d, %r12d
.LVL330:
.LBB705:
	.loc 1 452 0
	testl	%edx, %eax
	jne	.L201
.LVL331:
.L187:
.LBE705:
	.loc 1 458 0
	cmpl	%r12d, %r13d
	je	.L188
	.loc 1 459 0
	movq	_ZL4regs(%rip), %rax
	movb	%r12b, (%rax,%r14)
.LVL332:
.LBB709:
.LBB710:
	.loc 1 165 0
	movzbl	%r12b, %edx
	movl	%ebp, %esi
	movl	$87, %edi
	call	_ZL10send_writecih
.LVL333:
.L188:
.LBE710:
.LBE709:
.LBE704:
	.loc 1 463 0
	movl	_ZL8sem_regs(%rip), %edi
	call	_Z1Vi
.LVL334:
	.loc 1 464 0
	call	_ZL9may_sleepv
.LVL335:
	jmp	.L156
.LVL336:
.L201:
.LBB712:
.LBB711:
.LBB706:
	.loc 1 453 0
	leal	65(%rbp), %ecx
	.loc 1 454 0
	movsbl	%cl, %ecx
.LVL337:
.LBB707:
.LBB708:
	.loc 5 98 0
	pushq	%rdx
	.cfi_def_cfa_offset 72
	pushq	%rcx
	.cfi_def_cfa_offset 80
	movl	%ebx, %r9d
	movl	%ecx, %r8d
	leaq	.LC20(%rip), %rdx
.LVL338:
	movl	$1, %esi
	movq	stderr(%rip), %rdi
	movl	$0, %eax
.LVL339:
	call	__fprintf_chk@PLT
.LVL340:
	addq	$16, %rsp
	.cfi_def_cfa_offset 64
	jmp	.L187
.LVL341:
.L171:
.LBE708:
.LBE707:
.LBE706:
.LBE711:
.LBE712:
.LBE703:
.LBE702:
	.loc 1 553 0
	movq	%rbx, %rdi
	call	_ZL13invalid_instrPc
.LVL342:
	jmp	.L156
.LVL343:
.L196:
.LBE674:
.LBE713:
.LBE723:
.LBE724:
.LBE725:
.LBE726:
	.loc 1 556 0
	call	__stack_chk_fail@PLT
.LVL344:
	.cfi_endproc
.LFE144:
	.size	_Z10exec_instrPci, .-_Z10exec_instrPci
	.section	.rodata.str1.1
.LC21:
	.string	"Invalid instruction: %s\n"
	.text
	.globl	_Z10instr_loopi
	.type	_Z10instr_loopi, @function
_Z10instr_loopi:
.LFB106:
	.loc 6 66 0
	.cfi_startproc
.LVL345:
	pushq	%r15
	.cfi_def_cfa_offset 16
	.cfi_offset 15, -16
	pushq	%r14
	.cfi_def_cfa_offset 24
	.cfi_offset 14, -24
	pushq	%r13
	.cfi_def_cfa_offset 32
	.cfi_offset 13, -32
	pushq	%r12
	.cfi_def_cfa_offset 40
	.cfi_offset 12, -40
	pushq	%rbp
	.cfi_def_cfa_offset 48
	.cfi_offset 6, -48
	pushq	%rbx
	.cfi_def_cfa_offset 56
	.cfi_offset 3, -56
	subq	$136, %rsp
	.cfi_def_cfa_offset 192
	movl	%edi, 8(%rsp)
	.loc 6 66 0
	movq	%fs:40, %rax
	movq	%rax, 120(%rsp)
	xorl	%eax, %eax
.LVL346:
	.loc 6 67 0
	movl	$0, %ebx
	.loc 6 69 0
	leaq	16(%rsp), %r14
.LBB727:
.LBB728:
.LBB729:
.LBB730:
	.loc 6 79 0
	movq	$-1, %r15
	jmp	.L203
.LVL347:
.L227:
.LBB731:
	.loc 6 93 0
	movl	12(%rsp), %ebx
	jmp	.L203
.LVL348:
.L205:
.LBE731:
.LBE730:
.LBE729:
	.loc 6 72 0
	cmpl	$99, %ebx
	je	.L222
.LBB735:
	.loc 6 76 0
	cmpl	%r12d, %ebx
	je	.L203
	jmp	.L223
.LVL349:
.L222:
.LBE735:
	.loc 6 73 0
	movb	$0, 115(%rsp)
.LVL350:
.LBB736:
.LBB737:
	.loc 5 98 0
	movq	%r14, %rcx
	leaq	.LC21(%rip), %rdx
	movl	$1, %esi
	movq	stderr(%rip), %rdi
	movl	$0, %eax
	call	__fprintf_chk@PLT
.LVL351:
.LBE737:
.LBE736:
	.loc 6 75 0
	movl	$0, %ebx
.LVL352:
	jmp	.L203
.LVL353:
.L213:
.LBB738:
.LBB733:
.LBB732:
	.loc 6 86 0
	cmpl	%r12d, %ebp
	je	.L216
	movl	%ebp, %ebx
.LVL354:
.L224:
	.loc 6 87 0
	movslq	%ebx, %rax
	movb	$0, 16(%rsp,%rax)
	.loc 6 88 0
	movslq	%ebp, %rbp
	addq	%r14, %rbp
.LVL355:
	movq	%r15, %rcx
	movq	%rbp, %rdi
	movl	$0, %eax
	repnz scasb
	notq	%rcx
	leaq	-1(%rcx), %r13
.LVL356:
	.loc 6 89 0
	movl	%r13d, %esi
	movq	%rbp, %rdi
	call	_Z7is_stopPci
.LVL357:
	testl	%eax, %eax
	jne	.L202
	.loc 6 90 0
	testl	%r13d, %r13d
	jne	.L232
.L218:
.LVL358:
	.loc 6 91 0
	leal	1(%rbx), %ebp
.LVL359:
.L219:
	.loc 6 85 0
	cmpl	%r12d, %ebp
	jge	.L213
	movslq	%ebp, %rax
	cmpb	$10, 16(%rsp,%rax)
	je	.L226
	leal	1(%rbp), %eax
	cltq
	addq	%r14, %rax
	movl	%ebp, %ebx
.LVL360:
.L215:
	.loc 6 85 0 is_stmt 0 discriminator 2
	addl	$1, %ebx
.LVL361:
	cmpl	%ebx, %r12d
	je	.L216
	addq	$1, %rax
	.loc 6 85 0 discriminator 1
	cmpb	$10, -1(%rax)
	jne	.L215
	jmp	.L224
.LVL362:
.L232:
	.loc 6 90 0 is_stmt 1 discriminator 1
	movl	%r13d, %esi
	movq	%rbp, %rdi
	call	_Z10exec_instrPci
.LVL363:
	jmp	.L218
.LVL364:
.L216:
	.loc 6 94 0
	cmpl	%r12d, %ebp
	jge	.L227
	movslq	%ebp, %rcx
	leaq	(%r14,%rcx), %rax
	movl	%ebp, %edi
	leaq	1(%r14,%rcx), %rdx
	leal	-1(%r12), %esi
	subl	%ebp, %esi
	addq	%rdx, %rsi
	negq	%rcx
.LVL365:
.L220:
	.loc 6 94 0 is_stmt 0 discriminator 1
	movzbl	(%rax), %edx
	movb	%dl, (%rax,%rcx)
	addq	$1, %rax
.LVL366:
	cmpq	%rsi, %rax
	jne	.L220
	movl	%r12d, %ebx
	subl	%edi, %ebx
	jmp	.L203
.LVL367:
.L226:
	.loc 6 85 0 is_stmt 1
	movl	%ebp, %ebx
	jmp	.L224
.LVL368:
.L233:
.LBE732:
.LBE733:
.LBE738:
	.loc 6 72 0
	cmpl	$99, %ebx
	je	.L222
.LVL369:
.L203:
.LBE728:
.LBE727:
	.loc 6 69 0
	movslq	%ebx, %rsi
.LVL370:
	movl	$99, %edx
	subq	%rsi, %rdx
.LVL371:
	addq	%r14, %rsi
.LVL372:
.LBB741:
.LBB742:
	.file 9 "/usr/include/x86_64-linux-gnu/bits/unistd.h"
	.loc 9 44 0
	movl	8(%rsp), %edi
	call	read@PLT
.LVL373:
.LBE742:
.LBE741:
	.loc 6 69 0
	testl	%eax, %eax
	je	.L202
.LBB743:
	.loc 6 70 0
	leal	(%rbx,%rax), %r12d
.LVL374:
	.loc 6 71 0
	cmpl	%r12d, %ebx
	jge	.L205
	movslq	%ebx, %rax
.LVL375:
	cmpb	$10, 16(%rsp,%rax)
	je	.L206
	leal	1(%rbx), %eax
	cltq
	addq	%r14, %rax
.L207:
	.loc 6 71 0 is_stmt 0 discriminator 2
	addl	$1, %ebx
.LVL376:
	cmpl	%ebx, %r12d
	je	.L233
	addq	$1, %rax
	.loc 6 71 0 discriminator 1
	cmpb	$10, -1(%rax)
	jne	.L207
.L206:
.LBB740:
	.loc 6 72 0 is_stmt 1
	cmpl	$99, %ebx
	je	.L222
.L223:
.LBB739:
.LBB734:
	.loc 6 78 0
	movslq	%ebx, %rax
	movb	$0, 16(%rsp,%rax)
	.loc 6 79 0
	movl	$0, %eax
	movq	%r15, %rcx
	movq	%r14, %rdi
	repnz scasb
	movq	%rcx, %rax
	notq	%rax
	leaq	-1(%rax), %rbp
.LVL377:
	.loc 6 80 0
	movl	%ebp, %esi
	movq	%r14, %rdi
	call	_Z7is_stopPci
.LVL378:
	movl	%eax, 12(%rsp)
	testl	%eax, %eax
	jne	.L202
	.loc 6 81 0
	movl	%ebp, %esi
	movq	%r14, %rdi
	call	_Z10exec_instrPci
.LVL379:
	.loc 6 82 0
	leal	1(%rbx), %ebp
.LVL380:
	jmp	.L219
.LVL381:
.L202:
.LBE734:
.LBE739:
.LBE740:
.LBE743:
	.loc 6 100 0
	movq	120(%rsp), %rax
	xorq	%fs:40, %rax
	jne	.L234
	addq	$136, %rsp
	.cfi_remember_state
	.cfi_def_cfa_offset 56
	popq	%rbx
	.cfi_def_cfa_offset 48
	popq	%rbp
	.cfi_def_cfa_offset 40
	popq	%r12
	.cfi_def_cfa_offset 32
	popq	%r13
	.cfi_def_cfa_offset 24
	popq	%r14
	.cfi_def_cfa_offset 16
	popq	%r15
	.cfi_def_cfa_offset 8
	ret
.L234:
	.cfi_restore_state
	call	__stack_chk_fail@PLT
.LVL382:
	.cfi_endproc
.LFE106:
	.size	_Z10instr_loopi, .-_Z10instr_loopi
	.section	.rodata.str1.1
.LC22:
	.string	"pipe()"
.LC23:
	.string	"fork()"
.LC24:
	.string	"close()"
.LC25:
	.string	"dup2()"
.LC26:
	.string	"start '%s' (pid = %d)\n"
.LC27:
	.string	"/bin/bash"
.LC28:
	.string	"-c"
	.text
	.globl	_Z8run_cmndPKc
	.type	_Z8run_cmndPKc, @function
_Z8run_cmndPKc:
.LFB107:
	.loc 6 102 0
	.cfi_startproc
.LVL383:
	pushq	%rbx
	.cfi_def_cfa_offset 16
	.cfi_offset 3, -16
	subq	$64, %rsp
	.cfi_def_cfa_offset 80
	movq	%rdi, %rbx
	.loc 6 102 0
	movq	%fs:40, %rax
	movq	%rax, 56(%rsp)
	xorl	%eax, %eax
	.loc 6 105 0
	leaq	8(%rsp), %rdi
.LVL384:
	call	pipe@PLT
.LVL385:
	cmpl	$-1, %eax
	je	.L245
	.loc 6 107 0
	call	fork@PLT
.LVL386:
	.loc 6 108 0
	testl	%eax, %eax
	js	.L246
.LBB744:
	.loc 6 109 0
	testl	%eax, %eax
	jne	.L238
.LBB745:
	.loc 6 111 0
	movl	8(%rsp), %edi
	call	close@PLT
.LVL387:
	cmpl	$-1, %eax
	je	.L247
	.loc 6 113 0
	movl	$1, %esi
	movl	12(%rsp), %edi
	call	dup2@PLT
.LVL388:
	cmpl	$-1, %eax
	je	.L248
	.loc 6 115 0
	call	getpid@PLT
.LVL389:
	movl	%eax, %r8d
.LVL390:
.LBB746:
.LBB747:
	.loc 5 98 0
	movq	%rbx, %rcx
	leaq	.LC26(%rip), %rdx
	movl	$1, %esi
	movq	stderr(%rip), %rdi
	movl	$0, %eax
	call	__fprintf_chk@PLT
.LVL391:
.LBE747:
.LBE746:
	.loc 6 116 0
	leaq	.LC27(%rip), %rdi
	movq	%rdi, 16(%rsp)
	.loc 6 117 0
	leaq	.LC28(%rip), %rax
	movq	%rax, 24(%rsp)
	.loc 6 118 0
	movq	%rbx, 32(%rsp)
	.loc 6 119 0
	movq	$0, 40(%rsp)
	.loc 6 120 0
	leaq	16(%rsp), %rsi
	call	execv@PLT
.LVL392:
.LBE745:
	jmp	.L235
.L245:
.LBE744:
	.loc 6 106 0
	leaq	.LC22(%rip), %rdi
	call	_Z5errorPKc
.LVL393:
.L246:
	.loc 6 108 0 discriminator 1
	leaq	.LC23(%rip), %rdi
	call	_Z5errorPKc
.LVL394:
.L247:
.LBB749:
.LBB748:
	.loc 6 112 0
	leaq	.LC24(%rip), %rdi
	call	_Z5errorPKc
.LVL395:
.L248:
	.loc 6 114 0
	leaq	.LC25(%rip), %rdi
	call	_Z5errorPKc
.LVL396:
.L238:
.LBE748:
	.loc 6 123 0
	call	_Z7signalsv
.LVL397:
	.loc 6 124 0
	movl	12(%rsp), %edi
	call	close@PLT
.LVL398:
	cmpl	$-1, %eax
	je	.L249
	.loc 6 126 0
	movl	8(%rsp), %edi
	call	_Z10instr_loopi
.LVL399:
	.loc 6 127 0
	movl	$13, %esi
	movl	_ZL10parent_pid(%rip), %edi
	call	kill@PLT
.LVL400:
.L235:
.LBE749:
	.loc 6 129 0
	movq	56(%rsp), %rax
	xorq	%fs:40, %rax
	jne	.L250
	addq	$64, %rsp
	.cfi_remember_state
	.cfi_def_cfa_offset 16
	popq	%rbx
	.cfi_def_cfa_offset 8
.LVL401:
	ret
.LVL402:
.L249:
	.cfi_restore_state
.LBB750:
	.loc 6 125 0
	leaq	.LC24(%rip), %rdi
	call	_Z5errorPKc
.LVL403:
.L250:
.LBE750:
	.loc 6 129 0
	call	__stack_chk_fail@PLT
.LVL404:
	.cfi_endproc
.LFE107:
	.size	_Z8run_cmndPKc, .-_Z8run_cmndPKc
	.section	.rodata.str1.1
.LC29:
	.string	""
.LC30:
	.string	"-slow"
.LC31:
	.string	"-trace"
	.section	.rodata.str1.8
	.align 8
.LC32:
	.string	"Program terminated, press enter to exit...\n"
	.section	.rodata.str1.1
.LC33:
	.string	"Program terminated.\n"
	.text
	.globl	_Z14init_simulatorv
	.type	_Z14init_simulatorv, @function
_Z14init_simulatorv:
.LFB109:
	.loc 6 155 0
	.cfi_startproc
	pushq	%r15
	.cfi_def_cfa_offset 16
	.cfi_offset 15, -16
	pushq	%r14
	.cfi_def_cfa_offset 24
	.cfi_offset 14, -24
	pushq	%r13
	.cfi_def_cfa_offset 32
	.cfi_offset 13, -32
	pushq	%r12
	.cfi_def_cfa_offset 40
	.cfi_offset 12, -40
	pushq	%rbp
	.cfi_def_cfa_offset 48
	.cfi_offset 6, -48
	pushq	%rbx
	.cfi_def_cfa_offset 56
	.cfi_offset 3, -56
	subq	$40, %rsp
	.cfi_def_cfa_offset 96
	.loc 6 155 0
	movq	%fs:40, %rax
	movq	%rax, 24(%rsp)
	xorl	%eax, %eax
.LVL405:
	.loc 6 162 0
	movl	_ZZ14init_simulatorvE11test_reinit(%rip), %ebx
	testl	%ebx, %ebx
	jne	.L251
	.loc 6 163 0
	movl	$1, _ZZ14init_simulatorvE11test_reinit(%rip)
	.loc 6 169 0
	movq	global_argv(%rip), %r12
.LVL406:
	.loc 6 171 0
	cmpq	$0, (%r12)
	je	.L253
	.loc 6 170 0
	movl	%ebx, %eax
	jmp	.L254
.LVL407:
.L275:
	.loc 6 171 0
	movl	%ebp, %eax
.LVL408:
.L254:
	.loc 6 171 0 is_stmt 0 discriminator 1
	leal	1(%rax), %ebp
.LVL409:
	.loc 6 171 0 is_stmt 1 discriminator 1
	movslq	%ebp, %rdx
	cmpq	$0, (%r12,%rdx,8)
	jne	.L275
	.loc 6 174 0
	movl	%eax, _ZL7nb_proc(%rip)
.LVL410:
.LBB751:
	.loc 6 176 0
	testl	%eax, %eax
	jle	.L276
	movslq	%eax, %rdx
	salq	$3, %rdx
	leaq	(%r12,%rdx), %r8
	leaq	-8(%r12,%rdx), %r10
	leal	-1(%rax), %eax
.LVL411:
	salq	$3, %rax
	subq	%rax, %r10
.LBE751:
	.loc 6 160 0
	movl	%ebx, 12(%rsp)
.LBB754:
.LBB752:
	.loc 6 178 0
	movq	$-1, %r15
	movl	$0, %eax
	.loc 6 182 0
	leaq	.LC29(%rip), %r11
	.loc 6 184 0
	leaq	.LC30(%rip), %r14
	.loc 6 189 0
	leaq	.LC31(%rip), %r13
	jmp	.L259
.LVL412:
.L256:
	.loc 6 184 0
	movl	$6, %ecx
	movq	%rdx, %rsi
	movq	%r14, %rdi
	repz cmpsb
	seta	%cl
	sbbb	$0, %cl
	testb	%cl, %cl
	jne	.L257
.LVL413:
	.loc 6 186 0
	subl	$1, _ZL7nb_proc(%rip)
	.loc 6 187 0
	movq	%r11, (%r9)
	.loc 6 185 0
	movl	$1, 12(%rsp)
.LVL414:
.L257:
	.loc 6 189 0
	movl	$7, %ecx
	movq	%rdx, %rsi
	movq	%r13, %rdi
	repz cmpsb
	seta	%dl
	sbbb	$0, %dl
	testb	%dl, %dl
	jne	.L258
	.loc 6 190 0
	subl	$1, _ZL7nb_proc(%rip)
	.loc 6 191 0
	movq	%r11, (%r9)
.L258:
	subq	$8, %r8
.LBE752:
	.loc 6 176 0 discriminator 2
	cmpq	%r10, %r8
	je	.L255
.LVL415:
.L259:
	movq	%r8, %r9
.LBB753:
	.loc 6 177 0
	movq	(%r8), %rdx
.LVL416:
	.loc 6 178 0
	movq	%r15, %rcx
	movq	%rdx, %rdi
	repnz scasb
.LVL417:
	notq	%rcx
	subq	$1, %rcx
.LVL418:
	.loc 6 179 0
	cmpl	$3, %ecx
	jle	.L256
	.loc 6 179 0 is_stmt 0 discriminator 1
	movslq	%ecx, %rcx
	cmpb	$46, -4(%rdx,%rcx)
	jne	.L256
	.loc 6 179 0 discriminator 2
	cmpb	$104, -3(%rdx,%rcx)
	jne	.L256
	.loc 6 179 0 discriminator 3
	cmpb	$101, -2(%rdx,%rcx)
	jne	.L256
	.loc 6 180 0 is_stmt 1
	cmpb	$120, -1(%rdx,%rcx)
	jne	.L256
	.loc 6 181 0
	subl	$1, _ZL7nb_proc(%rip)
	.loc 6 182 0
	movq	%r11, (%r8)
	jmp	.L256
.LVL419:
.L276:
.LBE753:
.LBE754:
	.loc 6 160 0
	movl	%ebx, 12(%rsp)
	jmp	.L255
.LVL420:
.L287:
.LBB755:
.LBB756:
	.loc 6 203 0 discriminator 1
	leaq	.LC22(%rip), %rdi
	call	_Z5errorPKc
.LVL421:
.L288:
.LBE756:
.LBE755:
.LBB758:
	.loc 6 210 0 discriminator 1
	leaq	.LC23(%rip), %rdi
	call	_Z5errorPKc
.LVL422:
.L265:
.LBB759:
.LBB760:
	.loc 5 98 0
	leaq	.LC33(%rip), %rdx
	movl	$1, %esi
	movq	stderr(%rip), %rdi
	movl	$0, %eax
	call	__fprintf_chk@PLT
.LVL423:
	jmp	.L266
.LVL424:
.L264:
.LBE760:
.LBE759:
.LBE758:
	.loc 6 228 0
	call	_Z7signalsv
.LVL425:
	.loc 6 229 0
	call	getpid@PLT
.LVL426:
	movl	%eax, _ZL8main_pid(%rip)
	.loc 6 231 0
	cmpl	$0, _ZL7nb_proc(%rip)
	jne	.L281
.LVL427:
.L251:
	.loc 6 257 0
	movq	24(%rsp), %rax
	xorq	%fs:40, %rax
	jne	.L282
	addq	$40, %rsp
	.cfi_remember_state
	.cfi_def_cfa_offset 56
	popq	%rbx
	.cfi_def_cfa_offset 48
	popq	%rbp
	.cfi_def_cfa_offset 40
	popq	%r12
	.cfi_def_cfa_offset 32
	popq	%r13
	.cfi_def_cfa_offset 24
	popq	%r14
	.cfi_def_cfa_offset 16
	popq	%r15
	.cfi_def_cfa_offset 8
	ret
.LVL428:
.L281:
	.cfi_restore_state
	.loc 6 236 0
	movl	_ZL8sem_outs(%rip), %edi
	call	_Z1Pi
.LVL429:
.LBB763:
	.loc 6 238 0
	cmpl	$1, %ebp
	jle	.L267
	leaq	8(%r12), %rbx
	leal	-2(%rbp), %eax
	leaq	16(%r12,%rax,8), %r15
	jmp	.L273
.LVL430:
.L284:
.LBB764:
	.loc 6 243 0 discriminator 1
	leaq	.LC23(%rip), %rdi
	call	_Z5errorPKc
.LVL431:
.L285:
	.loc 6 245 0
	movslq	%r14d, %r14
	movl	0(%r13,%r14,4), %edi
	movl	$0, %esi
	call	dup2@PLT
.LVL432:
	cmpl	$-1, %eax
	je	.L283
	.loc 6 246 0
	movq	%rbp, %rdi
	call	_Z8run_cmndPKc
.LVL433:
	.loc 6 247 0
	movl	$0, %edi
	call	exit@PLT
.LVL434:
.L283:
	.loc 6 245 0 discriminator 1
	leaq	.LC25(%rip), %rdi
	call	_Z5errorPKc
.LVL435:
.L286:
	.loc 6 249 0 discriminator 1
	leaq	.LC24(%rip), %rdi
	call	_Z5errorPKc
.LVL436:
.L268:
	addq	$8, %rbx
.LBE764:
	.loc 6 238 0 discriminator 2
	cmpq	%r15, %rbx
	je	.L267
.LVL437:
.L273:
.LBB765:
	.loc 6 240 0
	movq	(%rbx), %rbp
.LVL438:
	.loc 6 241 0
	cmpb	$0, 0(%rbp)
	je	.L268
	.loc 6 242 0
	call	fork@PLT
.LVL439:
	movl	%eax, %r12d
.LVL440:
	.loc 6 243 0
	testl	%eax, %eax
	js	.L284
	.loc 6 244 0
	testl	%eax, %eax
	je	.L285
	.loc 6 249 0
	movslq	%r14d, %rbp
.LVL441:
	movl	0(%r13,%rbp,4), %edi
	call	close@PLT
.LVL442:
	cmpl	$-1, %eax
	je	.L286
	.loc 6 250 0
	movq	_ZL10child_pids(%rip), %rax
	movl	%r12d, (%rax,%rbp,4)
	.loc 6 252 0
	addl	$1, %r14d
.LVL443:
	jmp	.L268
.LVL444:
.L267:
.LBE765:
.LBE763:
	.loc 6 256 0
	movl	_ZL8sem_outs(%rip), %edi
	call	_Z1Vi
.LVL445:
	jmp	.L251
.LVL446:
.L253:
	.loc 6 174 0
	movl	$-1, _ZL7nb_proc(%rip)
.LVL447:
	.loc 6 170 0
	movl	%ebx, %ebp
	.loc 6 160 0
	movl	%ebx, 12(%rsp)
.LVL448:
.L255:
	.loc 6 195 0
	movl	12(%rsp), %esi
	movl	_ZL7nb_proc(%rip), %edi
	call	_Z9init_regsii
.LVL449:
	.loc 6 196 0
	movslq	_ZL7nb_proc(%rip), %rdi
	salq	$2, %rdi
	call	_Z9alloc_shmm
.LVL450:
	movq	%rax, _ZL10child_pids(%rip)
	.loc 6 197 0
	movslq	_ZL7nb_proc(%rip), %r13
	salq	$2, %r13
	movq	%r13, %rdi
	call	malloc@PLT
.LVL451:
	movq	%rax, _ZL4outs(%rip)
	.loc 6 198 0
	movq	%r13, %rdi
	call	malloc@PLT
.LVL452:
	movq	%rax, %r13
.LVL453:
	.loc 6 199 0
	movl	$1, %edi
	call	_Z10create_semi
.LVL454:
	movl	%eax, _ZL8sem_outs(%rip)
.LVL455:
.LBB766:
	.loc 6 201 0
	cmpl	$0, _ZL7nb_proc(%rip)
	jle	.L260
.LBB757:
	.loc 6 203 0
	leaq	16(%rsp), %r14
.LVL456:
.L262:
	movq	%r14, %rdi
	call	pipe@PLT
.LVL457:
	cmpl	$-1, %eax
	je	.L287
	.loc 6 204 0 discriminator 2
	movslq	%ebx, %rax
	movl	16(%rsp), %edx
	movl	%edx, 0(%r13,%rax,4)
	.loc 6 205 0 discriminator 2
	movl	20(%rsp), %ecx
	movq	_ZL4outs(%rip), %rdx
	movl	%ecx, (%rdx,%rax,4)
.LBE757:
	.loc 6 201 0 discriminator 2
	addl	$1, %ebx
.LVL458:
	cmpl	%ebx, _ZL7nb_proc(%rip)
	jg	.L262
.LVL459:
.L260:
.LBE766:
.LBB767:
	.loc 6 209 0
	call	fork@PLT
.LVL460:
	movl	%eax, %r14d
.LVL461:
	.loc 6 210 0
	testl	%eax, %eax
	js	.L288
	.loc 6 211 0
	testl	%eax, %eax
	je	.L264
	.loc 6 212 0
	movl	$1, _ZL9is_parent(%rip)
	.loc 6 213 0
	movl	%eax, _ZL10parent_pid(%rip)
	.loc 6 214 0
	call	_Z7signalsv
.LVL462:
	.loc 6 215 0
	movl	$0, %edi
	call	wait@PLT
.LVL463:
	.loc 6 216 0
	cmpl	$0, _ZL7nb_proc(%rip)
	jle	.L265
	.loc 6 217 0
	movl	$100000, %edi
	call	usleep@PLT
.LVL464:
.LBB761:
.LBB762:
	.loc 5 98 0
	leaq	.LC32(%rip), %rdx
	movl	$1, %esi
	movq	stderr(%rip), %rdi
	movl	$0, %eax
	call	__fprintf_chk@PLT
.LVL465:
.LBE762:
.LBE761:
	.loc 6 219 0
	movq	stdin(%rip), %rdi
	call	fgetc@PLT
.LVL466:
.L266:
	.loc 6 223 0
	call	_Z7destroyv
.LVL467:
	.loc 6 224 0
	movl	$0, %edi
	call	exit@PLT
.LVL468:
.L282:
.LBE767:
	.loc 6 257 0
	call	__stack_chk_fail@PLT
.LVL469:
	.cfi_endproc
.LFE109:
	.size	_Z14init_simulatorv, .-_Z14init_simulatorv
	.section	.rodata.str1.8
	.align 8
.LC34:
	.string	"Warning: the avr writes PORT%c when DDR%c=0xFF\n"
	.text
	.globl	_Z18avr_write_registerhh
	.type	_Z18avr_write_registerhh, @function
_Z18avr_write_registerhh:
.LFB130:
	.loc 1 251 0
	.cfi_startproc
.LVL470:
	pushq	%r12
	.cfi_def_cfa_offset 16
	.cfi_offset 12, -16
	pushq	%rbp
	.cfi_def_cfa_offset 24
	.cfi_offset 6, -24
	pushq	%rbx
	.cfi_def_cfa_offset 32
	.cfi_offset 3, -32
	movl	%edi, %ebp
	movl	%esi, %r12d
	.loc 1 253 0
	call	_Z14init_simulatorv
.LVL471:
	.loc 1 254 0
	movl	_ZL8sem_regs(%rip), %edi
	call	_Z1Pi
.LVL472:
	.loc 1 255 0
	movzbl	%r12b, %edx
	movzbl	%bpl, %esi
.LVL473:
.LBB783:
.LBB784:
	.loc 1 220 0
	movq	_ZL4regs(%rip), %rcx
	movzbl	%bpl, %ebx
	leaq	(%rcx,%rbx), %rax
	movzbl	(%rax), %edi
.LVL474:
.LBB785:
	.loc 1 221 0
	cmpl	$10, %esi
	ja	.L290
.LBB786:
	.loc 1 222 0
	cmpb	%dil, %r12b
	je	.L291
.LVL475:
.LBB787:
	.loc 1 223 0
	leal	11(%rsi), %edi
.LVL476:
	.loc 1 224 0
	movslq	%edi, %rdi
.LBB788:
	.loc 1 225 0
	cmpb	$0, (%rcx,%rdi)
	jne	.L292
.LVL477:
.LBB789:
	.loc 1 226 0
	leal	65(%rbp), %ecx
.LVL478:
	.loc 1 227 0
	movsbl	%cl, %ecx
.LVL479:
.LBB790:
.LBB791:
	.loc 5 98 0
	movl	%ecx, %r8d
	leaq	.LC34(%rip), %rdx
	movl	$1, %esi
.LVL480:
	movq	stderr(%rip), %rdi
.LVL481:
	movl	$0, %eax
.LVL482:
	call	__fprintf_chk@PLT
.LVL483:
	jmp	.L291
.LVL484:
.L292:
.LBE791:
.LBE790:
.LBE789:
	.loc 1 230 0
	movb	%r12b, (%rax)
.LVL485:
.LBB792:
.LBB793:
	.loc 1 165 0
	movl	$87, %edi
.LVL486:
	call	_ZL10send_writecih
.LVL487:
	jmp	.L291
.LVL488:
.L290:
.LBE793:
.LBE792:
.LBE788:
.LBE787:
.LBE786:
	.loc 1 235 0
	leal	-11(%rsi), %ecx
	cmpl	$10, %ecx
	ja	.L293
	.loc 1 236 0
	cmpb	%dil, %r12b
	je	.L291
.LVL489:
.LBB794:
.LBB795:
	.loc 1 169 0
	movl	%ecx, %esi
.LVL490:
	movl	$84, %edi
.LVL491:
	call	_ZL10send_writecih
.LVL492:
.LBE795:
.LBE794:
	.loc 1 238 0
	movq	_ZL4regs(%rip), %rax
	movb	%r12b, (%rax,%rbx)
	jmp	.L291
.LVL493:
.L293:
	.loc 1 241 0
	cmpl	$37, %esi
	je	.L296
	.loc 1 246 0
	movb	%r12b, (%rax)
.LVL494:
.L291:
.LBE785:
	.loc 1 248 0
	call	_ZL9may_sleepv
.LVL495:
.LBE784:
.LBE783:
	.loc 1 256 0
	movl	_ZL8sem_regs(%rip), %edi
	call	_Z1Vi
.LVL496:
	.loc 1 257 0
	popq	%rbx
	.cfi_remember_state
	.cfi_def_cfa_offset 24
	popq	%rbp
	.cfi_def_cfa_offset 16
	popq	%r12
	.cfi_def_cfa_offset 8
	ret
.LVL497:
.L296:
	.cfi_restore_state
.LBB800:
.LBB799:
.LBB798:
	.loc 1 242 0
	movb	%r12b, (%rax)
.LVL498:
.LBB796:
.LBB797:
	.loc 1 165 0
	movl	$6, %esi
.LVL499:
	movl	$87, %edi
.LVL500:
	call	_ZL10send_writecih
.LVL501:
	jmp	.L291
.LBE797:
.LBE796:
.LBE798:
.LBE799:
.LBE800:
	.cfi_endproc
.LFE130:
	.size	_Z18avr_write_registerhh, .-_Z18avr_write_registerhh
	.globl	_Z17avr_read_registerh
	.type	_Z17avr_read_registerh, @function
_Z17avr_read_registerh:
.LFB131:
	.loc 1 259 0
	.cfi_startproc
.LVL502:
	pushq	%rbp
	.cfi_def_cfa_offset 16
	.cfi_offset 6, -16
	pushq	%rbx
	.cfi_def_cfa_offset 24
	.cfi_offset 3, -24
	subq	$8, %rsp
	.cfi_def_cfa_offset 32
	movl	%edi, %ebp
	movl	%edi, %ebx
	.loc 1 262 0
	call	_Z14init_simulatorv
.LVL503:
	.loc 1 263 0
	cmpb	$10, %bpl
	jbe	.L300
.L298:
	.loc 1 264 0
	movl	_ZL8sem_regs(%rip), %edi
	call	_Z1Pi
.LVL504:
	.loc 1 265 0
	movzbl	%bl, %ebx
	movq	_ZL4regs(%rip), %rax
	movzbl	(%rax,%rbx), %ebx
.LVL505:
	.loc 1 266 0
	movl	_ZL8sem_regs(%rip), %edi
	call	_Z1Vi
.LVL506:
	.loc 1 267 0
	call	_ZL9may_sleepv
.LVL507:
	.loc 1 269 0
	movl	%ebx, %eax
	addq	$8, %rsp
	.cfi_remember_state
	.cfi_def_cfa_offset 24
	popq	%rbx
	.cfi_def_cfa_offset 16
.LVL508:
	popq	%rbp
	.cfi_def_cfa_offset 8
	ret
.LVL509:
.L300:
	.cfi_restore_state
	.loc 1 263 0 discriminator 1
	call	_ZL11synchronizev
.LVL510:
	jmp	.L298
	.cfi_endproc
.LFE131:
	.size	_Z17avr_read_registerh, .-_Z17avr_read_registerh
	.globl	_Z12avr_read_bithh
	.type	_Z12avr_read_bithh, @function
_Z12avr_read_bithh:
.LFB132:
	.loc 1 271 0
	.cfi_startproc
.LVL511:
	pushq	%r12
	.cfi_def_cfa_offset 16
	.cfi_offset 12, -16
	pushq	%rbp
	.cfi_def_cfa_offset 24
	.cfi_offset 6, -24
	pushq	%rbx
	.cfi_def_cfa_offset 32
	.cfi_offset 3, -32
	.loc 1 275 0
	movl	$1, %ebx
	.loc 1 274 0
	cmpb	$36, %dil
	je	.L301
	movl	%edi, %ebp
	movl	%esi, %ecx
	.loc 1 277 0
	movl	$1, %r12d
	sall	%cl, %r12d
.LVL512:
	.loc 1 279 0
	call	_Z14init_simulatorv
.LVL513:
	.loc 1 280 0
	cmpb	$10, %bpl
	jbe	.L306
.L303:
	.loc 1 281 0
	movl	_ZL8sem_regs(%rip), %edi
	call	_Z1Pi
.LVL514:
	.loc 1 283 0
	movzbl	%bpl, %ebp
	movq	_ZL4regs(%rip), %rax
	testb	%r12b, -22(%rax,%rbp)
	setne	%bl
.LVL515:
	.loc 1 284 0
	movl	_ZL8sem_regs(%rip), %edi
	call	_Z1Vi
.LVL516:
	.loc 1 285 0
	call	_ZL9may_sleepv
.LVL517:
.L301:
	.loc 1 287 0
	movl	%ebx, %eax
	popq	%rbx
	.cfi_remember_state
	.cfi_def_cfa_offset 24
	popq	%rbp
	.cfi_def_cfa_offset 16
	popq	%r12
	.cfi_def_cfa_offset 8
	ret
.LVL518:
.L306:
	.cfi_restore_state
	.loc 1 280 0 discriminator 1
	call	_ZL11synchronizev
.LVL519:
	jmp	.L303
	.cfi_endproc
.LFE132:
	.size	_Z12avr_read_bithh, .-_Z12avr_read_bithh
	.section	.rodata.str1.8
	.align 8
.LC35:
	.string	"Warning: the avr clears PORT%c.R%c%d when DDR%c=0x%02X\n"
	.text
	.globl	_Z13avr_clear_bithh
	.type	_Z13avr_clear_bithh, @function
_Z13avr_clear_bithh:
.LFB133:
	.loc 1 289 0
	.cfi_startproc
.LVL520:
	pushq	%r12
	.cfi_def_cfa_offset 16
	.cfi_offset 12, -16
	pushq	%rbp
	.cfi_def_cfa_offset 24
	.cfi_offset 6, -24
	pushq	%rbx
	.cfi_def_cfa_offset 32
	.cfi_offset 3, -32
	movl	%edi, %ebx
	movl	%esi, %r12d
	.loc 1 291 0
	call	_Z14init_simulatorv
.LVL521:
	.loc 1 292 0
	movl	_ZL8sem_regs(%rip), %edi
	call	_Z1Pi
.LVL522:
.LBB817:
	.loc 1 294 0
	movq	_ZL4regs(%rip), %r8
	movzbl	%bl, %eax
	addq	%r8, %rax
	movzbl	(%rax), %esi
.LVL523:
	.loc 1 295 0
	movzbl	%r12b, %ecx
	movl	$1, %edi
	sall	%cl, %edi
.LVL524:
	.loc 1 296 0
	movl	%edi, %edx
	notl	%edx
	andl	%esi, %edx
.LVL525:
.LBB818:
	.loc 1 297 0
	cmpb	$10, %bl
	ja	.L308
.LBB819:
	.loc 1 298 0
	cmpb	%dl, %sil
	je	.L309
.LBB820:
	.loc 1 299 0
	movzbl	%bl, %esi
.LVL526:
	leal	11(%rsi), %r9d
.LVL527:
	.loc 1 300 0
	movslq	%r9d, %r9
	movzbl	(%r8,%r9), %r9d
.LVL528:
.LBB821:
	.loc 1 301 0
	testb	%dil, %r9b
	jne	.L310
.LVL529:
.LBB822:
	.loc 1 302 0
	addl	$65, %ebx
.LVL530:
	.loc 1 303 0
	movsbl	%bl, %ebx
.LVL531:
	movzbl	%r9b, %r9d
.LVL532:
.LBB823:
.LBB824:
	.loc 5 98 0
	pushq	%r9
	.cfi_def_cfa_offset 40
.LVL533:
	pushq	%rbx
	.cfi_def_cfa_offset 48
	movl	%ecx, %r9d
.LVL534:
	movl	%ebx, %r8d
	movl	%ebx, %ecx
	leaq	.LC35(%rip), %rdx
.LVL535:
	movl	$1, %esi
.LVL536:
	movq	stderr(%rip), %rdi
.LVL537:
	movl	$0, %eax
	call	__fprintf_chk@PLT
.LVL538:
	addq	$16, %rsp
	.cfi_def_cfa_offset 32
	jmp	.L309
.LVL539:
.L310:
.LBE824:
.LBE823:
.LBE822:
	.loc 1 307 0
	movb	%dl, (%rax)
.LVL540:
	.loc 1 308 0
	movzbl	%dl, %edx
.LVL541:
.LBB825:
.LBB826:
	.loc 1 165 0
	movl	$87, %edi
.LVL542:
	call	_ZL10send_writecih
.LVL543:
	jmp	.L309
.LVL544:
.L308:
.LBE826:
.LBE825:
.LBE821:
.LBE820:
.LBE819:
	.loc 1 311 0
	leal	-11(%rbx), %ecx
	cmpb	$10, %cl
	ja	.L311
	.loc 1 312 0
	cmpb	%dl, %sil
	je	.L309
	.loc 1 313 0
	movb	%dl, (%rax)
.LVL545:
	.loc 1 314 0
	movzbl	%dl, %edx
.LVL546:
	movzbl	%bl, %esi
.LVL547:
.LBB827:
.LBB828:
	.loc 1 169 0
	subl	$11, %esi
.LVL548:
	movl	$84, %edi
.LVL549:
	call	_ZL10send_writecih
.LVL550:
	jmp	.L309
.LVL551:
.L311:
.LBE828:
.LBE827:
	.loc 1 317 0
	movb	%dl, (%rax)
.LVL552:
.L309:
.LBE818:
.LBE817:
	.loc 1 320 0
	movl	_ZL8sem_regs(%rip), %edi
	call	_Z1Vi
.LVL553:
	.loc 1 321 0
	call	_ZL9may_sleepv
.LVL554:
	.loc 1 322 0
	popq	%rbx
	.cfi_def_cfa_offset 24
	popq	%rbp
	.cfi_def_cfa_offset 16
	popq	%r12
	.cfi_def_cfa_offset 8
.LVL555:
	ret
	.cfi_endproc
.LFE133:
	.size	_Z13avr_clear_bithh, .-_Z13avr_clear_bithh
	.globl	_Z18caml_avr_clear_bitii
	.type	_Z18caml_avr_clear_bitii, @function
_Z18caml_avr_clear_bitii:
.LFB575:
	.loc 8 22 0
	.cfi_startproc
.LVL556:
	subq	$8, %rsp
	.cfi_def_cfa_offset 16
	.loc 8 23 0
	sarl	%esi
.LVL557:
	movzbl	%sil, %esi
	sarl	%edi
.LVL558:
	movzbl	%dil, %edi
	call	_Z13avr_clear_bithh
.LVL559:
	.loc 8 25 0
	movl	$1, %eax
	addq	$8, %rsp
	.cfi_def_cfa_offset 8
	ret
	.cfi_endproc
.LFE575:
	.size	_Z18caml_avr_clear_bitii, .-_Z18caml_avr_clear_bitii
	.section	.rodata.str1.8
	.align 8
.LC36:
	.string	"Warning : PIN%c is only a read register, it shouldn't be written\n"
	.text
	.globl	_Z11avr_set_bithh
	.type	_Z11avr_set_bithh, @function
_Z11avr_set_bithh:
.LFB137:
	.loc 1 338 0
	.cfi_startproc
.LVL560:
	pushq	%r12
	.cfi_def_cfa_offset 16
	.cfi_offset 12, -16
	pushq	%rbp
	.cfi_def_cfa_offset 24
	.cfi_offset 6, -24
	pushq	%rbx
	.cfi_def_cfa_offset 32
	.cfi_offset 3, -32
	movl	%edi, %ebx
	movl	%esi, %r12d
	.loc 1 340 0
	call	_Z14init_simulatorv
.LVL561:
	.loc 1 341 0
	movl	_ZL8sem_regs(%rip), %edi
	call	_Z1Pi
.LVL562:
	.loc 1 342 0
	movzbl	%bl, %eax
	addq	_ZL4regs(%rip), %rax
	movzbl	(%rax), %esi
.LVL563:
	.loc 1 343 0
	movl	$1, %edx
	movl	%r12d, %ecx
	sall	%cl, %edx
	.loc 1 344 0
	orl	%esi, %edx
.LVL564:
.LBB839:
	.loc 1 345 0
	cmpb	$10, %bl
	ja	.L316
	.loc 1 346 0
	cmpb	%dl, %sil
	jne	.L321
.LVL565:
.L317:
.LBE839:
	.loc 1 377 0
	movl	_ZL8sem_regs(%rip), %edi
	call	_Z1Vi
.LVL566:
	.loc 1 378 0
	call	_ZL9may_sleepv
.LVL567:
	.loc 1 379 0
	popq	%rbx
	.cfi_remember_state
	.cfi_def_cfa_offset 24
	popq	%rbp
	.cfi_def_cfa_offset 16
	popq	%r12
	.cfi_def_cfa_offset 8
.LVL568:
	ret
.LVL569:
.L321:
	.cfi_restore_state
.LBB849:
	.loc 1 356 0
	movb	%dl, (%rax)
.LVL570:
	.loc 1 357 0
	movzbl	%dl, %edx
.LVL571:
	movzbl	%bl, %esi
.LVL572:
.LBB840:
.LBB841:
	.loc 1 165 0
	movl	$87, %edi
	call	_ZL10send_writecih
.LVL573:
	jmp	.L317
.LVL574:
.L316:
.LBE841:
.LBE840:
.LBB842:
	.loc 1 361 0
	leal	-11(%rbx), %ecx
.LVL575:
	cmpb	$10, %cl
	ja	.L318
	.loc 1 362 0
	cmpb	%dl, %sil
	je	.L317
	.loc 1 363 0
	movb	%dl, (%rax)
.LVL576:
	.loc 1 364 0
	movzbl	%dl, %edx
.LVL577:
	movzbl	%bl, %esi
.LVL578:
.LBB843:
.LBB844:
	.loc 1 169 0
	subl	$11, %esi
.LVL579:
	movl	$84, %edi
	call	_ZL10send_writecih
.LVL580:
	jmp	.L317
.LVL581:
.L318:
.LBE844:
.LBE843:
.LBB845:
	.loc 1 367 0
	leal	-22(%rbx), %ecx
	cmpb	$10, %cl
	jbe	.L322
	.loc 1 373 0
	movb	%dl, (%rax)
	jmp	.L317
.L322:
.LVL582:
.LBB846:
	.loc 1 368 0
	leal	43(%rbx), %ecx
	.loc 1 369 0
	movsbl	%cl, %ecx
.LBB847:
.LBB848:
	.loc 5 98 0
	leaq	.LC36(%rip), %rdx
.LVL583:
	movl	$1, %esi
.LVL584:
	movq	stderr(%rip), %rdi
	movl	$0, %eax
.LVL585:
	call	__fprintf_chk@PLT
.LVL586:
	jmp	.L317
.LBE848:
.LBE847:
.LBE846:
.LBE845:
.LBE842:
.LBE849:
	.cfi_endproc
.LFE137:
	.size	_Z11avr_set_bithh, .-_Z11avr_set_bithh
	.globl	_Z16caml_avr_set_bitii
	.type	_Z16caml_avr_set_bitii, @function
_Z16caml_avr_set_bitii:
.LFB574:
	.loc 8 17 0
	.cfi_startproc
.LVL587:
	subq	$8, %rsp
	.cfi_def_cfa_offset 16
	.loc 8 18 0
	sarl	%esi
.LVL588:
	movzbl	%sil, %esi
	sarl	%edi
.LVL589:
	movzbl	%dil, %edi
	call	_Z11avr_set_bithh
.LVL590:
	.loc 8 20 0
	movl	$1, %eax
	addq	$8, %rsp
	.cfi_def_cfa_offset 8
	ret
	.cfi_endproc
.LFE574:
	.size	_Z16caml_avr_set_bitii, .-_Z16caml_avr_set_bitii
	.section	.rodata.str1.1
.LC37:
	.string	"adc init\n"
	.text
	.globl	_Z12avr_adc_initv
	.type	_Z12avr_adc_initv, @function
_Z12avr_adc_initv:
.LFB145:
	.loc 1 563 0
	.cfi_startproc
	subq	$8, %rsp
	.cfi_def_cfa_offset 16
.LVL591:
.LBB850:
.LBB851:
	.loc 5 104 0
	leaq	.LC37(%rip), %rsi
	movl	$1, %edi
	movl	$0, %eax
	call	__printf_chk@PLT
.LVL592:
.LBE851:
.LBE850:
	.loc 1 565 0
	call	_Z14init_simulatorv
.LVL593:
	.loc 1 567 0
	addq	$8, %rsp
	.cfi_def_cfa_offset 8
	ret
	.cfi_endproc
.LFE145:
	.size	_Z12avr_adc_initv, .-_Z12avr_adc_initv
	.globl	_Z15avr_analog_readh
	.type	_Z15avr_analog_readh, @function
_Z15avr_analog_readh:
.LFB146:
	.loc 1 571 0
	.cfi_startproc
.LVL594:
	.loc 1 576 0
	movzbl	%dil, %edi
	movq	_ZL7analogs(%rip), %rax
	movl	(%rax,%rdi,4), %eax
	.loc 1 577 0
	ret
	.cfi_endproc
.LFE146:
	.size	_Z15avr_analog_readh, .-_Z15avr_analog_readh
	.section	.rodata.str1.1
.LC38:
	.string	"serial init\n"
	.text
	.globl	_Z15avr_serial_initv
	.type	_Z15avr_serial_initv, @function
_Z15avr_serial_initv:
.LFB147:
	.loc 1 579 0
	.cfi_startproc
	subq	$8, %rsp
	.cfi_def_cfa_offset 16
	.loc 1 580 0
	call	_Z14init_simulatorv
.LVL595:
.LBB852:
.LBB853:
	.loc 5 104 0
	leaq	.LC38(%rip), %rsi
	movl	$1, %edi
	movl	$0, %eax
	call	__printf_chk@PLT
.LVL596:
.LBE853:
.LBE852:
	.loc 1 582 0
	movl	$3, %esi
	movl	$15, %edi
	call	_Z11avr_set_bithh
.LVL597:
	.loc 1 583 0
	addq	$8, %rsp
	.cfi_def_cfa_offset 8
	ret
	.cfi_endproc
.LFE147:
	.size	_Z15avr_serial_initv, .-_Z15avr_serial_initv
	.section	.rodata.str1.1
.LC39:
	.string	"serial read\n"
	.text
	.globl	_Z15avr_serial_readv
	.type	_Z15avr_serial_readv, @function
_Z15avr_serial_readv:
.LFB148:
	.loc 1 587 0
	.cfi_startproc
	subq	$8, %rsp
	.cfi_def_cfa_offset 16
.LVL598:
.LBB854:
.LBB855:
	.loc 5 104 0
	leaq	.LC39(%rip), %rsi
	movl	$1, %edi
	movl	$0, %eax
	call	__printf_chk@PLT
.LVL599:
.LBE855:
.LBE854:
	.loc 1 589 0
	movl	$2, %esi
	movl	$3, %edi
	call	_Z11avr_set_bithh
.LVL600:
	.loc 1 590 0
	movl	$10000, %edi
	call	usleep@PLT
.LVL601:
	.loc 1 591 0
	movl	$2, %esi
	movl	$3, %edi
	call	_Z13avr_clear_bithh
.LVL602:
	.loc 1 593 0
	movl	$48, %eax
	addq	$8, %rsp
	.cfi_def_cfa_offset 8
	ret
	.cfi_endproc
.LFE148:
	.size	_Z15avr_serial_readv, .-_Z15avr_serial_readv
	.section	.rodata.str1.1
.LC40:
	.string	"serial write(%c)\n"
	.text
	.globl	_Z16avr_serial_writec
	.type	_Z16avr_serial_writec, @function
_Z16avr_serial_writec:
.LFB149:
	.loc 1 595 0
	.cfi_startproc
.LVL603:
	subq	$8, %rsp
	.cfi_def_cfa_offset 16
.LVL604:
	.loc 1 596 0
	movsbl	%dil, %edx
.LBB856:
.LBB857:
	.loc 5 104 0
	leaq	.LC40(%rip), %rsi
	movl	$1, %edi
.LVL605:
	movl	$0, %eax
	call	__printf_chk@PLT
.LVL606:
.LBE857:
.LBE856:
	.loc 1 597 0
	movl	$3, %esi
	movl	$3, %edi
	call	_Z11avr_set_bithh
.LVL607:
	.loc 1 598 0
	movl	$10000, %edi
	call	usleep@PLT
.LVL608:
	.loc 1 599 0
	movl	$3, %esi
	movl	$3, %edi
	call	_Z13avr_clear_bithh
.LVL609:
	.loc 1 600 0
	addq	$8, %rsp
	.cfi_def_cfa_offset 8
	ret
	.cfi_endproc
.LFE149:
	.size	_Z16avr_serial_writec, .-_Z16avr_serial_writec
	.globl	_Z11device_initPPKc
	.type	_Z11device_initPPKc, @function
_Z11device_initPPKc:
.LFB150:
	.file 10 "/home/adilla/Documents/VmMic/Tools/OMicroBPIC32/src/byterun/simul/arch-specific.c"
	.loc 10 10 0
	.cfi_startproc
.LVL610:
	.loc 10 11 0
	movq	%rdi, global_argv(%rip)
	.loc 10 12 0
	ret
	.cfi_endproc
.LFE150:
	.size	_Z11device_initPPKc, .-_Z11device_initPPKc
	.globl	_Z13device_finishv
	.type	_Z13device_finishv, @function
_Z13device_finishv:
.LFB151:
	.loc 10 18 0
	.cfi_startproc
	.loc 10 22 0
	rep ret
	.cfi_endproc
.LFE151:
	.size	_Z13device_finishv, .-_Z13device_finishv
	.section	.rodata.str1.1
.LC41:
	.string	"Error: uncaught exception: "
.LC42:
	.string	"%c"
.LC43:
	.string	" \""
.LC44:
	.string	"\""
.LC45:
	.string	"\n"
	.text
	.globl	_Z18uncaught_exceptioni
	.type	_Z18uncaught_exceptioni, @function
_Z18uncaught_exceptioni:
.LFB152:
	.loc 10 28 0
	.cfi_startproc
.LVL611:
	pushq	%r15
	.cfi_def_cfa_offset 16
	.cfi_offset 15, -16
	pushq	%r14
	.cfi_def_cfa_offset 24
	.cfi_offset 14, -24
	pushq	%r13
	.cfi_def_cfa_offset 32
	.cfi_offset 13, -32
	pushq	%r12
	.cfi_def_cfa_offset 40
	.cfi_offset 12, -40
	pushq	%rbp
	.cfi_def_cfa_offset 48
	.cfi_offset 6, -48
	pushq	%rbx
	.cfi_def_cfa_offset 56
	.cfi_offset 3, -56
	subq	$8, %rsp
	.cfi_def_cfa_offset 64
	movl	%edi, %r12d
	.loc 10 32 0
	movl	%edi, %r15d
	andl	$3, %r15d
	jne	.L337
	.loc 10 32 0 is_stmt 0 discriminator 1
	movl	%edi, %eax
	shrl	$22, %eax
	cmpw	$511, %ax
	je	.L402
.L337:
	.loc 10 35 0 is_stmt 1
	movl	%r12d, %eax
	shrl	$16, %eax
	movzbl	%al, %eax
	andl	$32, %eax
	movl	%eax, %edx
	jne	.L342
.L340:
	.loc 10 35 0 is_stmt 0 discriminator 1
	movl	%r12d, %eax
	sall	$12, %eax
	sarl	$12, %eax
	cltq
	leaq	ocaml_ram_heap(%rip), %rdx
	movl	(%rdx,%rax), %eax
	testl	$2097152, %eax
	je	.L357
.L358:
	.loc 10 35 0 discriminator 12
	movl	%r12d, %eax
	sall	$12, %eax
	sarl	$12, %eax
	cltq
	leaq	ocaml_ram_heap(%rip), %rdx
	movl	(%rdx,%rax), %eax
	andl	$1048575, %eax
	leaq	_ZL16ocaml_flash_heap(%rip), %rdx
	addq	%rdx, %rax
.L363:
	.loc 10 35 0 discriminator 15
	movl	(%rax), %r14d
	jmp	.L356
.L402:
	.loc 10 32 0 is_stmt 1 discriminator 2
	movl	%edi, %eax
	shrl	$16, %eax
	movzbl	%al, %eax
	andl	$32, %eax
	movl	%eax, %edx
	jne	.L338
	.loc 10 32 0 is_stmt 0 discriminator 3
	movl	%edi, %eax
	sall	$12, %eax
	sarl	$12, %eax
	cltq
	leaq	-4+ocaml_ram_heap(%rip), %rdx
	movl	(%rdx,%rax), %edx
	movl	%edx, %ecx
	sarl	$24, %ecx
	cmpb	$-8, %cl
	jne	.L340
	.loc 10 32 0 discriminator 6
	testl	$16777212, %edx
	je	.L340
	.loc 10 32 0 discriminator 9
	leaq	ocaml_ram_heap(%rip), %rdx
	movl	(%rdx,%rax), %eax
	testb	$3, %al
	jne	.L340
	.loc 10 32 0 discriminator 12
	movl	%eax, %edx
	shrl	$22, %edx
	cmpw	$511, %dx
	jne	.L340
	.loc 10 32 0 discriminator 15
	testl	$2097152, %eax
	je	.L349
	.loc 10 32 0 discriminator 25
	movl	%edi, %eax
	sall	$12, %eax
	sarl	$12, %eax
	cltq
	leaq	ocaml_ram_heap(%rip), %rdx
	movl	(%rdx,%rax), %eax
	andl	$1048575, %eax
	leaq	-4+_ZL16ocaml_flash_heap(%rip), %rdx
	cmpb	$-4, 3(%rdx,%rax)
	jne	.L340
.L353:
	.loc 10 33 0 is_stmt 1 discriminator 1
	movl	%r12d, %eax
	sall	$12, %eax
	sarl	$12, %eax
	cltq
	leaq	ocaml_ram_heap(%rip), %rdx
	movl	(%rdx,%rax), %r14d
	jmp	.L356
.L338:
	.loc 10 32 0 discriminator 4
	movl	%edi, %ecx
	andl	$1048575, %ecx
	leaq	-4+_ZL16ocaml_flash_heap(%rip), %rax
	movl	(%rax,%rcx), %eax
	movl	%eax, %esi
	sarl	$24, %esi
	cmpb	$-8, %sil
	je	.L403
.L342:
	.loc 10 35 0 discriminator 2
	movl	%r12d, %eax
	andl	$1048575, %eax
	leaq	_ZL16ocaml_flash_heap(%rip), %rcx
	movl	(%rcx,%rax), %eax
	testl	$2097152, %eax
	je	.L359
	.loc 10 35 0 is_stmt 0 discriminator 6
	testl	%edx, %edx
	je	.L358
	.loc 10 35 0 discriminator 13
	movl	%r12d, %eax
	andl	$1048575, %eax
	leaq	_ZL16ocaml_flash_heap(%rip), %rdx
	movl	(%rdx,%rax), %eax
	andl	$1048575, %eax
	addq	%rdx, %rax
	jmp	.L363
.L403:
	.loc 10 32 0 is_stmt 1 discriminator 7
	testl	$16777212, %eax
	je	.L342
	.loc 10 32 0 is_stmt 0 discriminator 10
	leaq	_ZL16ocaml_flash_heap(%rip), %rax
	movl	(%rax,%rcx), %eax
	testb	$3, %al
	jne	.L342
	.loc 10 32 0 discriminator 13
	movl	%eax, %ecx
	shrl	$22, %ecx
	cmpw	$511, %cx
	jne	.L342
	.loc 10 32 0 discriminator 16
	testl	$2097152, %eax
	je	.L351
	.loc 10 32 0 discriminator 26
	movl	%edi, %eax
	andl	$1048575, %eax
	leaq	_ZL16ocaml_flash_heap(%rip), %rdx
	movl	(%rdx,%rax), %eax
	andl	$1048575, %eax
	leaq	-4(%rdx), %rdx
	cmpb	$-4, 3(%rdx,%rax)
	je	.L354
.L355:
	.loc 10 35 0 is_stmt 1
	movl	%r12d, %eax
	shrl	$16, %eax
	movzbl	%al, %eax
	andl	$32, %eax
	movl	%eax, %edx
	jmp	.L342
.L349:
	.loc 10 32 0 discriminator 21
	sall	$12, %eax
	sarl	$12, %eax
	cltq
	leaq	-4+ocaml_ram_heap(%rip), %rdx
	cmpb	$-4, 3(%rdx,%rax)
	jne	.L340
	jmp	.L353
.L351:
	.loc 10 32 0 is_stmt 0 discriminator 22
	sall	$12, %eax
	sarl	$12, %eax
	cltq
	leaq	-4+ocaml_ram_heap(%rip), %rdx
	cmpb	$-4, 3(%rdx,%rax)
	jne	.L355
.L354:
	.loc 10 33 0 is_stmt 1 discriminator 2
	movl	%r12d, %eax
	andl	$1048575, %eax
	leaq	_ZL16ocaml_flash_heap(%rip), %rdx
	movl	(%rdx,%rax), %r14d
	jmp	.L356
.L357:
	.loc 10 35 0 discriminator 7
	sall	$12, %eax
	sarl	$12, %eax
	cltq
	leaq	ocaml_ram_heap(%rip), %rdx
	addq	%rdx, %rax
.L361:
	.loc 10 35 0 is_stmt 0 discriminator 10
	movl	(%rax), %r14d
.L356:
.LVL612:
.LBB858:
.LBB859:
	.loc 5 104 0 is_stmt 1
	leaq	.LC41(%rip), %rsi
	movl	$1, %edi
.LVL613:
	movl	$0, %eax
	call	__printf_chk@PLT
.LVL614:
.LBE859:
.LBE858:
	.loc 10 39 0
	movl	%r14d, %ebp
	shrl	$16, %ebp
	movzbl	%bpl, %ebp
	andl	$32, %ebp
	jne	.L364
	.loc 10 39 0 is_stmt 0 discriminator 1
	movl	%r14d, %eax
	sall	$12, %eax
	sarl	$12, %eax
	cltq
	leaq	ocaml_ram_heap(%rip), %rdx
	movzbl	(%rdx,%rax), %edx
.L365:
.LVL615:
	.loc 10 40 0 is_stmt 1
	testb	%dl, %dl
	je	.L366
	.loc 10 43 0
	movl	%r14d, %r13d
	sall	$12, %r13d
	sarl	$12, %r13d
	movslq	%r13d, %r13
	movl	$0, %ebx
	andl	$1048575, %r14d
.LVL616:
	leaq	_ZL16ocaml_flash_heap(%rip), %rax
	addq	%rax, %r14
	jmp	.L367
.LVL617:
.L359:
	.loc 10 35 0 discriminator 8
	sall	$12, %eax
	sarl	$12, %eax
	cltq
	leaq	ocaml_ram_heap(%rip), %rdx
	addq	%rdx, %rax
	jmp	.L361
.LVL618:
.L364:
	.loc 10 39 0 discriminator 2
	movl	%r14d, %eax
	andl	$1048575, %eax
	leaq	_ZL16ocaml_flash_heap(%rip), %rdx
	movzbl	(%rdx,%rax), %edx
	jmp	.L365
.LVL619:
.L368:
	.loc 10 43 0 discriminator 2
	movslq	%ebx, %rax
.LVL620:
	movzbl	(%r14,%rax), %edx
.LVL621:
.L369:
	.loc 10 40 0
	testb	%dl, %dl
	je	.L366
.LVL622:
.L367:
	.loc 10 41 0
	movsbl	%dl, %edx
.LBB860:
.LBB861:
	.loc 5 104 0
	leaq	.LC42(%rip), %rsi
	movl	$1, %edi
	movl	$0, %eax
	call	__printf_chk@PLT
.LVL623:
.LBE861:
.LBE860:
	.loc 10 42 0
	addl	$1, %ebx
.LVL624:
	.loc 10 43 0
	testl	%ebp, %ebp
	jne	.L368
	.loc 10 43 0 is_stmt 0 discriminator 1
	movslq	%ebx, %rax
	leaq	ocaml_ram_heap(%rip), %rdx
	addq	%r13, %rdx
	movzbl	(%rdx,%rax), %edx
	jmp	.L369
.LVL625:
.L366:
	.loc 10 45 0 is_stmt 1
	testl	%r15d, %r15d
	jne	.L370
	.loc 10 45 0 is_stmt 0 discriminator 1
	movl	%r12d, %eax
	shrl	$22, %eax
	cmpw	$511, %ax
	je	.L404
.LVL626:
.L370:
.LBB862:
.LBB863:
	.loc 5 104 0 is_stmt 1
	leaq	.LC45(%rip), %rsi
	movl	$1, %edi
	movl	$0, %eax
	call	__printf_chk@PLT
.LVL627:
.LBE863:
.LBE862:
	.loc 10 58 0
	addq	$8, %rsp
	.cfi_remember_state
	.cfi_def_cfa_offset 56
	popq	%rbx
	.cfi_def_cfa_offset 48
	popq	%rbp
	.cfi_def_cfa_offset 40
	popq	%r12
	.cfi_def_cfa_offset 32
	popq	%r13
	.cfi_def_cfa_offset 24
	popq	%r14
	.cfi_def_cfa_offset 16
	popq	%r15
	.cfi_def_cfa_offset 8
	ret
.LVL628:
.L404:
	.cfi_restore_state
	.loc 10 45 0 discriminator 2
	movl	%r12d, %eax
	shrl	$16, %eax
	movzbl	%al, %eax
	andl	$32, %eax
	movl	%eax, %ebx
	jne	.L371
	.loc 10 45 0 is_stmt 0 discriminator 3
	movl	%r12d, %eax
	sall	$12, %eax
	sarl	$12, %eax
	cltq
	leaq	-4+ocaml_ram_heap(%rip), %rdx
	movl	(%rdx,%rax), %edx
	movl	%edx, %ecx
	sarl	$24, %ecx
	testb	%cl, %cl
	jne	.L370
	.loc 10 45 0 discriminator 8
	sarl	$2, %edx
	andl	$4194303, %edx
	cmpl	$1, %edx
	jbe	.L370
	.loc 10 45 0 discriminator 13
	leaq	4+ocaml_ram_heap(%rip), %rdx
	movl	(%rdx,%rax), %eax
	testb	$3, %al
	jne	.L370
	.loc 10 45 0 discriminator 18
	movl	%eax, %edx
	shrl	$22, %edx
	cmpw	$511, %dx
	jne	.L370
	.loc 10 45 0 discriminator 23
	testl	$2097152, %eax
	jne	.L405
	.loc 10 45 0 discriminator 29
	movl	%r12d, %eax
	sall	$12, %eax
	sarl	$12, %eax
	cltq
	leaq	4+ocaml_ram_heap(%rip), %rdx
	movl	(%rdx,%rax), %eax
	sall	$12, %eax
	sarl	$12, %eax
	cltq
	leaq	-4(%rdx), %rdx
	leaq	-4(%rdx,%rax), %rax
.L384:
	.loc 10 45 0 discriminator 32
	cmpb	$-4, 3(%rax)
	sete	%al
.L385:
	.loc 10 45 0 discriminator 38
	testb	%al, %al
	je	.L370
.LVL629:
.LBB864:
.LBB865:
	.loc 5 104 0 is_stmt 1
	leaq	.LC43(%rip), %rsi
	movl	$1, %edi
	movl	$0, %eax
	call	__printf_chk@PLT
.LVL630:
.LBE865:
.LBE864:
	.loc 10 47 0
	testl	%ebx, %ebx
	jne	.L387
	.loc 10 47 0 is_stmt 0 discriminator 1
	movl	%r12d, %eax
	sall	$12, %eax
	sarl	$12, %eax
	cltq
	leaq	4+ocaml_ram_heap(%rip), %rdx
	movl	(%rdx,%rax), %edx
.LVL631:
.L388:
	.loc 10 49 0 is_stmt 1 discriminator 4
	movl	%edx, %ebx
	shrl	$16, %ebx
	movzbl	%bl, %ebx
	andl	$32, %ebx
	jne	.L389
	.loc 10 49 0 is_stmt 0 discriminator 1
	movl	%edx, %eax
	sall	$12, %eax
	sarl	$12, %eax
	cltq
	leaq	ocaml_ram_heap(%rip), %rcx
	movzbl	(%rcx,%rax), %eax
.L390:
.LVL632:
	.loc 10 50 0 is_stmt 1
	testb	%al, %al
	je	.L391
	.loc 10 53 0
	movl	%edx, %ebp
	sall	$12, %ebp
	sarl	$12, %ebp
	movslq	%ebp, %rbp
	andl	$1048575, %edx
.LVL633:
	leaq	_ZL16ocaml_flash_heap(%rip), %r12
	addq	%rdx, %r12
	jmp	.L392
.LVL634:
.L371:
	.loc 10 45 0 discriminator 4
	movl	%r12d, %edx
	andl	$1048575, %edx
	leaq	-4+_ZL16ocaml_flash_heap(%rip), %rax
	movl	(%rax,%rdx), %eax
	movl	%eax, %ecx
	sarl	$24, %ecx
	testb	%cl, %cl
	jne	.L370
	.loc 10 45 0 is_stmt 0 discriminator 9
	sarl	$2, %eax
	andl	$4194303, %eax
	cmpl	$1, %eax
	jbe	.L370
	.loc 10 45 0 discriminator 14
	leaq	4+_ZL16ocaml_flash_heap(%rip), %rax
	movl	(%rax,%rdx), %eax
	testb	$3, %al
	jne	.L370
	.loc 10 45 0 discriminator 19
	movl	%eax, %edx
	shrl	$22, %edx
	cmpw	$511, %dx
	jne	.L370
	.loc 10 45 0 discriminator 24
	testl	$2097152, %eax
	je	.L382
	.loc 10 45 0 discriminator 35
	andl	$1048575, %eax
	leaq	_ZL16ocaml_flash_heap(%rip), %rdx
	leaq	-4(%rdx,%rax), %rax
	jmp	.L386
.L382:
	.loc 10 45 0 discriminator 30
	movl	%r12d, %eax
	andl	$1048575, %eax
	leaq	4+_ZL16ocaml_flash_heap(%rip), %rdx
	movl	(%rdx,%rax), %eax
	sall	$12, %eax
	sarl	$12, %eax
	cltq
	leaq	ocaml_ram_heap(%rip), %rdx
	leaq	-4(%rdx,%rax), %rax
	jmp	.L384
.L405:
	.loc 10 45 0 discriminator 34
	andl	$1048575, %eax
	leaq	_ZL16ocaml_flash_heap(%rip), %rdx
	leaq	-4(%rdx,%rax), %rax
.L386:
	.loc 10 45 0 discriminator 37
	cmpb	$-4, 3(%rax)
	sete	%al
	jmp	.L385
.L387:
	.loc 10 47 0 is_stmt 1 discriminator 2
	andl	$1048575, %r12d
.LVL635:
	leaq	4+_ZL16ocaml_flash_heap(%rip), %rax
	movl	(%rax,%r12), %edx
	jmp	.L388
.LVL636:
.L389:
	.loc 10 49 0 discriminator 2
	movl	%edx, %eax
	andl	$1048575, %eax
	leaq	_ZL16ocaml_flash_heap(%rip), %rcx
	movzbl	(%rcx,%rax), %eax
	jmp	.L390
.LVL637:
.L393:
	.loc 10 53 0 discriminator 2
	movslq	%r15d, %rax
.LVL638:
	movzbl	(%r12,%rax), %eax
.LVL639:
.L394:
	.loc 10 50 0
	testb	%al, %al
	je	.L391
.LVL640:
.L392:
	.loc 10 51 0
	movsbl	%al, %edx
.LBB866:
.LBB867:
	.loc 5 104 0
	leaq	.LC42(%rip), %rsi
	movl	$1, %edi
	movl	$0, %eax
	call	__printf_chk@PLT
.LVL641:
.LBE867:
.LBE866:
	.loc 10 52 0
	addl	$1, %r15d
.LVL642:
	.loc 10 53 0
	testl	%ebx, %ebx
	jne	.L393
	.loc 10 53 0 is_stmt 0 discriminator 1
	movslq	%r15d, %rax
	leaq	ocaml_ram_heap(%rip), %rdx
	addq	%rbp, %rdx
	movzbl	(%rdx,%rax), %eax
	jmp	.L394
.LVL643:
.L391:
.LBB868:
.LBB869:
	.loc 5 104 0 is_stmt 1
	leaq	.LC44(%rip), %rsi
	movl	$1, %edi
	movl	$0, %eax
	call	__printf_chk@PLT
.LVL644:
	jmp	.L370
.LBE869:
.LBE868:
	.cfi_endproc
.LFE152:
	.size	_Z18uncaught_exceptioni, .-_Z18uncaught_exceptioni
	.section	.rodata.str1.1
.LC46:
	.string	"%ld"
	.text
	.globl	_Z12format_int64Pcii
	.type	_Z12format_int64Pcii, @function
_Z12format_int64Pcii:
.LFB166:
	.loc 10 165 0
	.cfi_startproc
.LVL645:
	subq	$8, %rsp
	.cfi_def_cfa_offset 16
	.loc 10 166 0
	testb	$1, %dl
	jne	.L412
	.loc 10 166 0 is_stmt 0 discriminator 2
	testl	$2097152, %edx
	jne	.L409
	.loc 10 166 0 discriminator 4
	sall	$12, %edx
.LVL646:
	sarl	$12, %edx
	movslq	%edx, %rax
	leaq	4+ocaml_ram_heap(%rip), %rdx
	movl	(%rdx,%rax), %ecx
	leaq	4(%rdx), %rdx
	movslq	(%rdx,%rax), %r9
	salq	$32, %r9
.L410:
	.loc 10 166 0 discriminator 11
	orq	%rcx, %r9
.L408:
.LVL647:
	.loc 10 166 0 discriminator 12
	movslq	%esi, %rsi
.LVL648:
.LBB870:
.LBB871:
	.loc 5 65 0 is_stmt 1 discriminator 12
	leaq	.LC46(%rip), %r8
	movq	$-1, %rcx
	movl	$1, %edx
	movl	$0, %eax
	call	__snprintf_chk@PLT
.LVL649:
.LBE871:
.LBE870:
	.loc 10 167 0 discriminator 12
	addq	$8, %rsp
	.cfi_remember_state
	.cfi_def_cfa_offset 8
	ret
.LVL650:
.L412:
	.cfi_restore_state
	.loc 10 166 0 discriminator 1
	sarl	%edx
.LVL651:
	movslq	%edx, %r9
	jmp	.L408
.LVL652:
.L409:
	.loc 10 166 0 is_stmt 0 discriminator 5
	andl	$1048575, %edx
.LVL653:
	leaq	4+_ZL16ocaml_flash_heap(%rip), %rax
	movl	(%rax,%rdx), %ecx
	leaq	4(%rax), %rax
	movslq	(%rax,%rdx), %r9
	salq	$32, %r9
	jmp	.L410
	.cfi_endproc
.LFE166:
	.size	_Z12format_int64Pcii, .-_Z12format_int64Pcii
	.globl	_Z15caml_make_arrayi
	.type	_Z15caml_make_arrayi, @function
_Z15caml_make_arrayi:
.LFB168:
	.file 11 "/home/adilla/Documents/VmMic/Tools/OMicroBPIC32/src/byterun/vm/array.c"
	.loc 11 19 0 is_stmt 1
	.cfi_startproc
.LVL654:
	movl	%edi, %eax
	.loc 11 21 0
	ret
	.cfi_endproc
.LFE168:
	.size	_Z15caml_make_arrayi, .-_Z15caml_make_arrayi
	.section	.rodata.str1.8
	.align 8
.LC47:
	.string	"/home/adilla/Documents/VmMic/Tools/OMicroBPIC32/src/byterun/vm/array.c"
	.section	.rodata.str1.1
.LC48:
	.string	"Is_block(array)"
	.text
	.globl	_Z21caml_array_unsafe_getii
	.type	_Z21caml_array_unsafe_getii, @function
_Z21caml_array_unsafe_getii:
.LFB171:
	.loc 11 39 0
	.cfi_startproc
.LVL655:
	.loc 11 40 0
	testb	$3, %dil
	jne	.L415
	.loc 11 40 0 discriminator 1
	movl	%edi, %eax
	shrl	$22, %eax
	cmpw	$511, %ax
	jne	.L415
	.loc 11 41 0
	testl	$2097152, %edi
	je	.L421
	.loc 11 41 0 is_stmt 0 discriminator 2
	sarl	%esi
.LVL656:
	movslq	%esi, %rsi
	andl	$1048575, %edi
.LVL657:
	leaq	_ZL16ocaml_flash_heap(%rip), %rax
	leaq	(%rax,%rsi,4), %rax
	movl	(%rax,%rdi), %eax
	.loc 11 42 0 is_stmt 1 discriminator 2
	ret
.LVL658:
.L415:
	.loc 11 39 0 discriminator 3
	subq	$8, %rsp
	.cfi_def_cfa_offset 16
	.loc 11 40 0 discriminator 3
	leaq	_ZZ21caml_array_unsafe_getiiE19__PRETTY_FUNCTION__(%rip), %rcx
	movl	$40, %edx
	leaq	.LC47(%rip), %rsi
.LVL659:
	leaq	.LC48(%rip), %rdi
.LVL660:
	call	__assert_fail@PLT
.LVL661:
.L421:
	.cfi_def_cfa_offset 8
	.loc 11 41 0 discriminator 1
	sall	$12, %edi
.LVL662:
	sarl	$12, %edi
	movslq	%edi, %rdi
	sarl	%esi
.LVL663:
	movslq	%esi, %rsi
	leaq	ocaml_ram_heap(%rip), %rax
	leaq	(%rax,%rsi,4), %rax
	movl	(%rax,%rdi), %eax
	ret
	.cfi_endproc
.LFE171:
	.size	_Z21caml_array_unsafe_getii, .-_Z21caml_array_unsafe_getii
	.section	.rodata.str1.1
.LC49:
	.string	"Is_in_ram(array)"
	.text
	.globl	_Z21caml_array_unsafe_setiii
	.type	_Z21caml_array_unsafe_setiii, @function
_Z21caml_array_unsafe_setiii:
.LFB172:
	.loc 11 44 0
	.cfi_startproc
.LVL664:
	subq	$8, %rsp
	.cfi_def_cfa_offset 16
	.loc 11 45 0
	testb	$3, %dil
	jne	.L423
	.loc 11 45 0 discriminator 1
	movl	%edi, %eax
	shrl	$22, %eax
	cmpw	$511, %ax
	jne	.L423
	.loc 11 46 0
	testl	$2097152, %edi
	jne	.L427
	.loc 11 47 0
	sall	$12, %edi
.LVL665:
	sarl	$12, %edi
	movslq	%edi, %rdi
	sarl	%esi
.LVL666:
	movslq	%esi, %rsi
	leaq	ocaml_ram_heap(%rip), %rax
	leaq	(%rax,%rsi,4), %rax
	movl	%edx, (%rax,%rdi)
	.loc 11 49 0
	movl	$1, %eax
	addq	$8, %rsp
	.cfi_remember_state
	.cfi_def_cfa_offset 8
	ret
.LVL667:
.L423:
	.cfi_restore_state
	.loc 11 45 0 discriminator 3
	leaq	_ZZ21caml_array_unsafe_setiiiE19__PRETTY_FUNCTION__(%rip), %rcx
	movl	$45, %edx
.LVL668:
	leaq	.LC47(%rip), %rsi
.LVL669:
	leaq	.LC48(%rip), %rdi
.LVL670:
	call	__assert_fail@PLT
.LVL671:
.L427:
	.loc 11 46 0 discriminator 1
	leaq	_ZZ21caml_array_unsafe_setiiiE19__PRETTY_FUNCTION__(%rip), %rcx
	movl	$46, %edx
.LVL672:
	leaq	.LC47(%rip), %rsi
.LVL673:
	leaq	.LC49(%rip), %rdi
.LVL674:
	call	__assert_fail@PLT
.LVL675:
	.cfi_endproc
.LFE172:
	.size	_Z21caml_array_unsafe_setiii, .-_Z21caml_array_unsafe_setiii
	.globl	_Z15caml_array_blitiiiii
	.type	_Z15caml_array_blitiiiii, @function
_Z15caml_array_blitiiiii:
.LFB179:
	.loc 11 95 0
	.cfi_startproc
.LVL676:
	.loc 11 96 0
	sarl	%r8d
.LVL677:
	sarl	%esi
.LVL678:
	sarl	%ecx
.LVL679:
	.loc 11 97 0
	testl	%r8d, %r8d
	jle	.L435
	.loc 11 95 0
	pushq	%rbp
	.cfi_def_cfa_offset 16
	.cfi_offset 6, -16
	pushq	%rbx
	.cfi_def_cfa_offset 24
	.cfi_offset 3, -24
	.loc 11 98 0
	movl	%edi, %r10d
	shrl	$16, %r10d
	movzbl	%r10b, %r10d
	andl	$32, %r10d
	movl	%edi, %ebx
	sall	$12, %ebx
	sarl	$12, %ebx
	movslq	%ebx, %rbx
	sall	$12, %edx
.LVL680:
	sarl	$12, %edx
	movslq	%edx, %rdx
	addl	%ecx, %r8d
.LVL681:
	movl	%ecx, %eax
	subl	%ecx, %esi
.LVL682:
	andl	$1048575, %edi
.LVL683:
	leaq	_ZL16ocaml_flash_heap(%rip), %rbp
	leaq	ocaml_ram_heap(%rip), %r11
	jmp	.L432
.LVL684:
.L430:
	.loc 11 98 0 is_stmt 0 discriminator 2
	leal	(%rsi,%rax), %ecx
	movslq	%ecx, %rcx
	leaq	0(%rbp,%rcx,4), %rcx
	movl	(%rcx,%rdi), %r9d
.L431:
	.loc 11 98 0 discriminator 4
	movslq	%eax, %rcx
	leaq	(%r11,%rcx,4), %rcx
	movl	%r9d, (%rcx,%rdx)
.LVL685:
	addl	$1, %eax
.LVL686:
	.loc 11 97 0 is_stmt 1 discriminator 4
	cmpl	%r8d, %eax
	je	.L438
.LVL687:
.L432:
	.loc 11 98 0
	testl	%r10d, %r10d
	jne	.L430
	.loc 11 98 0 is_stmt 0 discriminator 1
	leal	(%rsi,%rax), %ecx
	movslq	%ecx, %rcx
	leaq	(%r11,%rcx,4), %rcx
	movl	(%rcx,%rbx), %r9d
	jmp	.L431
.L438:
	.loc 11 101 0 is_stmt 1
	movl	$1, %eax
.LVL688:
	popq	%rbx
	.cfi_def_cfa_offset 16
	popq	%rbp
	.cfi_def_cfa_offset 8
	ret
.LVL689:
.L435:
	.cfi_restore 3
	.cfi_restore 6
	movl	$1, %eax
	ret
	.cfi_endproc
.LFE179:
	.size	_Z15caml_array_blitiiiii, .-_Z15caml_array_blitiiiii
	.globl	_Z16caml_int_compareii
	.type	_Z16caml_int_compareii, @function
_Z16caml_int_compareii:
.LFB189:
	.file 12 "/home/adilla/Documents/VmMic/Tools/OMicroBPIC32/src/byterun/vm/compare.c"
	.loc 12 136 0
	.cfi_startproc
.LVL690:
	.loc 12 137 0
	cmpl	%esi, %edi
	jl	.L441
	.loc 12 137 0 is_stmt 0 discriminator 1
	setg	%al
	movzbl	%al, %eax
	leal	1(%rax,%rax), %eax
	ret
.L441:
	.loc 12 137 0
	movl	$-1, %eax
	.loc 12 138 0 is_stmt 1
	ret
	.cfi_endproc
.LFE189:
	.size	_Z16caml_int_compareii, .-_Z16caml_int_compareii
	.globl	_Z10caml_raisei
	.type	_Z10caml_raisei, @function
_Z10caml_raisei:
.LFB190:
	.file 13 "/home/adilla/Documents/VmMic/Tools/OMicroBPIC32/src/byterun/vm/fail.c"
	.loc 13 12 0
	.cfi_startproc
.LVL691:
	subq	$8, %rsp
	.cfi_def_cfa_offset 16
	.loc 13 13 0
	movl	%edi, acc(%rip)
	.loc 13 14 0
	movl	$1, %esi
	leaq	caml_exception_jmp_buf(%rip), %rdi
.LVL692:
	call	__longjmp_chk@PLT
.LVL693:
	.cfi_endproc
.LFE190:
	.size	_Z10caml_raisei, .-_Z10caml_raisei
	.globl	_Z24caml_raise_out_of_memoryv
	.type	_Z24caml_raise_out_of_memoryv, @function
_Z24caml_raise_out_of_memoryv:
.LFB191:
	.loc 13 19 0
	.cfi_startproc
	subq	$8, %rsp
	.cfi_def_cfa_offset 16
	.loc 13 20 0
	movl	$2145386504, %edi
	call	_Z10caml_raisei
.LVL694:
	.cfi_endproc
.LFE191:
	.size	_Z24caml_raise_out_of_memoryv, .-_Z24caml_raise_out_of_memoryv
	.globl	_Z25caml_raise_stack_overflowv
	.type	_Z25caml_raise_stack_overflowv, @function
_Z25caml_raise_stack_overflowv:
.LFB192:
	.loc 13 23 0
	.cfi_startproc
	subq	$8, %rsp
	.cfi_def_cfa_offset 16
	.loc 13 24 0
	movl	$2145386632, %edi
	call	_Z10caml_raisei
.LVL695:
	.cfi_endproc
.LFE192:
	.size	_Z25caml_raise_stack_overflowv, .-_Z25caml_raise_stack_overflowv
	.globl	_Z27caml_raise_division_by_zerov
	.type	_Z27caml_raise_division_by_zerov, @function
_Z27caml_raise_division_by_zerov:
.LFB193:
	.loc 13 27 0
	.cfi_startproc
	subq	$8, %rsp
	.cfi_def_cfa_offset 16
	.loc 13 28 0
	movl	$2145386596, %edi
	call	_Z10caml_raisei
.LVL696:
	.cfi_endproc
.LFE193:
	.size	_Z27caml_raise_division_by_zerov, .-_Z27caml_raise_division_by_zerov
	.globl	_Z14value_of_floatf
	.type	_Z14value_of_floatf, @function
_Z14value_of_floatf:
.LFB431:
	.file 14 "/home/adilla/Documents/VmMic/Tools/OMicroBPIC32/src/byterun/vm/float.c"
	.loc 14 85 0
	.cfi_startproc
.LVL697:
.LBB872:
	.loc 14 86 0
	ucomiss	%xmm0, %xmm0
	jp	.L455
.LBB873:
	.loc 14 88 0
	ucomiss	.LC50(%rip), %xmm0
	jp	.L453
	jne	.L453
	.loc 14 89 0
	andps	.LC52(%rip), %xmm0
.LVL698:
	orps	.LC51(%rip), %xmm0
	ucomiss	.LC50(%rip), %xmm0
	setbe	%al
	movzbl	%al, %eax
	negl	%eax
	ret
.LVL699:
.L453:
.LBB874:
	.loc 14 91 0
	movd	%xmm0, %eax
.LVL700:
	.loc 14 93 0
	movd	%xmm0, %edx
	xorl	$2147483647, %edx
	testl	%eax, %eax
	cmovs	%edx, %eax
	ret
.LVL701:
.L455:
.LBE874:
.LBE873:
	.loc 14 87 0
	movl	$2141192192, %eax
.LBE872:
	.loc 14 98 0
	ret
	.cfi_endproc
.LFE431:
	.size	_Z14value_of_floatf, .-_Z14value_of_floatf
	.globl	_Z14float_of_valuei
	.type	_Z14float_of_valuei, @function
_Z14float_of_valuei:
.LFB432:
	.loc 14 100 0
	.cfi_startproc
.LVL702:
	.loc 14 101 0
	cmpl	$-1, %edi
	je	.L460
	.loc 14 103 0
	testl	%edi, %edi
	js	.L461
	.loc 14 106 0
	movl	%edi, -4(%rsp)
	movss	-4(%rsp), %xmm0
	ret
.L461:
	.loc 14 104 0
	xorl	$2147483647, %edi
.LVL703:
	movl	%edi, -4(%rsp)
	movd	-4(%rsp), %xmm0
	ret
.LVL704:
.L460:
	.loc 14 102 0
	movss	.LC53(%rip), %xmm0
	.loc 14 108 0
	ret
	.cfi_endproc
.LFE432:
	.size	_Z14float_of_valuei, .-_Z14float_of_valuei
	.section	.rodata.str1.1
.LC54:
	.string	"0x%08x / "
.LC55:
	.string	"@%d (code pointer)"
.LC56:
	.string	"(int = %d / float = %f)"
.LC57:
	.string	"@%p (block in dynamic heap)"
.LC58:
	.string	"@%p (block in static heap)"
.LC59:
	.string	"@%p (block in flash heap)"
.LC60:
	.string	"NULL"
.LC63:
	.string	"(maybe %f)"
.LC64:
	.string	"(?)"
	.text
	.globl	_Z11print_valuei
	.type	_Z11print_valuei, @function
_Z11print_valuei:
.LFB153:
	.loc 10 70 0
	.cfi_startproc
.LVL705:
	pushq	%rbx
	.cfi_def_cfa_offset 16
	.cfi_offset 3, -16
	movl	%edi, %ebx
.LVL706:
.LBB875:
.LBB876:
	.loc 5 104 0
	movl	%edi, %edx
	leaq	.LC54(%rip), %rsi
	movl	$1, %edi
.LVL707:
	movl	$0, %eax
	call	__printf_chk@PLT
.LVL708:
.LBE876:
.LBE875:
	.loc 10 72 0
	testb	$1, %bl
	je	.L463
	.loc 10 72 0 is_stmt 0 discriminator 1
	movl	%ebx, %eax
	shrl	$30, %eax
	cmpl	$2, %eax
	je	.L476
	.loc 10 75 0 is_stmt 1
	movl	%ebx, %edi
	call	_Z14float_of_valuei
.LVL709:
	cvtss2sd	%xmm0, %xmm0
	movl	%ebx, %edx
	sarl	%edx
.LBB877:
.LBB878:
	.loc 5 104 0
	leaq	.LC56(%rip), %rsi
	movl	$1, %edi
	movl	$1, %eax
	call	__printf_chk@PLT
.LVL710:
	jmp	.L465
.LVL711:
.L476:
.LBE878:
.LBE877:
	.loc 10 73 0
	movl	%ebx, %edx
	shrl	%edx
	andl	$1073741823, %edx
.LBB879:
.LBB880:
	.loc 5 104 0
	leaq	.LC55(%rip), %rsi
	movl	$1, %edi
	movl	$0, %eax
	call	__printf_chk@PLT
.LVL712:
	jmp	.L465
.LVL713:
.L463:
.LBE880:
.LBE879:
	.loc 10 76 0
	testb	$3, %bl
	jne	.L466
	.loc 10 76 0 is_stmt 0 discriminator 1
	movl	%ebx, %eax
	shrl	$20, %eax
	cmpw	$2044, %ax
	je	.L477
	.loc 10 78 0 is_stmt 1 discriminator 1
	cmpw	$2045, %ax
	je	.L478
	.loc 10 80 0 discriminator 1
	cmpw	$2046, %ax
	je	.L479
.L466:
	.loc 10 82 0
	testl	%ebx, %ebx
	je	.L480
	.loc 10 84 0
	movl	%ebx, %edi
	call	_Z14float_of_valuei
.LVL714:
	ucomiss	.LC61(%rip), %xmm0
	jb	.L470
	.loc 10 84 0 is_stmt 0 discriminator 1
	movss	.LC62(%rip), %xmm1
	ucomiss	%xmm0, %xmm1
	jnb	.L481
.L470:
.LVL715:
.LBB881:
.LBB882:
	.loc 5 104 0 is_stmt 1 discriminator 4
	leaq	.LC64(%rip), %rsi
	movl	$1, %edi
	movl	$0, %eax
	call	__printf_chk@PLT
.LVL716:
.L465:
.LBE882:
.LBE881:
.LBB883:
.LBB884:
	.loc 5 104 0 is_stmt 0
	leaq	.LC45(%rip), %rsi
	movl	$1, %edi
	movl	$0, %eax
	call	__printf_chk@PLT
.LVL717:
.LBE884:
.LBE883:
	.loc 10 90 0 is_stmt 1
	movq	stdout(%rip), %rdi
	call	fflush@PLT
.LVL718:
	.loc 10 91 0
	popq	%rbx
	.cfi_remember_state
	.cfi_def_cfa_offset 8
	ret
.LVL719:
.L477:
	.cfi_restore_state
	.loc 10 77 0
	movl	%ebx, %edx
	sall	$12, %edx
	sarl	$12, %edx
	movslq	%edx, %rdx
	leaq	ocaml_ram_heap(%rip), %rax
	addq	%rax, %rdx
.LBB885:
.LBB886:
	.loc 5 104 0
	leaq	.LC57(%rip), %rsi
	movl	$1, %edi
	movl	$0, %eax
	call	__printf_chk@PLT
.LVL720:
	jmp	.L465
.LVL721:
.L478:
.LBE886:
.LBE885:
	.loc 10 79 0
	movl	%ebx, %edx
	sall	$12, %edx
	sarl	$12, %edx
	movslq	%edx, %rdx
	leaq	ocaml_ram_heap(%rip), %rax
	addq	%rax, %rdx
.LBB887:
.LBB888:
	.loc 5 104 0
	leaq	.LC58(%rip), %rsi
	movl	$1, %edi
	movl	$0, %eax
	call	__printf_chk@PLT
.LVL722:
	jmp	.L465
.LVL723:
.L479:
.LBE888:
.LBE887:
	.loc 10 81 0
	andl	$1048575, %ebx
.LVL724:
	leaq	_ZL16ocaml_flash_heap(%rip), %rdx
	addq	%rbx, %rdx
.LBB889:
.LBB890:
	.loc 5 104 0
	leaq	.LC59(%rip), %rsi
	movl	$1, %edi
	movl	$0, %eax
	call	__printf_chk@PLT
.LVL725:
	jmp	.L465
.LVL726:
.L480:
.LBE890:
.LBE889:
.LBB891:
.LBB892:
	leaq	.LC60(%rip), %rsi
	movl	$1, %edi
	movl	$0, %eax
	call	__printf_chk@PLT
.LVL727:
	jmp	.L465
.LVL728:
.L481:
.LBE892:
.LBE891:
	.loc 10 85 0
	cvtss2sd	%xmm0, %xmm0
.LBB893:
.LBB894:
	.loc 5 104 0
	leaq	.LC63(%rip), %rsi
	movl	$1, %edi
	movl	$1, %eax
	call	__printf_chk@PLT
.LVL729:
	jmp	.L465
.LBE894:
.LBE893:
	.cfi_endproc
.LFE153:
	.size	_Z11print_valuei, .-_Z11print_valuei
	.section	.rodata.str1.8
	.align 8
.LC65:
	.string	"%s (starts at %p, ends at %p, size = %u words) : \n"
	.section	.rodata.str1.1
.LC66:
	.string	"%d  @%p : "
.LC67:
	.string	"\n\n\n"
	.text
	.type	_ZL11print_tablePKcPKij, @function
_ZL11print_tablePKcPKij:
.LFB154:
	.loc 10 93 0
	.cfi_startproc
.LVL730:
	pushq	%r13
	.cfi_def_cfa_offset 16
	.cfi_offset 13, -16
	pushq	%r12
	.cfi_def_cfa_offset 24
	.cfi_offset 12, -24
	pushq	%rbp
	.cfi_def_cfa_offset 32
	.cfi_offset 6, -32
	pushq	%rbx
	.cfi_def_cfa_offset 40
	.cfi_offset 3, -40
	subq	$8, %rsp
	.cfi_def_cfa_offset 48
	movq	%rsi, %rbx
	movl	%edx, %r9d
	.loc 10 97 0
	movl	%edx, %eax
	.loc 10 97 0
	leaq	(%rsi,%rax,4), %r12
.LVL731:
.LBB895:
.LBB896:
	.loc 5 104 0
	movq	%r12, %r8
	movq	%rsi, %rcx
	movq	%rdi, %rdx
.LVL732:
	leaq	.LC65(%rip), %rsi
.LVL733:
	movl	$1, %edi
.LVL734:
	movl	$0, %eax
	call	__printf_chk@PLT
.LVL735:
.LBE896:
.LBE895:
	.loc 10 99 0
	cmpq	%rbx, %r12
	jbe	.L483
	movl	$0, %ebp
.LBB897:
.LBB898:
	.loc 5 104 0
	leaq	.LC66(%rip), %r13
.LVL736:
.L484:
	movq	%rbx, %rcx
	movl	%ebp, %edx
	movq	%r13, %rsi
	movl	$1, %edi
	movl	$0, %eax
	call	__printf_chk@PLT
.LVL737:
.LBE898:
.LBE897:
	.loc 10 106 0
	movl	(%rbx), %edi
	call	_Z11print_valuei
.LVL738:
	.loc 10 99 0
	addq	$4, %rbx
.LVL739:
	addl	$1, %ebp
.LVL740:
	cmpq	%rbx, %r12
	ja	.L484
.LVL741:
.L483:
.LBB899:
.LBB900:
	.loc 5 104 0
	leaq	.LC67(%rip), %rsi
	movl	$1, %edi
	movl	$0, %eax
	call	__printf_chk@PLT
.LVL742:
.LBE900:
.LBE899:
	.loc 10 109 0
	addq	$8, %rsp
	.cfi_def_cfa_offset 40
	popq	%rbx
	.cfi_def_cfa_offset 32
.LVL743:
	popq	%rbp
	.cfi_def_cfa_offset 24
	popq	%r12
	.cfi_def_cfa_offset 16
	popq	%r13
	.cfi_def_cfa_offset 8
	ret
	.cfi_endproc
.LFE154:
	.size	_ZL11print_tablePKcPKij, .-_ZL11print_tablePKcPKij
	.section	.rodata.str1.1
.LC68:
	.string	"DYNAMIC HEAP"
	.text
	.globl	_Z18print_dynamic_heapv
	.type	_Z18print_dynamic_heapv, @function
_Z18print_dynamic_heapv:
.LFB155:
	.loc 10 111 0
	.cfi_startproc
	subq	$8, %rsp
	.cfi_def_cfa_offset 16
	.loc 10 112 0
	movl	$200, %edx
	leaq	ocaml_ram_heap(%rip), %rsi
	leaq	.LC68(%rip), %rdi
	call	_ZL11print_tablePKcPKij
.LVL744:
	.loc 10 113 0
	addq	$8, %rsp
	.cfi_def_cfa_offset 8
	ret
	.cfi_endproc
.LFE155:
	.size	_Z18print_dynamic_heapv, .-_Z18print_dynamic_heapv
	.section	.rodata.str1.1
.LC69:
	.string	"STATIC HEAP"
	.text
	.globl	_Z17print_static_heapv
	.type	_Z17print_static_heapv, @function
_Z17print_static_heapv:
.LFB156:
	.loc 10 115 0
	.cfi_startproc
	subq	$8, %rsp
	.cfi_def_cfa_offset 16
	.loc 10 116 0
	movl	$0, %edx
	leaq	ocaml_ram_heap(%rip), %rsi
	leaq	.LC69(%rip), %rdi
	call	_ZL11print_tablePKcPKij
.LVL745:
	.loc 10 117 0
	addq	$8, %rsp
	.cfi_def_cfa_offset 8
	ret
	.cfi_endproc
.LFE156:
	.size	_Z17print_static_heapv, .-_Z17print_static_heapv
	.section	.rodata.str1.1
.LC70:
	.string	"RAM GLOBAL DATA"
	.text
	.globl	_Z21print_ram_global_datav
	.type	_Z21print_ram_global_datav, @function
_Z21print_ram_global_datav:
.LFB157:
	.loc 10 119 0
	.cfi_startproc
	subq	$8, %rsp
	.cfi_def_cfa_offset 16
	.loc 10 120 0
	movl	$0, %edx
	leaq	ocaml_ram_global_data(%rip), %rsi
	leaq	.LC70(%rip), %rdi
	call	_ZL11print_tablePKcPKij
.LVL746:
	.loc 10 121 0
	addq	$8, %rsp
	.cfi_def_cfa_offset 8
	ret
	.cfi_endproc
.LFE157:
	.size	_Z21print_ram_global_datav, .-_Z21print_ram_global_datav
	.section	.rodata.str1.1
.LC71:
	.string	"STACK"
	.text
	.globl	_Z11print_stackv
	.type	_Z11print_stackv, @function
_Z11print_stackv:
.LFB158:
	.loc 10 125 0
	.cfi_startproc
	subq	$8, %rsp
	.cfi_def_cfa_offset 16
	.loc 10 126 0
	movq	sp(%rip), %rsi
	leaq	ocaml_stack(%rip), %rax
	movq	%rsi, %rdx
	subq	%rax, %rdx
	sarq	$2, %rdx
	negq	%rdx
	addl	$200, %edx
	leaq	.LC71(%rip), %rdi
	call	_ZL11print_tablePKcPKij
.LVL747:
	.loc 10 127 0
	addq	$8, %rsp
	.cfi_def_cfa_offset 8
	ret
	.cfi_endproc
.LFE158:
	.size	_Z11print_stackv, .-_Z11print_stackv
	.section	.rodata.str1.1
.LC72:
	.string	"FLASH HEAP"
	.text
	.globl	_Z16print_flash_heapv
	.type	_Z16print_flash_heapv, @function
_Z16print_flash_heapv:
.LFB159:
	.loc 10 129 0
	.cfi_startproc
	subq	$8, %rsp
	.cfi_def_cfa_offset 16
	.loc 10 130 0
	movl	$55, %edx
	leaq	_ZL16ocaml_flash_heap(%rip), %rsi
	leaq	.LC72(%rip), %rdi
	call	_ZL11print_tablePKcPKij
.LVL748:
	.loc 10 131 0
	addq	$8, %rsp
	.cfi_def_cfa_offset 8
	ret
	.cfi_endproc
.LFE159:
	.size	_Z16print_flash_heapv, .-_Z16print_flash_heapv
	.section	.rodata.str1.1
.LC73:
	.string	"FLASH GLOBAL DATA"
	.text
	.globl	_Z23print_flash_global_datav
	.type	_Z23print_flash_global_datav, @function
_Z23print_flash_global_datav:
.LFB160:
	.loc 10 133 0
	.cfi_startproc
	subq	$8, %rsp
	.cfi_def_cfa_offset 16
	.loc 10 134 0
	movl	$6, %edx
	leaq	_ZL23ocaml_flash_global_data(%rip), %rsi
	leaq	.LC73(%rip), %rdi
	call	_ZL11print_tablePKcPKij
.LVL749:
	.loc 10 135 0
	addq	$8, %rsp
	.cfi_def_cfa_offset 8
	ret
	.cfi_endproc
.LFE160:
	.size	_Z23print_flash_global_datav, .-_Z23print_flash_global_datav
	.globl	_Z14caml_neq_floatii
	.type	_Z14caml_neq_floatii, @function
_Z14caml_neq_floatii:
.LFB433:
	.loc 14 152 0
	.cfi_startproc
.LVL750:
	pushq	%rbx
	.cfi_def_cfa_offset 16
	.cfi_offset 3, -16
	subq	$8, %rsp
	.cfi_def_cfa_offset 24
	movl	%esi, %ebx
	.loc 14 153 0
	call	_Z14float_of_valuei
.LVL751:
	movss	%xmm0, 4(%rsp)
	movl	%ebx, %edi
	call	_Z14float_of_valuei
.LVL752:
	movss	4(%rsp), %xmm1
	ucomiss	%xmm0, %xmm1
	jp	.L501
	movl	$1, %eax
	jne	.L501
.L499:
	.loc 14 154 0
	addq	$8, %rsp
	.cfi_remember_state
	.cfi_def_cfa_offset 16
	popq	%rbx
	.cfi_def_cfa_offset 8
.LVL753:
	ret
.LVL754:
.L501:
	.cfi_restore_state
	.loc 14 153 0
	movl	$3, %eax
	jmp	.L499
	.cfi_endproc
.LFE433:
	.size	_Z14caml_neq_floatii, .-_Z14caml_neq_floatii
	.globl	_Z13caml_eq_floatii
	.type	_Z13caml_eq_floatii, @function
_Z13caml_eq_floatii:
.LFB434:
	.loc 14 156 0
	.cfi_startproc
.LVL755:
	pushq	%rbx
	.cfi_def_cfa_offset 16
	.cfi_offset 3, -16
	subq	$8, %rsp
	.cfi_def_cfa_offset 24
	movl	%esi, %ebx
	.loc 14 157 0
	call	_Z14float_of_valuei
.LVL756:
	movss	%xmm0, 4(%rsp)
	movl	%ebx, %edi
	call	_Z14float_of_valuei
.LVL757:
	movss	4(%rsp), %xmm1
	ucomiss	%xmm0, %xmm1
	jp	.L507
	movl	$3, %eax
	je	.L503
.L507:
	movl	$1, %eax
.L503:
	.loc 14 158 0
	addq	$8, %rsp
	.cfi_def_cfa_offset 16
	popq	%rbx
	.cfi_def_cfa_offset 8
.LVL758:
	ret
	.cfi_endproc
.LFE434:
	.size	_Z13caml_eq_floatii, .-_Z13caml_eq_floatii
	.globl	_Z13caml_le_floatii
	.type	_Z13caml_le_floatii, @function
_Z13caml_le_floatii:
.LFB435:
	.loc 14 160 0
	.cfi_startproc
.LVL759:
	pushq	%rbx
	.cfi_def_cfa_offset 16
	.cfi_offset 3, -16
	subq	$8, %rsp
	.cfi_def_cfa_offset 24
	movl	%esi, %ebx
	.loc 14 161 0
	call	_Z14float_of_valuei
.LVL760:
	movss	%xmm0, 4(%rsp)
	movl	%ebx, %edi
	call	_Z14float_of_valuei
.LVL761:
	movss	4(%rsp), %xmm1
	ucomiss	%xmm1, %xmm0
	sbbl	%eax, %eax
	andl	$-2, %eax
	addl	$3, %eax
	.loc 14 162 0
	addq	$8, %rsp
	.cfi_def_cfa_offset 16
	popq	%rbx
	.cfi_def_cfa_offset 8
.LVL762:
	ret
	.cfi_endproc
.LFE435:
	.size	_Z13caml_le_floatii, .-_Z13caml_le_floatii
	.globl	_Z13caml_lt_floatii
	.type	_Z13caml_lt_floatii, @function
_Z13caml_lt_floatii:
.LFB436:
	.loc 14 164 0
	.cfi_startproc
.LVL763:
	pushq	%rbx
	.cfi_def_cfa_offset 16
	.cfi_offset 3, -16
	subq	$8, %rsp
	.cfi_def_cfa_offset 24
	movl	%esi, %ebx
	.loc 14 165 0
	call	_Z14float_of_valuei
.LVL764:
	movss	%xmm0, 4(%rsp)
	movl	%ebx, %edi
	call	_Z14float_of_valuei
.LVL765:
	ucomiss	4(%rsp), %xmm0
	seta	%al
	movzbl	%al, %eax
	leal	1(%rax,%rax), %eax
	.loc 14 166 0
	addq	$8, %rsp
	.cfi_def_cfa_offset 16
	popq	%rbx
	.cfi_def_cfa_offset 8
.LVL766:
	ret
	.cfi_endproc
.LFE436:
	.size	_Z13caml_lt_floatii, .-_Z13caml_lt_floatii
	.globl	_Z13caml_ge_floatii
	.type	_Z13caml_ge_floatii, @function
_Z13caml_ge_floatii:
.LFB437:
	.loc 14 168 0
	.cfi_startproc
.LVL767:
	pushq	%rbx
	.cfi_def_cfa_offset 16
	.cfi_offset 3, -16
	subq	$8, %rsp
	.cfi_def_cfa_offset 24
	movl	%esi, %ebx
	.loc 14 169 0
	call	_Z14float_of_valuei
.LVL768:
	movss	%xmm0, 4(%rsp)
	movl	%ebx, %edi
	call	_Z14float_of_valuei
.LVL769:
	movss	4(%rsp), %xmm1
	ucomiss	%xmm0, %xmm1
	sbbl	%eax, %eax
	andl	$-2, %eax
	addl	$3, %eax
	.loc 14 170 0
	addq	$8, %rsp
	.cfi_def_cfa_offset 16
	popq	%rbx
	.cfi_def_cfa_offset 8
.LVL770:
	ret
	.cfi_endproc
.LFE437:
	.size	_Z13caml_ge_floatii, .-_Z13caml_ge_floatii
	.globl	_Z13caml_gt_floatii
	.type	_Z13caml_gt_floatii, @function
_Z13caml_gt_floatii:
.LFB438:
	.loc 14 172 0
	.cfi_startproc
.LVL771:
	pushq	%rbx
	.cfi_def_cfa_offset 16
	.cfi_offset 3, -16
	subq	$8, %rsp
	.cfi_def_cfa_offset 24
	movl	%esi, %ebx
	.loc 14 173 0
	call	_Z14float_of_valuei
.LVL772:
	movss	%xmm0, 4(%rsp)
	movl	%ebx, %edi
	call	_Z14float_of_valuei
.LVL773:
	movss	4(%rsp), %xmm1
	ucomiss	%xmm0, %xmm1
	seta	%al
	movzbl	%al, %eax
	leal	1(%rax,%rax), %eax
	.loc 14 174 0
	addq	$8, %rsp
	.cfi_def_cfa_offset 16
	popq	%rbx
	.cfi_def_cfa_offset 8
.LVL774:
	ret
	.cfi_endproc
.LFE438:
	.size	_Z13caml_gt_floatii, .-_Z13caml_gt_floatii
	.globl	_Z18caml_float_compareii
	.type	_Z18caml_float_compareii, @function
_Z18caml_float_compareii:
.LFB439:
	.loc 14 176 0
	.cfi_startproc
.LVL775:
	.loc 14 177 0
	movl	$1, %eax
	cmpl	%esi, %edi
	je	.L525
	.loc 14 178 0
	cmpl	$2141192192, %edi
	je	.L530
	.loc 14 179 0
	cmpl	$2141192192, %esi
	je	.L531
	.loc 14 180 0
	testl	%edi, %edi
	jne	.L535
	cmpl	$-1, %esi
	jne	.L535
.L525:
	.loc 14 183 0
	rep ret
.L535:
	.loc 14 181 0
	cmpl	$-1, %edi
	jne	.L536
	movl	$1, %eax
	testl	%esi, %esi
	je	.L525
.L536:
	.loc 14 182 0
	cmpl	%esi, %edi
	setge	%al
	movzbl	%al, %eax
	leal	-1(,%rax,4), %eax
	ret
.L530:
	.loc 14 178 0
	movl	$-1, %eax
	ret
.L531:
	.loc 14 179 0
	movl	$3, %eax
	jmp	.L525
	.cfi_endproc
.LFE439:
	.size	_Z18caml_float_compareii, .-_Z18caml_float_compareii
	.globl	_Z14caml_cos_floati
	.type	_Z14caml_cos_floati, @function
_Z14caml_cos_floati:
.LFB440:
	.loc 14 185 0
	.cfi_startproc
.LVL776:
	subq	$8, %rsp
	.cfi_def_cfa_offset 16
	.loc 14 186 0
	call	_Z14float_of_valuei
.LVL777:
.LBB901:
.LBB902:
	.file 15 "/usr/include/c++/7/cmath"
	.loc 15 185 0
	call	cosf@PLT
.LVL778:
.LBE902:
.LBE901:
	.loc 14 186 0
	call	_Z14value_of_floatf
.LVL779:
	.loc 14 187 0
	addq	$8, %rsp
	.cfi_def_cfa_offset 8
	ret
	.cfi_endproc
.LFE440:
	.size	_Z14caml_cos_floati, .-_Z14caml_cos_floati
	.globl	_Z14caml_sin_floati
	.type	_Z14caml_sin_floati, @function
_Z14caml_sin_floati:
.LFB441:
	.loc 14 189 0
	.cfi_startproc
.LVL780:
	subq	$8, %rsp
	.cfi_def_cfa_offset 16
	.loc 14 190 0
	call	_Z14float_of_valuei
.LVL781:
.LBB903:
.LBB904:
	.loc 15 426 0
	call	sinf@PLT
.LVL782:
.LBE904:
.LBE903:
	.loc 14 190 0
	call	_Z14value_of_floatf
.LVL783:
	.loc 14 191 0
	addq	$8, %rsp
	.cfi_def_cfa_offset 8
	ret
	.cfi_endproc
.LFE441:
	.size	_Z14caml_sin_floati, .-_Z14caml_sin_floati
	.globl	_Z14caml_abs_floati
	.type	_Z14caml_abs_floati, @function
_Z14caml_abs_floati:
.LFB442:
	.loc 14 193 0
	.cfi_startproc
.LVL784:
	.loc 14 194 0
	call	_Z14float_of_valuei
.LVL785:
.LBB905:
.LBB906:
	.loc 15 242 0
	andps	.LC74(%rip), %xmm0
.LBE906:
.LBE905:
	.loc 14 194 0
	call	_Z14value_of_floatf
.LVL786:
	.loc 14 195 0
	rep ret
	.cfi_endproc
.LFE442:
	.size	_Z14caml_abs_floati, .-_Z14caml_abs_floati
	.globl	_Z15caml_sqrt_floati
	.type	_Z15caml_sqrt_floati, @function
_Z15caml_sqrt_floati:
.LFB443:
	.loc 14 197 0
	.cfi_startproc
.LVL787:
	subq	$24, %rsp
	.cfi_def_cfa_offset 32
	.loc 14 198 0
	call	_Z14float_of_valuei
.LVL788:
.LBB907:
.LBB908:
	.loc 15 464 0
	sqrtss	%xmm0, %xmm2
	movss	%xmm2, 12(%rsp)
	pxor	%xmm1, %xmm1
	ucomiss	%xmm0, %xmm1
	ja	.L545
.LVL789:
.L543:
.LBE908:
.LBE907:
	.loc 14 198 0
	movss	12(%rsp), %xmm0
	call	_Z14value_of_floatf
.LVL790:
	.loc 14 199 0
	addq	$24, %rsp
	.cfi_remember_state
	.cfi_def_cfa_offset 8
	ret
.LVL791:
.L545:
	.cfi_restore_state
.LBB910:
.LBB909:
	.loc 15 464 0
	call	sqrtf@PLT
.LVL792:
	jmp	.L543
.LBE909:
.LBE910:
	.cfi_endproc
.LFE443:
	.size	_Z15caml_sqrt_floati, .-_Z15caml_sqrt_floati
	.globl	_Z16caml_atan2_floatii
	.type	_Z16caml_atan2_floatii, @function
_Z16caml_atan2_floatii:
.LFB444:
	.loc 14 201 0
	.cfi_startproc
.LVL793:
	pushq	%rbx
	.cfi_def_cfa_offset 16
	.cfi_offset 3, -16
	subq	$16, %rsp
	.cfi_def_cfa_offset 32
	movl	%edi, %ebx
	.loc 14 202 0
	movl	%esi, %edi
.LVL794:
	call	_Z14float_of_valuei
.LVL795:
	movss	%xmm0, 12(%rsp)
	movl	%ebx, %edi
	call	_Z14float_of_valuei
.LVL796:
.LBB911:
.LBB912:
	.loc 15 145 0
	movss	12(%rsp), %xmm1
	call	atan2f@PLT
.LVL797:
.LBE912:
.LBE911:
	.loc 14 202 0
	call	_Z14value_of_floatf
.LVL798:
	.loc 14 203 0
	addq	$16, %rsp
	.cfi_def_cfa_offset 16
	popq	%rbx
	.cfi_def_cfa_offset 8
.LVL799:
	ret
	.cfi_endproc
.LFE444:
	.size	_Z16caml_atan2_floatii, .-_Z16caml_atan2_floatii
	.globl	_Z14caml_neg_floati
	.type	_Z14caml_neg_floati, @function
_Z14caml_neg_floati:
.LFB445:
	.loc 14 205 0
	.cfi_startproc
.LVL800:
	.loc 14 206 0
	call	_Z14float_of_valuei
.LVL801:
	xorps	.LC52(%rip), %xmm0
	call	_Z14value_of_floatf
.LVL802:
	.loc 14 207 0
	rep ret
	.cfi_endproc
.LFE445:
	.size	_Z14caml_neg_floati, .-_Z14caml_neg_floati
	.globl	_Z14caml_add_floatii
	.type	_Z14caml_add_floatii, @function
_Z14caml_add_floatii:
.LFB446:
	.loc 14 209 0
	.cfi_startproc
.LVL803:
	pushq	%rbx
	.cfi_def_cfa_offset 16
	.cfi_offset 3, -16
	subq	$8, %rsp
	.cfi_def_cfa_offset 24
	movl	%esi, %ebx
	.loc 14 210 0
	call	_Z14float_of_valuei
.LVL804:
	movss	%xmm0, 4(%rsp)
	movl	%ebx, %edi
	call	_Z14float_of_valuei
.LVL805:
	addss	4(%rsp), %xmm0
	call	_Z14value_of_floatf
.LVL806:
	.loc 14 211 0
	addq	$8, %rsp
	.cfi_def_cfa_offset 16
	popq	%rbx
	.cfi_def_cfa_offset 8
.LVL807:
	ret
	.cfi_endproc
.LFE446:
	.size	_Z14caml_add_floatii, .-_Z14caml_add_floatii
	.globl	_Z14caml_mul_floatii
	.type	_Z14caml_mul_floatii, @function
_Z14caml_mul_floatii:
.LFB447:
	.loc 14 213 0
	.cfi_startproc
.LVL808:
	pushq	%rbx
	.cfi_def_cfa_offset 16
	.cfi_offset 3, -16
	subq	$8, %rsp
	.cfi_def_cfa_offset 24
	movl	%esi, %ebx
	.loc 14 214 0
	call	_Z14float_of_valuei
.LVL809:
	movss	%xmm0, 4(%rsp)
	movl	%ebx, %edi
	call	_Z14float_of_valuei
.LVL810:
	mulss	4(%rsp), %xmm0
	call	_Z14value_of_floatf
.LVL811:
	.loc 14 215 0
	addq	$8, %rsp
	.cfi_def_cfa_offset 16
	popq	%rbx
	.cfi_def_cfa_offset 8
.LVL812:
	ret
	.cfi_endproc
.LFE447:
	.size	_Z14caml_mul_floatii, .-_Z14caml_mul_floatii
	.globl	_Z14caml_div_floatii
	.type	_Z14caml_div_floatii, @function
_Z14caml_div_floatii:
.LFB448:
	.loc 14 217 0
	.cfi_startproc
.LVL813:
	pushq	%rbx
	.cfi_def_cfa_offset 16
	.cfi_offset 3, -16
	subq	$8, %rsp
	.cfi_def_cfa_offset 24
	movl	%esi, %ebx
	.loc 14 218 0
	call	_Z14float_of_valuei
.LVL814:
	movss	%xmm0, 4(%rsp)
	movl	%ebx, %edi
	call	_Z14float_of_valuei
.LVL815:
	movss	4(%rsp), %xmm1
	divss	%xmm0, %xmm1
	movaps	%xmm1, %xmm0
	call	_Z14value_of_floatf
.LVL816:
	.loc 14 219 0
	addq	$8, %rsp
	.cfi_def_cfa_offset 16
	popq	%rbx
	.cfi_def_cfa_offset 8
.LVL817:
	ret
	.cfi_endproc
.LFE448:
	.size	_Z14caml_div_floatii, .-_Z14caml_div_floatii
	.globl	_Z14caml_sub_floatii
	.type	_Z14caml_sub_floatii, @function
_Z14caml_sub_floatii:
.LFB449:
	.loc 14 221 0
	.cfi_startproc
.LVL818:
	pushq	%rbx
	.cfi_def_cfa_offset 16
	.cfi_offset 3, -16
	subq	$8, %rsp
	.cfi_def_cfa_offset 24
	movl	%esi, %ebx
	.loc 14 222 0
	call	_Z14float_of_valuei
.LVL819:
	movss	%xmm0, 4(%rsp)
	movl	%ebx, %edi
	call	_Z14float_of_valuei
.LVL820:
	movss	4(%rsp), %xmm1
	subss	%xmm0, %xmm1
	movaps	%xmm1, %xmm0
	call	_Z14value_of_floatf
.LVL821:
	.loc 14 223 0
	addq	$8, %rsp
	.cfi_def_cfa_offset 16
	popq	%rbx
	.cfi_def_cfa_offset 8
.LVL822:
	ret
	.cfi_endproc
.LFE449:
	.size	_Z14caml_sub_floatii, .-_Z14caml_sub_floatii
	.globl	_Z17caml_float_of_inti
	.type	_Z17caml_float_of_inti, @function
_Z17caml_float_of_inti:
.LFB450:
	.loc 14 225 0
	.cfi_startproc
.LVL823:
	.loc 14 226 0
	sarl	%edi
.LVL824:
	pxor	%xmm0, %xmm0
	cvtsi2ss	%edi, %xmm0
	call	_Z14value_of_floatf
.LVL825:
	.loc 14 227 0
	rep ret
	.cfi_endproc
.LFE450:
	.size	_Z17caml_float_of_inti, .-_Z17caml_float_of_inti
	.globl	_Z17caml_int_of_floati
	.type	_Z17caml_int_of_floati, @function
_Z17caml_int_of_floati:
.LFB451:
	.loc 14 229 0
	.cfi_startproc
.LVL826:
	.loc 14 230 0
	call	_Z14float_of_valuei
.LVL827:
	cvttss2si	%xmm0, %eax
	leal	1(%rax,%rax), %eax
	.loc 14 231 0
	ret
	.cfi_endproc
.LFE451:
	.size	_Z17caml_int_of_floati, .-_Z17caml_int_of_floati
	.section	.rodata.str1.8
	.align 8
.LC75:
	.string	"/home/adilla/Documents/VmMic/Tools/OMicroBPIC32/src/byterun/vm/obj.c"
	.section	.rodata.str1.1
.LC76:
	.string	"size <= Wosize_val(dummy)"
.LC77:
	.string	"Is_in_ram(dummy)"
	.text
	.globl	_Z17caml_update_dummyii
	.type	_Z17caml_update_dummyii, @function
_Z17caml_update_dummyii:
.LFB456:
	.file 16 "/home/adilla/Documents/VmMic/Tools/OMicroBPIC32/src/byterun/vm/obj.c"
	.loc 16 63 0
	.cfi_startproc
.LVL828:
	subq	$8, %rsp
	.cfi_def_cfa_offset 16
	.loc 16 64 0
	movl	%esi, %eax
	shrl	$16, %eax
	movzbl	%al, %eax
	andl	$32, %eax
	movl	%eax, %r9d
	jne	.L560
	.loc 16 64 0 is_stmt 0 discriminator 1
	movl	%esi, %eax
	sall	$12, %eax
	sarl	$12, %eax
	cltq
	leaq	-4+ocaml_ram_heap(%rip), %rdx
	movl	(%rdx,%rax), %eax
	sarl	$2, %eax
	andl	$4194303, %eax
.L561:
.LVL829:
	.loc 16 65 0 is_stmt 1 discriminator 4
	testl	$2097152, %edi
	jne	.L562
	.loc 16 65 0 is_stmt 0 discriminator 1
	sall	$12, %edi
.LVL830:
	sarl	$12, %edi
	movslq	%edi, %rdi
	leaq	ocaml_ram_heap(%rip), %rdx
	leaq	-4(%rdx,%rdi), %rcx
	movl	(%rcx), %edx
	sarl	$2, %edx
	andl	$4194303, %edx
	.loc 16 65 0 is_stmt 1 discriminator 1
	cmpl	%edx, %eax
	ja	.L564
	.loc 16 67 0
	testl	%r9d, %r9d
	jne	.L566
	.loc 16 67 0 is_stmt 0 discriminator 1
	movl	%esi, %edx
	sall	$12, %edx
	sarl	$12, %edx
	movslq	%edx, %rdx
	leaq	-4+ocaml_ram_heap(%rip), %r8
	movl	(%r8,%rdx), %edx
.L567:
	.loc 16 67 0 discriminator 4
	movl	%edx, (%rcx)
.LVL831:
	.loc 16 68 0 is_stmt 1 discriminator 4
	testl	%eax, %eax
	je	.L568
	.loc 16 69 0
	movl	%esi, %ecx
	sall	$12, %ecx
	sarl	$12, %ecx
	movslq	%ecx, %rcx
	leal	-1(%rax), %eax
.LVL832:
	leaq	4(,%rax,4), %r8
	movl	$0, %eax
	andl	$1048575, %esi
.LVL833:
	leaq	_ZL16ocaml_flash_heap(%rip), %rdx
	addq	%rdx, %rsi
	leaq	ocaml_ram_heap(%rip), %rdx
	addq	%rdx, %rcx
	addq	%rdx, %rdi
	jmp	.L571
.LVL834:
.L560:
	.loc 16 64 0 discriminator 2
	movl	%esi, %eax
	andl	$1048575, %eax
	leaq	-4+_ZL16ocaml_flash_heap(%rip), %rdx
	movl	(%rdx,%rax), %eax
	sarl	$2, %eax
	andl	$4194303, %eax
	jmp	.L561
.LVL835:
.L562:
	.loc 16 65 0 discriminator 2
	andl	$1048575, %edi
.LVL836:
	leaq	-4+_ZL16ocaml_flash_heap(%rip), %rdx
	movl	(%rdx,%rdi), %edx
	sarl	$2, %edx
	andl	$4194303, %edx
	.loc 16 65 0 discriminator 2
	cmpl	%edx, %eax
	jbe	.L565
.L564:
	.loc 16 65 0 is_stmt 0 discriminator 5
	leaq	_ZZ17caml_update_dummyiiE19__PRETTY_FUNCTION__(%rip), %rcx
	movl	$65, %edx
	leaq	.LC75(%rip), %rsi
.LVL837:
	leaq	.LC76(%rip), %rdi
	call	__assert_fail@PLT
.LVL838:
.L565:
	.loc 16 66 0 is_stmt 1 discriminator 1
	leaq	_ZZ17caml_update_dummyiiE19__PRETTY_FUNCTION__(%rip), %rcx
	movl	$66, %edx
	leaq	.LC75(%rip), %rsi
.LVL839:
	leaq	.LC77(%rip), %rdi
	call	__assert_fail@PLT
.LVL840:
.L566:
	.loc 16 67 0 discriminator 2
	movl	%esi, %edx
	andl	$1048575, %edx
	leaq	-4+_ZL16ocaml_flash_heap(%rip), %r8
	movl	(%r8,%rdx), %edx
	jmp	.L567
.LVL841:
.L569:
	.loc 16 69 0 discriminator 2
	movl	(%rsi,%rax), %edx
.L570:
	.loc 16 69 0 is_stmt 0 discriminator 4
	movl	%edx, (%rdi,%rax)
	addq	$4, %rax
	.loc 16 68 0 is_stmt 1 discriminator 4
	cmpq	%r8, %rax
	je	.L568
.L571:
	.loc 16 69 0
	testl	%r9d, %r9d
	jne	.L569
	.loc 16 69 0 is_stmt 0 discriminator 1
	movl	(%rcx,%rax), %edx
	jmp	.L570
.L568:
	.loc 16 72 0 is_stmt 1
	movl	$1, %eax
	addq	$8, %rsp
	.cfi_def_cfa_offset 8
	ret
	.cfi_endproc
.LFE456:
	.size	_Z17caml_update_dummyii, .-_Z17caml_update_dummyii
	.globl	_Z16caml_fresh_oo_idi
	.type	_Z16caml_fresh_oo_idi, @function
_Z16caml_fresh_oo_idi:
.LFB457:
	.file 17 "/home/adilla/Documents/VmMic/Tools/OMicroBPIC32/src/byterun/vm/oo.c"
	.loc 17 6 0
	.cfi_startproc
.LVL842:
	.loc 17 7 0
	movl	_ZL10oo_last_id(%rip), %eax
.LVL843:
	.loc 17 8 0
	leal	2(%rax), %edx
	movl	%edx, _ZL10oo_last_id(%rip)
	.loc 17 10 0
	ret
	.cfi_endproc
.LFE457:
	.size	_Z16caml_fresh_oo_idi, .-_Z16caml_fresh_oo_idi
	.globl	_Z14caml_set_oo_idi
	.type	_Z14caml_set_oo_idi, @function
_Z14caml_set_oo_idi:
.LFB458:
	.loc 17 12 0
	.cfi_startproc
.LVL844:
	movl	%edi, %eax
	.loc 17 13 0
	movl	_ZL10oo_last_id(%rip), %ecx
	movl	%edi, %edx
	sall	$12, %edx
	sarl	$12, %edx
	movslq	%edx, %rdx
	leaq	4+ocaml_ram_heap(%rip), %rsi
	movl	%ecx, (%rsi,%rdx)
	.loc 17 14 0
	addl	$2, %ecx
	movl	%ecx, _ZL10oo_last_id(%rip)
	.loc 17 16 0
	ret
	.cfi_endproc
.LFE458:
	.size	_Z14caml_set_oo_idi, .-_Z14caml_set_oo_idi
	.globl	_Z13string_lengthi
	.type	_Z13string_lengthi, @function
_Z13string_lengthi:
.LFB459:
	.file 18 "/home/adilla/Documents/VmMic/Tools/OMicroBPIC32/src/byterun/vm/str.c"
	.loc 18 7 0
	.cfi_startproc
.LVL845:
	.loc 18 9 0
	testl	$2097152, %edi
	jne	.L577
	.loc 18 9 0 is_stmt 0 discriminator 1
	sall	$12, %edi
.LVL846:
	sarl	$12, %edi
	movslq	%edi, %rdi
	leaq	-4+ocaml_ram_heap(%rip), %rax
	movl	(%rax,%rdi), %eax
	andl	$16777212, %eax
	subl	$1, %eax
.LVL847:
	.loc 18 10 0 is_stmt 1 discriminator 1
	movl	%eax, %ecx
	leaq	ocaml_ram_heap(%rip), %rdx
	addq	%rdx, %rdi
	movzbl	(%rdi,%rcx), %edx
	jmp	.L578
.LVL848:
.L577:
	.loc 18 9 0 discriminator 2
	andl	$1048575, %edi
.LVL849:
	leaq	-4+_ZL16ocaml_flash_heap(%rip), %rax
	movl	(%rax,%rdi), %eax
	andl	$16777212, %eax
	subl	$1, %eax
.LVL850:
	.loc 18 10 0 discriminator 2
	movl	%eax, %ecx
	leaq	_ZL16ocaml_flash_heap(%rip), %rdx
	addq	%rdx, %rdi
	movzbl	(%rdi,%rcx), %edx
.L578:
	.loc 18 10 0 is_stmt 0 discriminator 4
	subl	%edx, %eax
.LVL851:
	.loc 18 11 0 is_stmt 1 discriminator 4
	ret
	.cfi_endproc
.LFE459:
	.size	_Z13string_lengthi, .-_Z13string_lengthi
	.globl	_Z21caml_ml_string_lengthi
	.type	_Z21caml_ml_string_lengthi, @function
_Z21caml_ml_string_lengthi:
.LFB463:
	.loc 18 34 0
	.cfi_startproc
.LVL852:
	.loc 18 35 0
	call	_Z13string_lengthi
.LVL853:
	leal	1(%rax,%rax), %eax
	.loc 18 36 0
	ret
	.cfi_endproc
.LFE463:
	.size	_Z21caml_ml_string_lengthi, .-_Z21caml_ml_string_lengthi
	.globl	_Z20caml_ml_bytes_lengthi
	.type	_Z20caml_ml_bytes_lengthi, @function
_Z20caml_ml_bytes_lengthi:
.LFB464:
	.loc 18 38 0
	.cfi_startproc
.LVL854:
	.loc 18 39 0
	call	_Z21caml_ml_string_lengthi
.LVL855:
	.loc 18 40 0
	rep ret
	.cfi_endproc
.LFE464:
	.size	_Z20caml_ml_bytes_lengthi, .-_Z20caml_ml_bytes_lengthi
	.section	.rodata.str1.8
	.align 8
.LC78:
	.string	"/home/adilla/Documents/VmMic/Tools/OMicroBPIC32/src/byterun/vm/str.c"
	.section	.rodata.str1.1
.LC79:
	.string	"Is_block(ml_b)"
.LC80:
	.string	"Is_in_ram(ml_b)"
	.text
	.globl	_Z16caml_blit_stringiiiii
	.type	_Z16caml_blit_stringiiiii, @function
_Z16caml_blit_stringiiiii:
.LFB465:
	.loc 18 42 0
	.cfi_startproc
.LVL856:
	pushq	%rbx
	.cfi_def_cfa_offset 16
	.cfi_offset 3, -16
	.loc 18 43 0
	sarl	%esi
.LVL857:
	.loc 18 44 0
	sarl	%ecx
.LVL858:
	.loc 18 45 0
	sarl	%r8d
.LVL859:
	.loc 18 47 0
	testb	$3, %dl
	jne	.L582
	.loc 18 47 0 discriminator 1
	movl	%edx, %eax
	shrl	$22, %eax
	cmpw	$511, %ax
	jne	.L582
	.loc 18 48 0
	testl	$2097152, %edx
	jne	.L591
.LVL860:
	.loc 18 49 0
	testl	%r8d, %r8d
	je	.L585
	.loc 18 50 0
	movl	%edi, %r9d
	shrl	$16, %r9d
	movzbl	%r9b, %r9d
	andl	$32, %r9d
	movl	%edi, %r11d
	sall	$12, %r11d
	sarl	$12, %r11d
	movslq	%r11d, %r11
	sall	$12, %edx
.LVL861:
	sarl	$12, %edx
	movslq	%edx, %rdx
	addl	%ecx, %r8d
.LVL862:
	movl	%ecx, %eax
	subl	%ecx, %esi
.LVL863:
	andl	$1048575, %edi
.LVL864:
	leaq	_ZL16ocaml_flash_heap(%rip), %rbx
	leaq	ocaml_ram_heap(%rip), %r10
	addq	%r10, %r11
	addq	%rdx, %r10
	jmp	.L588
.LVL865:
.L582:
	.loc 18 47 0 discriminator 3
	leaq	_ZZ16caml_blit_stringiiiiiE19__PRETTY_FUNCTION__(%rip), %rcx
.LVL866:
	movl	$47, %edx
.LVL867:
	leaq	.LC78(%rip), %rsi
.LVL868:
	leaq	.LC79(%rip), %rdi
.LVL869:
	call	__assert_fail@PLT
.LVL870:
.L591:
	.loc 18 48 0 discriminator 1
	leaq	_ZZ16caml_blit_stringiiiiiE19__PRETTY_FUNCTION__(%rip), %rcx
.LVL871:
	movl	$48, %edx
.LVL872:
	leaq	.LC78(%rip), %rsi
.LVL873:
	leaq	.LC80(%rip), %rdi
.LVL874:
	call	__assert_fail@PLT
.LVL875:
.L586:
	.loc 18 50 0 discriminator 2
	leal	(%rsi,%rax), %edx
	addq	%rbx, %rdx
	movzbl	(%rdx,%rdi), %ecx
.L587:
	.loc 18 50 0 is_stmt 0 discriminator 4
	movl	%eax, %edx
	movb	%cl, (%r10,%rdx)
.LVL876:
	addl	$1, %eax
.LVL877:
	.loc 18 49 0 is_stmt 1 discriminator 4
	cmpl	%r8d, %eax
	je	.L585
.LVL878:
.L588:
	.loc 18 50 0
	testl	%r9d, %r9d
	jne	.L586
	.loc 18 50 0 is_stmt 0 discriminator 1
	leal	(%rsi,%rax), %edx
	movzbl	(%r11,%rdx), %ecx
	jmp	.L587
.LVL879:
.L585:
	.loc 18 53 0 is_stmt 1
	movl	$1, %eax
	popq	%rbx
	.cfi_def_cfa_offset 8
	ret
	.cfi_endproc
.LFE465:
	.size	_Z16caml_blit_stringiiiii, .-_Z16caml_blit_stringiiiii
	.globl	_Z15caml_blit_bytesiiiii
	.type	_Z15caml_blit_bytesiiiii, @function
_Z15caml_blit_bytesiiiii:
.LFB466:
	.loc 18 55 0
	.cfi_startproc
.LVL880:
	subq	$8, %rsp
	.cfi_def_cfa_offset 16
	.loc 18 56 0
	call	_Z16caml_blit_stringiiiii
.LVL881:
	.loc 18 57 0
	addq	$8, %rsp
	.cfi_def_cfa_offset 8
	ret
	.cfi_endproc
.LFE466:
	.size	_Z15caml_blit_bytesiiiii, .-_Z15caml_blit_bytesiiiii
	.globl	_Z15caml_fill_bytesiiii
	.type	_Z15caml_fill_bytesiiii, @function
_Z15caml_fill_bytesiiii:
.LFB467:
	.loc 18 59 0
	.cfi_startproc
.LVL882:
	subq	$8, %rsp
	.cfi_def_cfa_offset 16
	.loc 18 60 0
	sarl	%esi
.LVL883:
	.loc 18 61 0
	sarl	%edx
.LVL884:
	.loc 18 62 0
	sarl	%ecx
.LVL885:
	.loc 18 64 0
	testb	$3, %dil
	jne	.L595
	.loc 18 64 0 discriminator 1
	movl	%edi, %eax
	shrl	$22, %eax
	cmpw	$511, %ax
	jne	.L595
	.loc 18 65 0
	testl	$2097152, %edi
	jne	.L602
.LVL886:
	.loc 18 66 0
	testl	%edx, %edx
	je	.L598
	.loc 18 67 0
	sall	$12, %edi
.LVL887:
	sarl	$12, %edi
	movslq	%edi, %rdi
	addl	%esi, %edx
.LVL888:
	leaq	ocaml_ram_heap(%rip), %rax
	addq	%rax, %rdi
.LVL889:
.L599:
	.loc 18 67 0 is_stmt 0 discriminator 2
	movl	%esi, %eax
	movb	%cl, (%rdi,%rax)
.LVL890:
	addl	$1, %esi
.LVL891:
	.loc 18 66 0 is_stmt 1 discriminator 2
	cmpl	%edx, %esi
	jne	.L599
.LVL892:
.L598:
	.loc 18 70 0
	movl	$1, %eax
	addq	$8, %rsp
	.cfi_remember_state
	.cfi_def_cfa_offset 8
	ret
.LVL893:
.L595:
	.cfi_restore_state
	.loc 18 64 0 discriminator 3
	leaq	_ZZ15caml_fill_bytesiiiiE19__PRETTY_FUNCTION__(%rip), %rcx
.LVL894:
	movl	$64, %edx
.LVL895:
	leaq	.LC78(%rip), %rsi
.LVL896:
	leaq	.LC79(%rip), %rdi
.LVL897:
	call	__assert_fail@PLT
.LVL898:
.L602:
	.loc 18 65 0 discriminator 1
	leaq	_ZZ15caml_fill_bytesiiiiE19__PRETTY_FUNCTION__(%rip), %rcx
.LVL899:
	movl	$65, %edx
.LVL900:
	leaq	.LC78(%rip), %rsi
.LVL901:
	leaq	.LC80(%rip), %rdi
.LVL902:
	call	__assert_fail@PLT
.LVL903:
	.cfi_endproc
.LFE467:
	.size	_Z15caml_fill_bytesiiii, .-_Z15caml_fill_bytesiiii
	.globl	_Z17caml_string_equalii
	.type	_Z17caml_string_equalii, @function
_Z17caml_string_equalii:
.LFB468:
	.loc 18 72 0
	.cfi_startproc
.LVL904:
	.loc 18 74 0
	cmpl	%esi, %edi
	je	.L614
	.loc 18 75 0
	movl	%edi, %edx
	shrl	$16, %edx
	movzbl	%dl, %edx
	andl	$32, %edx
	jne	.L605
	.loc 18 75 0 is_stmt 0 discriminator 1
	movl	%edi, %eax
	sall	$12, %eax
	sarl	$12, %eax
	cltq
	leaq	-4+ocaml_ram_heap(%rip), %rcx
	movl	(%rcx,%rax), %r9d
	sarl	$2, %r9d
	andl	$4194303, %r9d
.L606:
.LVL905:
	.loc 18 76 0 is_stmt 1 discriminator 4
	movl	%esi, %ecx
	shrl	$16, %ecx
	movzbl	%cl, %ecx
	andl	$32, %ecx
	jne	.L607
	.loc 18 76 0 is_stmt 0 discriminator 1
	movl	%esi, %eax
	sall	$12, %eax
	sarl	$12, %eax
	cltq
	leaq	-4+ocaml_ram_heap(%rip), %r8
	movl	(%r8,%rax), %r8d
	sarl	$2, %r8d
	andl	$4194303, %r8d
.L608:
.LVL906:
	.loc 18 77 0 is_stmt 1 discriminator 4
	movl	$1, %eax
	cmpl	%r8d, %r9d
	je	.L623
	.loc 18 84 0
	rep ret
.LVL907:
.L605:
	.loc 18 75 0 discriminator 2
	movl	%edi, %eax
	andl	$1048575, %eax
	leaq	-4+_ZL16ocaml_flash_heap(%rip), %rcx
	movl	(%rcx,%rax), %r9d
	sarl	$2, %r9d
	andl	$4194303, %r9d
	jmp	.L606
.LVL908:
.L607:
	.loc 18 76 0 discriminator 2
	movl	%esi, %eax
	andl	$1048575, %eax
	leaq	-4+_ZL16ocaml_flash_heap(%rip), %r8
	movl	(%r8,%rax), %r8d
	sarl	$2, %r8d
	andl	$4194303, %r8d
	jmp	.L608
.LVL909:
.L623:
.LBB913:
	.loc 18 78 0
	testl	%r9d, %r9d
	je	.L616
.LBE913:
	.loc 18 72 0
	pushq	%rbx
	.cfi_def_cfa_offset 16
	.cfi_offset 3, -16
.LBB917:
.LBB914:
	.loc 18 79 0
	movl	%edi, %r11d
	sall	$12, %r11d
	sarl	$12, %r11d
	movslq	%r11d, %r11
	.loc 18 80 0
	movl	%esi, %r10d
	sall	$12, %r10d
	sarl	$12, %r10d
	movslq	%r10d, %r10
	leal	-1(%r9), %eax
	leaq	4(,%rax,4), %rbx
	movl	$0, %eax
	.loc 18 79 0
	andl	$1048575, %edi
.LVL910:
	leaq	_ZL16ocaml_flash_heap(%rip), %r9
.LVL911:
	addq	%r9, %rdi
	leaq	ocaml_ram_heap(%rip), %r8
.LVL912:
	addq	%r8, %r11
	.loc 18 80 0
	andl	$1048575, %esi
.LVL913:
	addq	%r9, %rsi
	addq	%r8, %r10
	jmp	.L613
.LVL914:
.L609:
	.loc 18 79 0 discriminator 2
	movl	(%rdi,%rax), %r9d
	jmp	.L610
.LVL915:
.L611:
	.loc 18 80 0 discriminator 2
	movl	(%rsi,%rax), %r8d
.L612:
.LVL916:
	.loc 18 81 0 discriminator 4
	cmpl	%r8d, %r9d
	jne	.L617
	addq	$4, %rax
.LBE914:
	.loc 18 78 0 discriminator 2
	cmpq	%rbx, %rax
	je	.L624
.LVL917:
.L613:
.LBB915:
	.loc 18 79 0
	testl	%edx, %edx
	jne	.L609
	.loc 18 79 0 is_stmt 0 discriminator 1
	movl	(%r11,%rax), %r9d
.L610:
.LVL918:
	.loc 18 80 0 is_stmt 1 discriminator 4
	testl	%ecx, %ecx
	jne	.L611
	.loc 18 80 0 is_stmt 0 discriminator 1
	movl	(%r10,%rax), %r8d
	jmp	.L612
.LVL919:
.L624:
.LBE915:
.LBE917:
	.loc 18 83 0 is_stmt 1
	movl	$3, %eax
.LBB918:
	jmp	.L603
.LVL920:
.L614:
	.cfi_def_cfa_offset 8
	.cfi_restore 3
.LBE918:
	.loc 18 74 0
	movl	$3, %eax
	ret
.LVL921:
.L616:
	.loc 18 83 0
	movl	$3, %eax
	ret
.LVL922:
.L617:
	.cfi_def_cfa_offset 16
	.cfi_offset 3, -16
.LBB919:
.LBB916:
	.loc 18 81 0
	movl	$1, %eax
.L603:
.LBE916:
.LBE919:
	.loc 18 84 0
	popq	%rbx
	.cfi_def_cfa_offset 8
	ret
	.cfi_endproc
.LFE468:
	.size	_Z17caml_string_equalii, .-_Z17caml_string_equalii
	.globl	_Z14string_compareii
	.type	_Z14string_compareii, @function
_Z14string_compareii:
.LFB469:
	.loc 18 86 0
	.cfi_startproc
.LVL923:
	.loc 18 88 0
	movl	$0, %eax
	cmpl	%esi, %edi
	je	.L644
	.loc 18 86 0
	pushq	%r12
	.cfi_def_cfa_offset 16
	.cfi_offset 12, -16
	pushq	%rbp
	.cfi_def_cfa_offset 24
	.cfi_offset 6, -24
	pushq	%rbx
	.cfi_def_cfa_offset 32
	.cfi_offset 3, -32
	.loc 18 89 0
	movl	%edi, %r8d
	shrl	$16, %r8d
	movzbl	%r8b, %r8d
	andl	$32, %r8d
	jne	.L627
	.loc 18 89 0 is_stmt 0 discriminator 1
	movl	%edi, %eax
	sall	$12, %eax
	sarl	$12, %eax
	cltq
	leaq	-4+ocaml_ram_heap(%rip), %rdx
	movl	(%rdx,%rax), %ebp
	andl	$16777212, %ebp
.L628:
.LVL924:
	.loc 18 90 0 is_stmt 1 discriminator 4
	movl	%esi, %r9d
	shrl	$16, %r9d
	movzbl	%r9b, %r9d
	andl	$32, %r9d
	jne	.L629
	.loc 18 90 0 is_stmt 0 discriminator 1
	movl	%esi, %eax
	sall	$12, %eax
	sarl	$12, %eax
	cltq
	leaq	-4+ocaml_ram_heap(%rip), %rdx
	movl	(%rdx,%rax), %ebx
	andl	$16777212, %ebx
.L630:
.LVL925:
	cmpl	%ebx, %ebp
	movl	%ebx, %eax
	cmovbe	%ebp, %eax
.LVL926:
.LBB920:
	.loc 18 92 0 is_stmt 1 discriminator 4
	testl	%eax, %eax
	je	.L631
.LBB921:
	.loc 18 93 0
	movl	%edi, %r12d
	sall	$12, %r12d
	sarl	$12, %r12d
	movslq	%r12d, %r12
	.loc 18 94 0
	movl	%esi, %r10d
	sall	$12, %r10d
	sarl	$12, %r10d
	movslq	%r10d, %r10
	leal	-1(%rax), %r11d
	addq	$1, %r11
	movl	$0, %eax
.LVL927:
	.loc 18 93 0
	andl	$1048575, %edi
.LVL928:
	leaq	_ZL16ocaml_flash_heap(%rip), %rcx
	addq	%rcx, %rdi
	leaq	ocaml_ram_heap(%rip), %rdx
	addq	%rdx, %r12
	.loc 18 94 0
	andl	$1048575, %esi
.LVL929:
	addq	%rcx, %rsi
	addq	%rdx, %r10
	jmp	.L636
.LVL930:
.L627:
.LBE921:
.LBE920:
	.loc 18 89 0 discriminator 2
	movl	%edi, %eax
	andl	$1048575, %eax
	leaq	-4+_ZL16ocaml_flash_heap(%rip), %rdx
	movl	(%rdx,%rax), %ebp
	andl	$16777212, %ebp
	jmp	.L628
.LVL931:
.L629:
	.loc 18 90 0 discriminator 2
	movl	%esi, %eax
	andl	$1048575, %eax
	leaq	-4+_ZL16ocaml_flash_heap(%rip), %rdx
	movl	(%rdx,%rax), %ebx
	andl	$16777212, %ebx
	jmp	.L630
.LVL932:
.L632:
.LBB926:
.LBB922:
	.loc 18 93 0 discriminator 2
	movzbl	(%rdi,%rax), %ecx
	jmp	.L633
.LVL933:
.L634:
	.loc 18 94 0 discriminator 2
	movzbl	(%rsi,%rax), %edx
.L635:
.LVL934:
	.loc 18 95 0 discriminator 4
	cmpb	%dl, %cl
	jl	.L638
	.loc 18 96 0
	jg	.L639
.LVL935:
	addq	$1, %rax
.LVL936:
.LBE922:
	.loc 18 92 0 discriminator 2
	cmpq	%r11, %rax
	je	.L631
.LVL937:
.L636:
.LBB923:
	.loc 18 93 0
	testl	%r8d, %r8d
	jne	.L632
	.loc 18 93 0 is_stmt 0 discriminator 1
	movzbl	(%r12,%rax), %ecx
.L633:
.LVL938:
	.loc 18 94 0 is_stmt 1 discriminator 4
	testl	%r9d, %r9d
	jne	.L634
	.loc 18 94 0 is_stmt 0 discriminator 1
	movzbl	(%r10,%rax), %edx
	jmp	.L635
.LVL939:
.L631:
.LBE923:
.LBE926:
	.loc 18 98 0 is_stmt 1
	movl	$0, %eax
	cmpl	%ebx, %ebp
	je	.L625
	.loc 18 99 0
	cmpl	%ebx, %ebp
	sbbl	%eax, %eax
	orl	$1, %eax
	jmp	.L625
.LVL940:
.L638:
.LBB927:
.LBB924:
	.loc 18 95 0
	movl	$-1, %eax
.LVL941:
.L625:
.LBE924:
.LBE927:
	.loc 18 100 0
	popq	%rbx
	.cfi_remember_state
	.cfi_def_cfa_offset 24
.LVL942:
	popq	%rbp
	.cfi_def_cfa_offset 16
.LVL943:
	popq	%r12
	.cfi_def_cfa_offset 8
	ret
.LVL944:
.L639:
	.cfi_restore_state
.LBB928:
.LBB925:
	.loc 18 96 0
	movl	$1, %eax
.LVL945:
	jmp	.L625
.LVL946:
.L644:
	.cfi_def_cfa_offset 8
	.cfi_restore 3
	.cfi_restore 6
	.cfi_restore 12
.LBE925:
.LBE928:
	.loc 18 100 0
	rep ret
	.cfi_endproc
.LFE469:
	.size	_Z14string_compareii, .-_Z14string_compareii
	.globl	_Z19caml_string_compareii
	.type	_Z19caml_string_compareii, @function
_Z19caml_string_compareii:
.LFB470:
	.loc 18 102 0
	.cfi_startproc
.LVL947:
	.loc 18 103 0
	call	_Z14string_compareii
.LVL948:
	leal	1(%rax,%rax), %eax
	.loc 18 104 0
	ret
	.cfi_endproc
.LFE470:
	.size	_Z19caml_string_compareii, .-_Z19caml_string_compareii
	.globl	_Z18caml_bytes_compareii
	.type	_Z18caml_bytes_compareii, @function
_Z18caml_bytes_compareii:
.LFB471:
	.loc 18 106 0
	.cfi_startproc
.LVL949:
	.loc 18 107 0
	call	_Z19caml_string_compareii
.LVL950:
	.loc 18 108 0
	rep ret
	.cfi_endproc
.LFE471:
	.size	_Z18caml_bytes_compareii, .-_Z18caml_bytes_compareii
	.globl	_Z16caml_bytes_equalii
	.type	_Z16caml_bytes_equalii, @function
_Z16caml_bytes_equalii:
.LFB472:
	.loc 18 110 0
	.cfi_startproc
.LVL951:
	.loc 18 111 0
	call	_Z17caml_string_equalii
.LVL952:
	.loc 18 112 0
	rep ret
	.cfi_endproc
.LFE472:
	.size	_Z16caml_bytes_equalii, .-_Z16caml_bytes_equalii
	.globl	_Z20caml_string_notequalii
	.type	_Z20caml_string_notequalii, @function
_Z20caml_string_notequalii:
.LFB473:
	.loc 18 114 0
	.cfi_startproc
.LVL953:
	.loc 18 115 0
	call	_Z17caml_string_equalii
.LVL954:
	andl	$2, %eax
	cmpl	$1, %eax
	sbbl	%eax, %eax
	andl	$2, %eax
	addl	$1, %eax
	.loc 18 116 0
	ret
	.cfi_endproc
.LFE473:
	.size	_Z20caml_string_notequalii, .-_Z20caml_string_notequalii
	.globl	_Z20caml_string_of_bytesi
	.type	_Z20caml_string_of_bytesi, @function
_Z20caml_string_of_bytesi:
.LFB479:
	.loc 18 157 0
	.cfi_startproc
.LVL955:
	movl	%edi, %eax
	.loc 18 159 0
	ret
	.cfi_endproc
.LFE479:
	.size	_Z20caml_string_of_bytesi, .-_Z20caml_string_of_bytesi
	.globl	_Z20caml_bytes_of_stringi
	.type	_Z20caml_bytes_of_stringi, @function
_Z20caml_bytes_of_stringi:
.LFB480:
	.loc 18 161 0
	.cfi_startproc
.LVL956:
	movl	%edi, %eax
	.loc 18 163 0
	ret
	.cfi_endproc
.LFE480:
	.size	_Z20caml_bytes_of_stringi, .-_Z20caml_bytes_of_stringi
	.globl	_Z25caml_sys_const_big_endiani
	.type	_Z25caml_sys_const_big_endiani, @function
_Z25caml_sys_const_big_endiani:
.LFB481:
	.file 19 "/home/adilla/Documents/VmMic/Tools/OMicroBPIC32/src/byterun/vm/sys.c"
	.loc 19 1 0
	.cfi_startproc
.LVL957:
	.loc 19 3 0
	movl	$1, %eax
	ret
	.cfi_endproc
.LFE481:
	.size	_Z25caml_sys_const_big_endiani, .-_Z25caml_sys_const_big_endiani
	.globl	_Z24caml_sys_const_word_sizei
	.type	_Z24caml_sys_const_word_sizei, @function
_Z24caml_sys_const_word_sizei:
.LFB482:
	.loc 19 5 0
	.cfi_startproc
.LVL958:
	.loc 19 7 0
	movl	$65, %eax
	ret
	.cfi_endproc
.LFE482:
	.size	_Z24caml_sys_const_word_sizei, .-_Z24caml_sys_const_word_sizei
	.globl	_Z23caml_sys_const_int_sizei
	.type	_Z23caml_sys_const_int_sizei, @function
_Z23caml_sys_const_int_sizei:
.LFB483:
	.loc 19 9 0
	.cfi_startproc
.LVL959:
	.loc 19 11 0
	movl	$63, %eax
	ret
	.cfi_endproc
.LFE483:
	.size	_Z23caml_sys_const_int_sizei, .-_Z23caml_sys_const_int_sizei
	.globl	_Z25caml_sys_const_max_wosizei
	.type	_Z25caml_sys_const_max_wosizei, @function
_Z25caml_sys_const_max_wosizei:
.LFB484:
	.loc 19 13 0
	.cfi_startproc
.LVL960:
	.loc 19 15 0
	movl	$8388607, %eax
	ret
	.cfi_endproc
.LFE484:
	.size	_Z25caml_sys_const_max_wosizei, .-_Z25caml_sys_const_max_wosizei
	.globl	_Z26caml_ensure_stack_capacityi
	.type	_Z26caml_ensure_stack_capacityi, @function
_Z26caml_ensure_stack_capacityi:
.LFB485:
	.file 20 "/home/adilla/Documents/VmMic/Tools/OMicroBPIC32/src/byterun/vm/stack.c"
	.loc 20 3 0
	.cfi_startproc
.LVL961:
	.loc 20 6 0
	movl	$1, %eax
	ret
	.cfi_endproc
.LFE485:
	.size	_Z26caml_ensure_stack_capacityi, .-_Z26caml_ensure_stack_capacityi
	.globl	_Z19caml_gc_collectionsi
	.type	_Z19caml_gc_collectionsi, @function
_Z19caml_gc_collectionsi:
.LFB514:
	.file 21 "/home/adilla/Documents/VmMic/Tools/OMicroBPIC32/src/byterun/vm/gc.c"
	.loc 21 11 0
	.cfi_startproc
.LVL962:
	.loc 21 12 0
	movl	gc_count(%rip), %eax
	leal	1(%rax,%rax), %eax
	.loc 21 13 0
	ret
	.cfi_endproc
.LFE514:
	.size	_Z19caml_gc_collectionsi, .-_Z19caml_gc_collectionsi
	.globl	_Z18caml_gc_live_wordsi
	.type	_Z18caml_gc_live_wordsi, @function
_Z18caml_gc_live_wordsi:
.LFB515:
	.loc 21 15 0
	.cfi_startproc
.LVL963:
	.loc 21 17 0
	movq	heap_end(%rip), %rax
	subq	heap_ptr(%rip), %rax
	sarq	$2, %rax
	negq	%rax
	leal	400(%rax,%rax), %eax
	orl	$1, %eax
	.loc 21 21 0
	ret
	.cfi_endproc
.LFE515:
	.size	_Z18caml_gc_live_wordsi, .-_Z18caml_gc_live_wordsi
	.globl	_Z18caml_gc_free_wordsi
	.type	_Z18caml_gc_free_wordsi, @function
_Z18caml_gc_free_wordsi:
.LFB516:
	.loc 21 23 0
	.cfi_startproc
.LVL964:
	.loc 21 24 0
	movq	heap_end(%rip), %rax
	subq	heap_ptr(%rip), %rax
	sarq	$2, %rax
	leal	1(%rax,%rax), %eax
	.loc 21 25 0
	ret
	.cfi_endproc
.LFE516:
	.size	_Z18caml_gc_free_wordsi, .-_Z18caml_gc_free_wordsi
	.globl	_Z23caml_gc_used_stack_sizei
	.type	_Z23caml_gc_used_stack_sizei, @function
_Z23caml_gc_used_stack_sizei:
.LFB517:
	.loc 21 27 0
	.cfi_startproc
.LVL965:
	.loc 21 28 0
	leaq	800+ocaml_stack(%rip), %rax
	subq	sp(%rip), %rax
	sarq	$2, %rax
	leal	1(%rax,%rax), %eax
	.loc 21 29 0
	ret
	.cfi_endproc
.LFE517:
	.size	_Z23caml_gc_used_stack_sizei, .-_Z23caml_gc_used_stack_sizei
	.globl	_Z28caml_gc_available_stack_sizei
	.type	_Z28caml_gc_available_stack_sizei, @function
_Z28caml_gc_available_stack_sizei:
.LFB518:
	.loc 21 31 0
	.cfi_startproc
.LVL966:
	.loc 21 32 0
	leaq	ocaml_stack(%rip), %rax
	movq	sp(%rip), %rdx
	subq	%rax, %rdx
	movq	%rdx, %rax
	sarq	$2, %rax
	leal	1(%rax,%rax), %eax
	.loc 21 33 0
	ret
	.cfi_endproc
.LFE518:
	.size	_Z28caml_gc_available_stack_sizei, .-_Z28caml_gc_available_stack_sizei
	.globl	_Z9caml_hashiiii
	.type	_Z9caml_hashiiii, @function
_Z9caml_hashiiii:
.LFB520:
	.loc 2 33 0
	.cfi_startproc
.LVL967:
	subq	$24, %rsp
	.cfi_def_cfa_offset 32
	.loc 2 33 0
	movq	%fs:40, %rax
	movq	%rax, 8(%rsp)
	xorl	%eax, %eax
	.loc 2 34 0
	sarl	%edi
.LVL968:
	movl	%edi, (%rsp)
	.loc 2 35 0
	sarl	%esi
.LVL969:
	movl	%esi, 4(%rsp)
	.loc 2 36 0
	sarl	%edx
.LVL970:
	leaq	4(%rsp), %rsi
	movq	%rsp, %rdi
	call	_ZL4hashPjS_ji
.LVL971:
	addl	%eax, %eax
	andl	$2147483646, %eax
	orl	$1, %eax
	.loc 2 37 0
	movq	8(%rsp), %rcx
	xorq	%fs:40, %rcx
	jne	.L668
	addq	$24, %rsp
	.cfi_remember_state
	.cfi_def_cfa_offset 8
	ret
.L668:
	.cfi_restore_state
	call	__stack_chk_fail@PLT
.LVL972:
	.cfi_endproc
.LFE520:
	.size	_Z9caml_hashiiii, .-_Z9caml_hashiiii
	.globl	_Z13int32_compareii
	.type	_Z13int32_compareii, @function
_Z13int32_compareii:
.LFB522:
	.file 22 "/home/adilla/Documents/VmMic/Tools/OMicroBPIC32/src/byterun/vm/int32.c"
	.loc 22 43 0
	.cfi_startproc
.LVL973:
	.loc 22 44 0
	testb	$1, %dil
	je	.L670
	.loc 22 44 0 is_stmt 0 discriminator 1
	sarl	%edi
.LVL974:
.L671:
	.loc 22 45 0 is_stmt 1 discriminator 8
	testb	$1, %sil
	je	.L673
	.loc 22 45 0 is_stmt 0 discriminator 1
	sarl	%esi
.LVL975:
.L674:
	.loc 22 46 0 is_stmt 1 discriminator 8
	cmpl	%esi, %edi
	jl	.L677
	.loc 22 47 0
	setg	%al
	ret
.LVL976:
.L670:
	.loc 22 44 0 discriminator 2
	testl	$2097152, %edi
	jne	.L672
	.loc 22 44 0 is_stmt 0 discriminator 4
	sall	$12, %edi
.LVL977:
	sarl	$12, %edi
	movslq	%edi, %rdi
	leaq	4+ocaml_ram_heap(%rip), %rax
	movl	(%rax,%rdi), %edi
	jmp	.L671
.LVL978:
.L672:
	.loc 22 44 0 discriminator 5
	andl	$1048575, %edi
.LVL979:
	leaq	4+_ZL16ocaml_flash_heap(%rip), %rax
	movl	(%rax,%rdi), %edi
	jmp	.L671
.LVL980:
.L673:
	.loc 22 45 0 is_stmt 1 discriminator 2
	testl	$2097152, %esi
	jne	.L675
	.loc 22 45 0 is_stmt 0 discriminator 4
	sall	$12, %esi
.LVL981:
	sarl	$12, %esi
	movslq	%esi, %rsi
	leaq	4+ocaml_ram_heap(%rip), %rax
	movl	(%rax,%rsi), %esi
	jmp	.L674
.LVL982:
.L675:
	.loc 22 45 0 discriminator 5
	andl	$1048575, %esi
.LVL983:
	leaq	4+_ZL16ocaml_flash_heap(%rip), %rax
	movl	(%rax,%rsi), %esi
	jmp	.L674
.LVL984:
.L677:
	.loc 22 46 0 is_stmt 1
	movl	$-1, %eax
	.loc 22 49 0
	ret
	.cfi_endproc
.LFE522:
	.size	_Z13int32_compareii, .-_Z13int32_compareii
	.globl	_Z18caml_int32_compareii
	.type	_Z18caml_int32_compareii, @function
_Z18caml_int32_compareii:
.LFB523:
	.loc 22 51 0
	.cfi_startproc
.LVL985:
	.loc 22 52 0
	call	_Z13int32_compareii
.LVL986:
	movsbl	%al, %eax
	leal	1(%rax,%rax), %eax
	.loc 22 53 0
	ret
	.cfi_endproc
.LFE523:
	.size	_Z18caml_int32_compareii, .-_Z18caml_int32_compareii
	.globl	_Z17caml_int32_of_inti
	.type	_Z17caml_int32_of_inti, @function
_Z17caml_int32_of_inti:
.LFB536:
	.loc 22 109 0
	.cfi_startproc
.LVL987:
	movl	%edi, %eax
	.loc 22 111 0
	ret
	.cfi_endproc
.LFE536:
	.size	_Z17caml_int32_of_inti, .-_Z17caml_int32_of_inti
	.globl	_Z17caml_int32_to_inti
	.type	_Z17caml_int32_to_inti, @function
_Z17caml_int32_to_inti:
.LFB537:
	.loc 22 113 0
	.cfi_startproc
.LVL988:
	.loc 22 114 0
	testb	$1, %dil
	jne	.L684
	.loc 22 114 0 is_stmt 0 discriminator 2
	testl	$2097152, %edi
	je	.L685
	.loc 22 114 0 discriminator 5
	andl	$1048575, %edi
.LVL989:
	leaq	4+_ZL16ocaml_flash_heap(%rip), %rax
	movl	(%rax,%rdi), %edi
	leal	1(%rdi,%rdi), %eax
	.loc 22 115 0 is_stmt 1 discriminator 5
	ret
.LVL990:
.L684:
	.loc 22 114 0 discriminator 1
	movl	%edi, %eax
	orl	$1, %eax
	ret
.L685:
	.loc 22 114 0 is_stmt 0 discriminator 4
	sall	$12, %edi
.LVL991:
	sarl	$12, %edi
	movslq	%edi, %rdi
	leaq	4+ocaml_ram_heap(%rip), %rax
	movl	(%rax,%rdi), %edi
	leal	1(%rdi,%rdi), %eax
	ret
	.cfi_endproc
.LFE537:
	.size	_Z17caml_int32_to_inti, .-_Z17caml_int32_to_inti
	.globl	_Z19caml_int32_to_floati
	.type	_Z19caml_int32_to_floati, @function
_Z19caml_int32_to_floati:
.LFB539:
	.loc 22 121 0 is_stmt 1
	.cfi_startproc
.LVL992:
	.loc 22 122 0
	testb	$1, %dil
	jne	.L690
	.loc 22 122 0 is_stmt 0 discriminator 2
	testl	$2097152, %edi
	je	.L691
	.loc 22 122 0 discriminator 5
	andl	$1048575, %edi
.LVL993:
	leaq	4+_ZL16ocaml_flash_heap(%rip), %rax
	pxor	%xmm0, %xmm0
	cvtsi2ss	(%rax,%rdi), %xmm0
	jmp	.L688
.LVL994:
.L690:
	.loc 22 122 0 discriminator 1
	sarl	%edi
.LVL995:
	pxor	%xmm0, %xmm0
	cvtsi2ss	%edi, %xmm0
.L688:
	.loc 22 122 0 discriminator 8
	call	_Z14value_of_floatf
.LVL996:
	.loc 22 123 0 is_stmt 1 discriminator 8
	rep ret
.LVL997:
.L691:
	.loc 22 122 0 discriminator 4
	sall	$12, %edi
.LVL998:
	sarl	$12, %edi
	movslq	%edi, %rdi
	leaq	4+ocaml_ram_heap(%rip), %rax
	pxor	%xmm0, %xmm0
	cvtsi2ss	(%rax,%rdi), %xmm0
	jmp	.L688
	.cfi_endproc
.LFE539:
	.size	_Z19caml_int32_to_floati, .-_Z19caml_int32_to_floati
	.globl	_Z13int64_compareii
	.type	_Z13int64_compareii, @function
_Z13int64_compareii:
.LFB543:
	.file 23 "/home/adilla/Documents/VmMic/Tools/OMicroBPIC32/src/byterun/vm/int64.c"
	.loc 23 46 0
	.cfi_startproc
.LVL999:
	.loc 23 47 0
	testb	$1, %dil
	je	.L693
	.loc 23 47 0 is_stmt 0 discriminator 1
	sarl	%edi
.LVL1000:
	movslq	%edi, %rdi
.L694:
.LVL1001:
	.loc 23 48 0 is_stmt 1 discriminator 12
	testb	$1, %sil
	je	.L697
	.loc 23 48 0 is_stmt 0 discriminator 1
	sarl	%esi
.LVL1002:
	movslq	%esi, %rsi
.L698:
.LVL1003:
	.loc 23 49 0 is_stmt 1 discriminator 12
	cmpq	%rsi, %rdi
	jl	.L702
	.loc 23 50 0
	setg	%al
	ret
.LVL1004:
.L693:
	.loc 23 47 0 discriminator 2
	testl	$2097152, %edi
	jne	.L695
	.loc 23 47 0 is_stmt 0 discriminator 4
	sall	$12, %edi
.LVL1005:
	sarl	$12, %edi
	movslq	%edi, %rax
	leaq	4+ocaml_ram_heap(%rip), %rdx
	movl	(%rdx,%rax), %edx
	leaq	8+ocaml_ram_heap(%rip), %rcx
	movslq	(%rcx,%rax), %rdi
	salq	$32, %rdi
.L696:
	.loc 23 47 0 discriminator 11
	orq	%rdx, %rdi
	jmp	.L694
.LVL1006:
.L695:
	.loc 23 47 0 discriminator 5
	andl	$1048575, %edi
.LVL1007:
	leaq	4+_ZL16ocaml_flash_heap(%rip), %rax
	movl	(%rax,%rdi), %edx
	leaq	4(%rax), %rax
	movslq	(%rax,%rdi), %rdi
	salq	$32, %rdi
	jmp	.L696
.LVL1008:
.L697:
	.loc 23 48 0 is_stmt 1 discriminator 2
	testl	$2097152, %esi
	jne	.L699
	.loc 23 48 0 is_stmt 0 discriminator 4
	sall	$12, %esi
.LVL1009:
	sarl	$12, %esi
	movslq	%esi, %rax
	leaq	4+ocaml_ram_heap(%rip), %rdx
	movl	(%rdx,%rax), %edx
	leaq	8+ocaml_ram_heap(%rip), %rcx
	movslq	(%rcx,%rax), %rsi
	salq	$32, %rsi
.L700:
	.loc 23 48 0 discriminator 11
	orq	%rdx, %rsi
	jmp	.L698
.LVL1010:
.L699:
	.loc 23 48 0 discriminator 5
	andl	$1048575, %esi
.LVL1011:
	leaq	4+_ZL16ocaml_flash_heap(%rip), %rax
	movl	(%rax,%rsi), %edx
	leaq	4(%rax), %rax
	movslq	(%rax,%rsi), %rsi
	salq	$32, %rsi
	jmp	.L700
.LVL1012:
.L702:
	.loc 23 49 0 is_stmt 1
	movl	$-1, %eax
	.loc 23 52 0
	ret
	.cfi_endproc
.LFE543:
	.size	_Z13int64_compareii, .-_Z13int64_compareii
	.globl	_Z18caml_int64_compareii
	.type	_Z18caml_int64_compareii, @function
_Z18caml_int64_compareii:
.LFB544:
	.loc 23 54 0
	.cfi_startproc
.LVL1013:
	.loc 23 55 0
	call	_Z13int64_compareii
.LVL1014:
	movsbl	%al, %eax
	leal	1(%rax,%rax), %eax
	.loc 23 56 0
	ret
	.cfi_endproc
.LFE544:
	.size	_Z18caml_int64_compareii, .-_Z18caml_int64_compareii
	.globl	_Z17caml_int64_of_inti
	.type	_Z17caml_int64_of_inti, @function
_Z17caml_int64_of_inti:
.LFB557:
	.loc 23 112 0
	.cfi_startproc
.LVL1015:
	movl	%edi, %eax
	.loc 23 114 0
	ret
	.cfi_endproc
.LFE557:
	.size	_Z17caml_int64_of_inti, .-_Z17caml_int64_of_inti
	.globl	_Z17caml_int64_to_inti
	.type	_Z17caml_int64_to_inti, @function
_Z17caml_int64_to_inti:
.LFB558:
	.loc 23 116 0
	.cfi_startproc
.LVL1016:
	.loc 23 117 0
	testb	$1, %dil
	jne	.L710
	.loc 23 117 0 is_stmt 0 discriminator 2
	testl	$2097152, %edi
	jne	.L708
	.loc 23 117 0 discriminator 4
	sall	$12, %edi
.LVL1017:
	sarl	$12, %edi
	movslq	%edi, %rdi
	leaq	4+ocaml_ram_heap(%rip), %rax
	movl	(%rax,%rdi), %edi
.L709:
	.loc 23 117 0 discriminator 7
	leal	1(%rdi,%rdi), %eax
	.loc 23 118 0 is_stmt 1 discriminator 7
	ret
.LVL1018:
.L710:
	.loc 23 117 0 discriminator 1
	movl	%edi, %eax
	orl	$1, %eax
	ret
.L708:
	.loc 23 117 0 is_stmt 0 discriminator 5
	andl	$1048575, %edi
.LVL1019:
	leaq	4+_ZL16ocaml_flash_heap(%rip), %rax
	movl	(%rax,%rdi), %edi
	jmp	.L709
	.cfi_endproc
.LFE558:
	.size	_Z17caml_int64_to_inti, .-_Z17caml_int64_to_inti
	.globl	_Z19caml_int64_to_floati
	.type	_Z19caml_int64_to_floati, @function
_Z19caml_int64_to_floati:
.LFB560:
	.loc 23 124 0 is_stmt 1
	.cfi_startproc
.LVL1020:
	.loc 23 125 0
	testb	$1, %dil
	jne	.L716
	.loc 23 125 0 is_stmt 0 discriminator 2
	testl	$2097152, %edi
	jne	.L714
	.loc 23 125 0 discriminator 4
	sall	$12, %edi
.LVL1021:
	sarl	$12, %edi
	movslq	%edi, %rdi
	leaq	4+ocaml_ram_heap(%rip), %rax
	movl	(%rax,%rdi), %edx
	leaq	4(%rax), %rax
	movslq	(%rax,%rdi), %rax
	salq	$32, %rax
.L715:
	.loc 23 125 0 discriminator 11
	orq	%rdx, %rax
	pxor	%xmm0, %xmm0
	cvtsi2ssq	%rax, %xmm0
.L713:
	.loc 23 125 0 discriminator 12
	call	_Z14value_of_floatf
.LVL1022:
	.loc 23 126 0 is_stmt 1 discriminator 12
	rep ret
.LVL1023:
.L716:
	.loc 23 125 0 discriminator 1
	sarl	%edi
.LVL1024:
	pxor	%xmm0, %xmm0
	cvtsi2ss	%edi, %xmm0
	jmp	.L713
.LVL1025:
.L714:
	.loc 23 125 0 is_stmt 0 discriminator 5
	andl	$1048575, %edi
.LVL1026:
	leaq	4+_ZL16ocaml_flash_heap(%rip), %rax
	movl	(%rax,%rdi), %edx
	leaq	4(%rax), %rax
	movslq	(%rax,%rdi), %rax
	salq	$32, %rax
	jmp	.L715
	.cfi_endproc
.LFE560:
	.size	_Z19caml_int64_to_floati, .-_Z19caml_int64_to_floati
	.globl	_Z7gc_initv
	.type	_Z7gc_initv, @function
_Z7gc_initv:
.LFB563:
	.loc 3 15 0 is_stmt 1
	.cfi_startproc
	.loc 3 16 0
	leaq	ocaml_ram_heap(%rip), %rax
	movq	%rax, heap_ptr(%rip)
	.loc 3 17 0
	leaq	800(%rax), %rax
	movq	%rax, heap_end(%rip)
	.loc 3 18 0
	ret
	.cfi_endproc
.LFE563:
	.size	_Z7gc_initv, .-_Z7gc_initv
	.globl	_Z2gcv
	.type	_Z2gcv, @function
_Z2gcv:
.LFB573:
	.loc 3 309 0
	.cfi_startproc
	pushq	%r15
	.cfi_def_cfa_offset 16
	.cfi_offset 15, -16
	pushq	%r14
	.cfi_def_cfa_offset 24
	.cfi_offset 14, -24
	pushq	%r13
	.cfi_def_cfa_offset 32
	.cfi_offset 13, -32
	pushq	%r12
	.cfi_def_cfa_offset 40
	.cfi_offset 12, -40
	pushq	%rbp
	.cfi_def_cfa_offset 48
	.cfi_offset 6, -48
	pushq	%rbx
	.cfi_def_cfa_offset 56
	.cfi_offset 3, -56
	subq	$8, %rsp
	.cfi_def_cfa_offset 64
	.loc 3 310 0
	addl	$1, gc_count(%rip)
.LBB960:
.LBB961:
	.loc 3 106 0
	movl	acc(%rip), %edi
	call	_ZL9mark_rooti
.LVL1027:
	.loc 3 107 0
	movl	env(%rip), %edi
	call	_ZL9mark_rooti
.LVL1028:
	.loc 3 110 0
	movq	sp(%rip), %rbx
.LVL1029:
	leaq	800+ocaml_stack(%rip), %rax
.LVL1030:
	cmpq	%rax, %rbx
	jnb	.L719
	leaq	-1(%rax), %rax
.LVL1031:
	subq	%rbx, %rax
	shrq	$2, %rax
	leaq	4(%rbx,%rax,4), %rbp
.L720:
	.loc 3 111 0
	movl	(%rbx), %edi
	call	_ZL9mark_rooti
.LVL1032:
	.loc 3 110 0
	addq	$4, %rbx
.LVL1033:
	cmpq	%rbp, %rbx
	jne	.L720
.L719:
.LVL1034:
.LBE961:
.LBE960:
.LBB962:
.LBB963:
	.loc 3 145 0
	movl	ocaml_ram_heap(%rip), %eax
.LVL1035:
	.loc 3 146 0
	movq	heap_ptr(%rip), %r8
	.loc 3 144 0
	leaq	ocaml_ram_heap(%rip), %rdi
	jmp	.L721
.LVL1036:
.L766:
.LBB964:
.LBB965:
	.loc 3 148 0
	movl	%eax, %edx
	sarl	$2, %edx
	.loc 3 150 0
	andl	$4194303, %edx
	leaq	4(%rdi,%rdx,4), %rcx
.LVL1037:
	.loc 3 151 0
	cmpq	%rcx, %r8
	jbe	.L750
	movl	(%rcx), %eax
.LVL1038:
	testb	$3, %al
	jne	.L751
	.loc 3 152 0
	movl	%eax, %edx
	sarl	$2, %edx
	andl	$4194303, %edx
	leaq	4(%rcx,%rdx,4), %rsi
.LVL1039:
	.loc 3 153 0
	movq	%rdi, %r9
	movq	%rsi, %rdx
	subq	%rdi, %rdx
	sarq	$2, %rdx
	subl	$1, %edx
	cmpl	$4194303, %edx
	ja	.L765
.L725:
	.loc 3 151 0
	cmpq	%rsi, %r8
	jbe	.L724
	movl	(%rsi), %eax
.LVL1040:
	testb	$3, %al
	jne	.L724
	.loc 3 152 0
	movl	%eax, %edx
	sarl	$2, %edx
	andl	$4194303, %edx
	leaq	4(%rsi,%rdx,4), %rcx
.LVL1041:
	.loc 3 153 0
	movq	%rcx, %rdx
	subq	%r9, %rdx
	sarq	$2, %rdx
	subl	$1, %edx
	cmpl	$4194303, %edx
	ja	.L724
	.loc 3 152 0
	movq	%rcx, %rsi
	jmp	.L725
.LVL1042:
.L750:
	.loc 3 150 0
	movq	%rcx, %rsi
.LVL1043:
.L724:
	.loc 3 159 0
	movq	%rsi, %rdx
	subq	%rdi, %rdx
	sarq	$2, %rdx
	leal	-4(,%rdx,4), %edx
	orl	$-67108864, %edx
	movl	%edx, (%rdi)
	movq	%rsi, %rdi
.LVL1044:
.L721:
.LBE965:
.LBE964:
	.loc 3 146 0
	cmpq	%rdi, %r8
	jbe	.L722
.LBB967:
	.loc 3 147 0
	testb	$3, %al
	je	.L766
	.loc 3 161 0
	movl	%eax, %edx
	xorl	$2, %edx
	movl	%edx, (%rdi)
	.loc 3 162 0
	sarl	$2, %eax
.LVL1045:
	andl	$4194303, %eax
	leaq	4(%rdi,%rax,4), %rdi
.LVL1046:
	.loc 3 163 0
	movl	(%rdi), %eax
.LVL1047:
	jmp	.L721
.LVL1048:
.L751:
.LBB966:
	.loc 3 150 0
	movq	%rcx, %rsi
	jmp	.L724
.LVL1049:
.L765:
	movq	%rcx, %rsi
.LVL1050:
	jmp	.L724
.LVL1051:
.L722:
.LBE966:
.LBE967:
.LBE963:
.LBE962:
.LBB968:
.LBB969:
	.loc 3 188 0
	leaq	acc(%rip), %rdi
	call	_ZL15reverse_pointerPi
.LVL1052:
	.loc 3 189 0
	leaq	env(%rip), %rdi
	call	_ZL15reverse_pointerPi
.LVL1053:
	.loc 3 192 0
	movq	sp(%rip), %rbx
.LVL1054:
	leaq	800+ocaml_stack(%rip), %rax
.LVL1055:
	cmpq	%rax, %rbx
	jnb	.L730
	leaq	799+ocaml_stack(%rip), %rax
.LVL1056:
	subq	%rbx, %rax
	shrq	$2, %rax
	leaq	4(%rbx,%rax,4), %rbp
.L731:
	.loc 3 193 0
	movq	%rbx, %rdi
	call	_ZL15reverse_pointerPi
.LVL1057:
	.loc 3 192 0
	addq	$4, %rbx
.LVL1058:
	cmpq	%rbp, %rbx
	jne	.L731
.L730:
.LBE969:
.LBE968:
.LBB970:
.LBB971:
	.loc 3 223 0
	leaq	ocaml_ram_heap(%rip), %rbp
.LBB972:
	.loc 3 227 0
	movq	%rbp, %rbx
.LVL1059:
	jmp	.L729
.LVL1060:
.L754:
.LBB973:
.LBB974:
	.loc 3 231 0
	movq	%r14, %rbp
	jmp	.L729
.LVL1061:
.L767:
	.loc 3 230 0
	sarl	$2, %eax
.LVL1062:
	andl	$4194303, %eax
	leaq	4(%rbp,%rax,4), %r13
.LVL1063:
	.loc 3 231 0
	leaq	4(%rbp), %r14
.LVL1064:
	cmpq	%r14, %r13
	jbe	.L754
	movq	%r14, %r12
.LVL1065:
.L737:
	.loc 3 232 0
	movq	%r12, %rdi
	call	_ZL15reverse_pointerPi
.LVL1066:
	.loc 3 231 0
	addq	$4, %r12
.LVL1067:
	cmpq	%r12, %r13
	ja	.L737
	subq	%rbp, %r13
.LVL1068:
	leaq	-5(%r13), %rax
	shrq	$2, %rax
	leaq	4(%r14,%rax,4), %rbp
.LVL1069:
.L729:
.LBE974:
.LBE973:
.LBE972:
	.loc 3 224 0
	movq	heap_ptr(%rip), %r12
	cmpq	%rbp, %r12
	jbe	.L753
.LBB976:
	.loc 3 225 0
	movl	0(%rbp), %eax
.LVL1070:
	.loc 3 226 0
	testb	$2, %al
	je	.L733
.L734:
	.loc 3 227 0
	sall	$12, %eax
.LVL1071:
	sarl	$12, %eax
	andl	$-4, %eax
	cltq
	movl	(%rbx,%rax), %eax
.LVL1072:
	.loc 3 226 0
	testb	$2, %al
	jne	.L734
.L733:
.LBB975:
	.loc 3 229 0
	movl	%eax, %edx
	sarl	$24, %edx
	cmpb	$-6, %dl
	jbe	.L767
	.loc 3 235 0
	sarl	$2, %eax
.LVL1073:
	andl	$4194303, %eax
	leaq	4(%rbp,%rax,4), %rbp
.LVL1074:
	jmp	.L729
.L753:
.LBE975:
.LBE976:
.LBE971:
.LBE970:
.LBB977:
.LBB978:
	.loc 3 248 0
	leaq	ocaml_ram_heap(%rip), %r8
	.loc 3 247 0
	movq	%r8, %rsi
.LBB979:
.LBB980:
.LBB981:
.LBB982:
	.loc 3 255 0
	movq	%r8, %rdi
	.loc 3 256 0
	movq	%r8, %r9
	movl	$3, %r10d
	jmp	.L732
.LVL1075:
.L769:
	leaq	4(%r8), %r11
	subq	%rdi, %r11
	orl	$2143289344, %r11d
.L740:
.LVL1076:
	.loc 3 255 0
	movl	%edx, %eax
	sall	$12, %eax
	sarl	$12, %eax
	xorl	$2, %eax
	cltq
	addq	%rdi, %rax
	movl	(%rax), %ecx
	movl	%ecx, %edx
.LVL1077:
	andl	$-2, %edx
.LVL1078:
	.loc 3 256 0
	movl	%r11d, (%rax)
.LVL1079:
.LBE982:
	.loc 3 258 0
	testb	$2, %cl
	jne	.L740
	.loc 3 259 0
	movl	%edx, (%rsi)
	.loc 3 260 0
	movl	%edx, %ecx
	sarl	$2, %ecx
	andl	$4194303, %ecx
	addl	$1, %ecx
.LVL1080:
.LBB983:
	.loc 3 261 0
	movl	%edx, %eax
	sarl	$24, %eax
	cmpb	$-9, %al
	je	.L768
	.loc 3 278 0
	movl	%ecx, %eax
	leaq	(%rsi,%rax,4), %rsi
.LVL1081:
.L742:
.LBE983:
	.loc 3 280 0
	movl	%ecx, %ecx
	leaq	(%r8,%rcx,4), %r8
.LVL1082:
.L732:
.LBE981:
.LBE980:
.LBE979:
	.loc 3 249 0
	cmpq	%r12, %rsi
	jnb	.L738
.LBB994:
	.loc 3 250 0
	movl	(%rsi), %edx
.LVL1083:
.LBB993:
	.loc 3 252 0
	movl	%edx, %eax
	andl	$3, %eax
	cmpl	$2, %eax
	je	.L769
	.loc 3 282 0
	movl	%edx, %eax
	orl	$2, %eax
	movl	%eax, (%rsi)
	.loc 3 283 0
	movl	%edx, %eax
	sarl	$2, %eax
	andl	$4194303, %eax
	leaq	4(%rsi,%rax,4), %rsi
.LVL1084:
	jmp	.L732
.LVL1085:
.L768:
.LBB992:
.LBB991:
.LBB984:
	.loc 3 263 0
	movl	%ecx, %eax
	leaq	(%rsi,%rax,4), %rbp
.LVL1086:
.LBB985:
	.loc 3 265 0
	leaq	4(%rsi), %r13
.LVL1087:
	cmpq	%r13, %rbp
	jbe	.L755
	movq	%r13, %rdx
.LVL1088:
.LBE985:
	.loc 3 264 0
	movl	$2, %ebx
	jmp	.L745
.LVL1089:
.L743:
.LBB990:
	.loc 3 265 0
	addq	$4, %rdx
.LVL1090:
	addl	$1, %ebx
.LVL1091:
	cmpq	%rdx, %rbp
	jbe	.L770
.LVL1092:
.L745:
.LBB986:
	.loc 3 266 0
	movl	(%rdx), %r14d
.LVL1093:
.LBB987:
	.loc 3 267 0
	movl	%r14d, %eax
	andl	$3, %eax
	cmpl	$2, %eax
	jne	.L743
.LBB988:
.LBB989:
	.loc 3 271 0
	movl	%ebx, %eax
	leaq	(%r8,%rax,4), %r11
	subq	%r9, %r11
	orl	$2143289344, %r11d
.L744:
.LVL1094:
	.loc 3 270 0
	movl	%r14d, %eax
	sall	$12, %eax
	sarl	$12, %eax
	xorl	$2, %eax
	cltq
	addq	%rdi, %rax
	movl	(%rax), %r15d
	movl	%r15d, %r14d
.LVL1095:
	andl	$-2, %r14d
.LVL1096:
	.loc 3 271 0
	movl	%r11d, (%rax)
.LVL1097:
.LBE989:
	.loc 3 273 0
	testb	$2, %r15b
	jne	.L744
	.loc 3 274 0
	movl	%r14d, %eax
	orl	$1, %eax
	movl	%eax, (%rdx)
	jmp	.L743
.LVL1098:
.L770:
	subq	%rsi, %rbp
.LVL1099:
	leaq	-8(%rbp,%r10), %rax
	shrq	$2, %rax
	leaq	4(%r13,%rax,4), %rsi
.LVL1100:
	jmp	.L742
.LVL1101:
.L755:
.LBE988:
.LBE987:
.LBE986:
	.loc 3 265 0
	movq	%r13, %rsi
	jmp	.L742
.LVL1102:
.L738:
.LBE990:
.LBE984:
.LBE991:
.LBE992:
.LBE993:
.LBE994:
.LBE978:
.LBE977:
.LBB995:
.LBB996:
	.loc 3 293 0
	leaq	ocaml_ram_heap(%rip), %rbp
	.loc 3 294 0
	cmpq	%rbp, %r12
	jbe	.L747
	.loc 3 292 0
	movq	%rbp, %rbx
	jmp	.L749
.LVL1103:
.L748:
.LBB997:
	.loc 3 301 0
	movl	%r13d, %eax
	leaq	(%rbx,%rax,4), %rbx
.LVL1104:
.LBE997:
	.loc 3 294 0
	cmpq	%r12, %rbx
	jnb	.L747
.LVL1105:
.L749:
.LBB1000:
	.loc 3 295 0
	movl	(%rbx), %edx
.LVL1106:
	.loc 3 296 0
	movl	%edx, %eax
	sarl	$2, %eax
	andl	$4194303, %eax
	leal	1(%rax), %r13d
.LVL1107:
	.loc 3 297 0
	testb	$3, %dl
	jne	.L748
	.loc 3 298 0
	movl	%r13d, %r14d
	salq	$2, %r14
.LVL1108:
.LBB998:
.LBB999:
	.file 24 "/usr/include/x86_64-linux-gnu/bits/string_fortified.h"
	.loc 24 40 0
	movq	%r14, %rdx
.LVL1109:
	movq	%rbx, %rsi
	movq	%rbp, %rdi
	call	memmove@PLT
.LVL1110:
.LBE999:
.LBE998:
	.loc 3 299 0
	addq	%r14, %rbp
.LVL1111:
	jmp	.L748
.LVL1112:
.L747:
.LBE1000:
	.loc 3 303 0
	movq	%rbp, heap_ptr(%rip)
.LBE996:
.LBE995:
	.loc 3 381 0
	addq	$8, %rsp
	.cfi_def_cfa_offset 56
	popq	%rbx
	.cfi_def_cfa_offset 48
	popq	%rbp
	.cfi_def_cfa_offset 40
	popq	%r12
	.cfi_def_cfa_offset 32
	popq	%r13
	.cfi_def_cfa_offset 24
	popq	%r14
	.cfi_def_cfa_offset 16
	popq	%r15
	.cfi_def_cfa_offset 8
	ret
	.cfi_endproc
.LFE573:
	.size	_Z2gcv, .-_Z2gcv
	.globl	_Z14caml_make_vectii
	.type	_Z14caml_make_vectii, @function
_Z14caml_make_vectii:
.LFB167:
	.loc 11 4 0
	.cfi_startproc
.LVL1113:
	.loc 11 8 0
	sarl	%edi
.LVL1114:
	je	.L775
	.loc 11 4 0
	pushq	%r12
	.cfi_def_cfa_offset 16
	.cfi_offset 12, -16
	pushq	%rbp
	.cfi_def_cfa_offset 24
	.cfi_offset 6, -24
	pushq	%rbx
	.cfi_def_cfa_offset 32
	.cfi_offset 3, -32
	movl	%edi, %ebp
	movl	%esi, %ebx
	.loc 11 11 0
	movl	%edi, %eax
	leaq	4(,%rax,4), %r12
	movq	%r12, %rax
	addq	heap_ptr(%rip), %rax
	cmpq	%rax, heap_end(%rip)
	jb	.L781
.LVL1115:
.L773:
	.loc 11 11 0 is_stmt 0 discriminator 2
	leal	0(,%rbp,4), %edx
	movq	heap_ptr(%rip), %rax
	movl	%edx, (%rax)
	movq	heap_ptr(%rip), %rcx
	leaq	4(%rcx), %rax
	leaq	ocaml_ram_heap(%rip), %rdx
	subq	%rdx, %rax
	orl	$2143289344, %eax
.LVL1116:
	addq	%rcx, %r12
	movq	%r12, heap_ptr(%rip)
.LVL1117:
	.loc 11 13 0 is_stmt 1 discriminator 2
	movl	%eax, %ecx
	sall	$12, %ecx
	sarl	$12, %ecx
	movslq	%ecx, %rcx
	addq	%rcx, %rdx
	leaq	4+ocaml_ram_heap(%rip), %rsi
	addq	%rsi, %rcx
	leal	-1(%rbp), %esi
	leaq	(%rcx,%rsi,4), %rcx
.LVL1118:
.L774:
	movl	%ebx, (%rdx)
	addq	$4, %rdx
	.loc 11 12 0 discriminator 2
	cmpq	%rcx, %rdx
	jne	.L774
	.loc 11 17 0
	popq	%rbx
	.cfi_remember_state
	.cfi_def_cfa_offset 24
.LVL1119:
	popq	%rbp
	.cfi_def_cfa_offset 16
.LVL1120:
	popq	%r12
	.cfi_def_cfa_offset 8
	ret
.LVL1121:
.L781:
	.cfi_restore_state
	.loc 11 11 0 discriminator 1
	call	_Z2gcv
.LVL1122:
	movq	%r12, %rax
	addq	heap_ptr(%rip), %rax
	cmpq	%rax, heap_end(%rip)
	jnb	.L773
	.loc 11 11 0 is_stmt 0 discriminator 3
	call	_Z24caml_raise_out_of_memoryv
.LVL1123:
.L775:
	.cfi_def_cfa_offset 8
	.cfi_restore 3
	.cfi_restore 6
	.cfi_restore 12
	.loc 11 9 0 is_stmt 1
	movl	$2145386500, %eax
.LVL1124:
	.loc 11 17 0
	ret
	.cfi_endproc
.LFE167:
	.size	_Z14caml_make_vectii, .-_Z14caml_make_vectii
	.globl	_Z14caml_array_subiii
	.type	_Z14caml_array_subiii, @function
_Z14caml_array_subiii:
.LFB177:
	.loc 11 68 0
	.cfi_startproc
.LVL1125:
	pushq	%r13
	.cfi_def_cfa_offset 16
	.cfi_offset 13, -16
	pushq	%r12
	.cfi_def_cfa_offset 24
	.cfi_offset 12, -24
	pushq	%rbp
	.cfi_def_cfa_offset 32
	.cfi_offset 6, -32
	pushq	%rbx
	.cfi_def_cfa_offset 40
	.cfi_offset 3, -40
	subq	$8, %rsp
	.cfi_def_cfa_offset 48
	movl	%edi, %ebp
	.loc 11 69 0
	movl	%esi, %ebx
	sarl	%ebx
.LVL1126:
	.loc 11 70 0
	sarl	%edx
.LVL1127:
	movl	%edx, %r12d
.LVL1128:
	.loc 11 73 0
	movl	%edx, %eax
	leaq	4(,%rax,4), %r13
	movq	%r13, %rax
	addq	heap_ptr(%rip), %rax
	cmpq	%rax, heap_end(%rip)
	jb	.L790
.LVL1129:
.L783:
	.loc 11 73 0 is_stmt 0 discriminator 2
	leal	0(,%r12,4), %edx
	movq	heap_ptr(%rip), %rax
	movl	%edx, (%rax)
	movq	heap_ptr(%rip), %rdx
	leaq	-4+ocaml_ram_heap(%rip), %rax
	movq	%rdx, %rdi
	subq	%rax, %rdi
	movq	%rdi, %rax
	orl	$2143289344, %eax
.LVL1130:
	addq	%r13, %rdx
	movq	%rdx, heap_ptr(%rip)
.LVL1131:
	.loc 11 74 0 is_stmt 1 discriminator 2
	testl	%r12d, %r12d
	je	.L782
	.loc 11 75 0
	movl	%ebp, %edi
	shrl	$16, %edi
	movzbl	%dil, %edi
	andl	$32, %edi
	movl	%ebp, %r9d
	sall	$12, %r9d
	sarl	$12, %r9d
	movslq	%r9d, %r9
	movl	%eax, %ecx
	sall	$12, %ecx
	sarl	$12, %ecx
	movslq	%ecx, %rcx
	leal	-1(%r12), %r8d
	addq	$1, %r8
	movl	$0, %edx
	andl	$1048575, %ebp
.LVL1132:
	leaq	_ZL16ocaml_flash_heap(%rip), %r11
	leaq	ocaml_ram_heap(%rip), %r10
	addq	%r10, %rcx
	jmp	.L787
.LVL1133:
.L790:
	.loc 11 73 0 discriminator 1
	call	_Z2gcv
.LVL1134:
	movq	%r13, %rax
	addq	heap_ptr(%rip), %rax
	cmpq	%rax, heap_end(%rip)
	jnb	.L783
	.loc 11 73 0 is_stmt 0 discriminator 3
	call	_Z24caml_raise_out_of_memoryv
.LVL1135:
.L785:
	.loc 11 75 0 is_stmt 1 discriminator 2
	leal	(%rbx,%rdx), %esi
	leaq	(%r11,%rsi,4), %rsi
	movl	(%rsi,%rbp), %esi
.L786:
	.loc 11 75 0 is_stmt 0 discriminator 4
	movl	%esi, (%rcx,%rdx,4)
.LVL1136:
	addq	$1, %rdx
.LVL1137:
	.loc 11 74 0 is_stmt 1 discriminator 4
	cmpq	%r8, %rdx
	je	.L782
.L787:
.LVL1138:
	.loc 11 75 0
	testl	%edi, %edi
	jne	.L785
	.loc 11 75 0 is_stmt 0 discriminator 1
	leal	(%rbx,%rdx), %esi
	leaq	(%r10,%rsi,4), %rsi
	movl	(%rsi,%r9), %esi
	jmp	.L786
.LVL1139:
.L782:
	.loc 11 78 0 is_stmt 1
	addq	$8, %rsp
	.cfi_def_cfa_offset 40
	popq	%rbx
	.cfi_def_cfa_offset 32
.LVL1140:
	popq	%rbp
	.cfi_def_cfa_offset 24
	popq	%r12
	.cfi_def_cfa_offset 16
.LVL1141:
	popq	%r13
	.cfi_def_cfa_offset 8
	ret
	.cfi_endproc
.LFE177:
	.size	_Z14caml_array_subiii, .-_Z14caml_array_subiii
	.globl	_Z17caml_array_appendii
	.type	_Z17caml_array_appendii, @function
_Z17caml_array_appendii:
.LFB178:
	.loc 11 80 0
	.cfi_startproc
.LVL1142:
	pushq	%r15
	.cfi_def_cfa_offset 16
	.cfi_offset 15, -16
	pushq	%r14
	.cfi_def_cfa_offset 24
	.cfi_offset 14, -24
	pushq	%r13
	.cfi_def_cfa_offset 32
	.cfi_offset 13, -32
	pushq	%r12
	.cfi_def_cfa_offset 40
	.cfi_offset 12, -40
	pushq	%rbp
	.cfi_def_cfa_offset 48
	.cfi_offset 6, -48
	pushq	%rbx
	.cfi_def_cfa_offset 56
	.cfi_offset 3, -56
	subq	$24, %rsp
	.cfi_def_cfa_offset 80
	movl	%edi, %r14d
	movl	%esi, %r13d
	.loc 11 81 0
	movl	%edi, %r12d
	shrl	$16, %r12d
	movzbl	%r12b, %r12d
	andl	$32, %r12d
	jne	.L792
	.loc 11 81 0 is_stmt 0 discriminator 1
	movl	%edi, %eax
	sall	$12, %eax
	sarl	$12, %eax
	cltq
	leaq	-4+ocaml_ram_heap(%rip), %rdx
	movl	(%rdx,%rax), %ebx
	sarl	$2, %ebx
	andl	$4194303, %ebx
.L793:
.LVL1143:
	.loc 11 82 0 is_stmt 1 discriminator 4
	movl	%r13d, %ebp
	shrl	$16, %ebp
	movzbl	%bpl, %ebp
	andl	$32, %ebp
	jne	.L794
	.loc 11 82 0 is_stmt 0 discriminator 1
	movl	%r13d, %eax
	sall	$12, %eax
	sarl	$12, %eax
	cltq
	leaq	-4+ocaml_ram_heap(%rip), %rdx
	movl	(%rdx,%rax), %r15d
	sarl	$2, %r15d
	andl	$4194303, %r15d
.L795:
.LVL1144:
	.loc 11 85 0 is_stmt 1 discriminator 4
	leal	(%rbx,%r15), %eax
	movl	%eax, 12(%rsp)
	movl	%eax, %eax
	leaq	4(,%rax,4), %rax
	movq	%rax, (%rsp)
	addq	heap_ptr(%rip), %rax
	cmpq	%rax, heap_end(%rip)
	jb	.L810
.LVL1145:
.L796:
	.loc 11 85 0 is_stmt 0 discriminator 2
	movl	12(%rsp), %eax
	sall	$2, %eax
	movq	heap_ptr(%rip), %rdx
	movl	%eax, (%rdx)
	movq	heap_ptr(%rip), %rdx
	leaq	-4+ocaml_ram_heap(%rip), %rax
	movq	%rdx, %rdi
	subq	%rax, %rdi
	movq	%rdi, %rax
	orl	$2143289344, %eax
.LVL1146:
	addq	(%rsp), %rdx
	movq	%rdx, heap_ptr(%rip)
.LVL1147:
	.loc 11 86 0 is_stmt 1 discriminator 2
	testl	%ebx, %ebx
	je	.L802
	.loc 11 87 0
	movl	%r14d, %edi
	sall	$12, %edi
	sarl	$12, %edi
	movslq	%edi, %rdi
	movl	%eax, %esi
	sall	$12, %esi
	sarl	$12, %esi
	movslq	%esi, %rsi
	leal	-1(%rbx), %edx
	leaq	4(,%rdx,4), %r8
	movl	$0, %edx
	andl	$1048575, %r14d
.LVL1148:
	leaq	_ZL16ocaml_flash_heap(%rip), %rcx
	addq	%rcx, %r14
	leaq	ocaml_ram_heap(%rip), %rcx
	addq	%rcx, %rdi
	addq	%rcx, %rsi
	jmp	.L803
.LVL1149:
.L792:
	.loc 11 81 0 discriminator 2
	movl	%edi, %eax
	andl	$1048575, %eax
	leaq	-4+_ZL16ocaml_flash_heap(%rip), %rdx
	movl	(%rdx,%rax), %ebx
	sarl	$2, %ebx
	andl	$4194303, %ebx
	jmp	.L793
.LVL1150:
.L794:
	.loc 11 82 0 discriminator 2
	movl	%r13d, %eax
	andl	$1048575, %eax
	leaq	-4+_ZL16ocaml_flash_heap(%rip), %rdx
	movl	(%rdx,%rax), %r15d
	sarl	$2, %r15d
	andl	$4194303, %r15d
	jmp	.L795
.LVL1151:
.L810:
	.loc 11 85 0 discriminator 1
	call	_Z2gcv
.LVL1152:
	movq	(%rsp), %rax
	addq	heap_ptr(%rip), %rax
	cmpq	%rax, heap_end(%rip)
	jnb	.L796
	.loc 11 85 0 is_stmt 0 discriminator 3
	call	_Z24caml_raise_out_of_memoryv
.LVL1153:
.L802:
	.loc 11 89 0 is_stmt 1
	testl	%r15d, %r15d
	je	.L791
	.loc 11 90 0
	movl	%r13d, %r8d
	sall	$12, %r8d
	sarl	$12, %r8d
	movslq	%r8d, %r8
	movl	%eax, %edx
	sall	$12, %edx
	sarl	$12, %edx
	movslq	%edx, %r9
	leal	-1(%r15), %r10d
	addq	$1, %r10
	movl	$0, %edx
	andl	$1048575, %r13d
.LVL1154:
	leaq	_ZL16ocaml_flash_heap(%rip), %rcx
	addq	%rcx, %r13
	leaq	ocaml_ram_heap(%rip), %rdi
	addq	%rdi, %r8
	jmp	.L806
.LVL1155:
.L800:
	.loc 11 87 0 discriminator 2
	movl	(%r14,%rdx), %ecx
.L801:
	.loc 11 87 0 is_stmt 0 discriminator 4
	movl	%ecx, (%rsi,%rdx)
	addq	$4, %rdx
	.loc 11 86 0 is_stmt 1 discriminator 4
	cmpq	%r8, %rdx
	je	.L802
.L803:
	.loc 11 87 0
	testl	%r12d, %r12d
	jne	.L800
	.loc 11 87 0 is_stmt 0 discriminator 1
	movl	(%rdi,%rdx), %ecx
	jmp	.L801
.LVL1156:
.L804:
	.loc 11 90 0 is_stmt 1 discriminator 2
	movl	0(%r13,%rdx,4), %esi
.L805:
	.loc 11 90 0 is_stmt 0 discriminator 4
	leal	(%rbx,%rdx), %ecx
	leaq	(%rdi,%rcx,4), %rcx
	movl	%esi, (%rcx,%r9)
.LVL1157:
	addq	$1, %rdx
.LVL1158:
	.loc 11 89 0 is_stmt 1 discriminator 4
	cmpq	%r10, %rdx
	je	.L791
.L806:
.LVL1159:
	.loc 11 90 0
	testl	%ebp, %ebp
	jne	.L804
	.loc 11 90 0 is_stmt 0 discriminator 1
	movl	(%r8,%rdx,4), %esi
	jmp	.L805
.LVL1160:
.L791:
	.loc 11 93 0 is_stmt 1
	addq	$24, %rsp
	.cfi_def_cfa_offset 56
	popq	%rbx
	.cfi_def_cfa_offset 48
.LVL1161:
	popq	%rbp
	.cfi_def_cfa_offset 40
	popq	%r12
	.cfi_def_cfa_offset 32
	popq	%r13
	.cfi_def_cfa_offset 24
	popq	%r14
	.cfi_def_cfa_offset 16
	popq	%r15
	.cfi_def_cfa_offset 8
.LVL1162:
	ret
	.cfi_endproc
.LFE178:
	.size	_Z17caml_array_appendii, .-_Z17caml_array_appendii
	.type	_ZL32caml_raise_exception_with_stringiPKc, @function
_ZL32caml_raise_exception_with_stringiPKc:
.LFB194:
	.loc 13 33 0
	.cfi_startproc
.LVL1163:
	pushq	%r15
	.cfi_def_cfa_offset 16
	.cfi_offset 15, -16
	pushq	%r14
	.cfi_def_cfa_offset 24
	.cfi_offset 14, -24
	pushq	%r13
	.cfi_def_cfa_offset 32
	.cfi_offset 13, -32
	pushq	%r12
	.cfi_def_cfa_offset 40
	.cfi_offset 12, -40
	pushq	%rbp
	.cfi_def_cfa_offset 48
	.cfi_offset 6, -48
	pushq	%rbx
	.cfi_def_cfa_offset 56
	.cfi_offset 3, -56
	subq	$40, %rsp
	.cfi_def_cfa_offset 96
	movl	%edi, 12(%rsp)
	movq	%rsi, 16(%rsp)
	.loc 13 34 0
	movq	$-1, %rcx
	movl	$0, %eax
	movq	%rsi, %rdi
.LVL1164:
	repnz scasb
.LVL1165:
	movq	%rcx, %rbx
	notq	%rbx
	leaq	-1(%rbx), %rbx
.LVL1166:
	.loc 13 36 0
	movl	%ebx, %ebp
	shrl	$2, %ebp
	leal	1(%rbp), %eax
	movl	%eax, 8(%rsp)
.LVL1167:
	.loc 13 37 0
	leal	0(,%rax,4), %r14d
.LVL1168:
	.loc 13 38 0
	leal	4(%rbp), %r13d
	movl	%r13d, %eax
.LVL1169:
	leaq	4(,%rax,4), %r12
	movq	%r12, %rax
	addq	heap_ptr(%rip), %rax
	cmpq	%rax, heap_end(%rip)
	jnb	.L812
	.loc 13 38 0 is_stmt 0 discriminator 1
	call	_Z2gcv
.LVL1170:
	movq	%r12, %rax
	addq	heap_ptr(%rip), %rax
	cmpq	%rax, heap_end(%rip)
	jb	.L814
.L812:
	.loc 13 38 0 discriminator 2
	sall	$2, %r13d
	orl	$-67108864, %r13d
	movq	heap_ptr(%rip), %rax
	movl	%r13d, (%rax)
	movq	heap_ptr(%rip), %rax
	leaq	4(%rax), %rdx
	leaq	ocaml_ram_heap(%rip), %r13
	subq	%r13, %rdx
	movl	%edx, %esi
	orl	$2143289344, %esi
.LVL1171:
	addq	%rax, %r12
	movq	%r12, heap_ptr(%rip)
	.loc 13 42 0 is_stmt 1 discriminator 2
	movl	%esi, 28(%rsp)
	movl	%esi, %eax
	sall	$12, %eax
	sarl	$12, %eax
	movl	%eax, 24(%rsp)
	movslq	%eax, %r12
	movl	%r14d, %edx
	orl	$-67108864, %edx
	leaq	-4(%r13), %rax
	movl	%edx, (%rax,%r12)
	.loc 13 43 0 discriminator 2
	movl	%ebp, %eax
	leaq	0(%r13,%rax,4), %rax
	movl	$0, (%rax,%r12)
.LVL1172:
	.loc 13 44 0 discriminator 2
	leaq	(%r12,%r13), %r15
.LVL1173:
.LBB1001:
.LBB1002:
	.loc 24 34 0 discriminator 2
	movl	%ebx, %edx
	movq	16(%rsp), %rsi
.LVL1174:
	movq	%r15, %rdi
	call	memcpy@PLT
.LVL1175:
.LBE1002:
.LBE1001:
	.loc 13 45 0 discriminator 2
	leal	-1(%r14), %eax
	notl	%ebx
.LVL1176:
	addl	%ebx, %r14d
.LVL1177:
	movb	%r14b, (%r15,%rax)
	.loc 13 46 0 discriminator 2
	movl	8(%rsp), %eax
	leaq	0(%r13,%rax,4), %rax
	movl	$8, (%rax,%r12)
	.loc 13 47 0 discriminator 2
	leal	2(%rbp), %eax
	movl	%eax, %edx
	leaq	0(%r13,%rdx,4), %rdx
	movl	12(%rsp), %ebx
.LVL1178:
	movl	%ebx, (%rdx,%r12)
	.loc 13 48 0 discriminator 2
	addl	$3, %ebp
	movl	%ebp, %ebp
	leaq	0(%r13,%rbp,4), %rdx
	movl	28(%rsp), %esi
	movl	%esi, (%rdx,%r12)
	.loc 13 49 0 discriminator 2
	movl	24(%rsp), %ecx
	leal	(%rcx,%rax,4), %edi
	orl	$2143289344, %edi
	call	_Z10caml_raisei
.LVL1179:
.L814:
	.loc 13 38 0 discriminator 3
	call	_Z24caml_raise_out_of_memoryv
.LVL1180:
	.cfi_endproc
.LFE194:
	.size	_ZL32caml_raise_exception_with_stringiPKc, .-_ZL32caml_raise_exception_with_stringiPKc
	.globl	_Z27caml_raise_invalid_argumentPKc
	.type	_Z27caml_raise_invalid_argumentPKc, @function
_Z27caml_raise_invalid_argumentPKc:
.LFB195:
	.loc 13 53 0
	.cfi_startproc
.LVL1181:
	subq	$8, %rsp
	.cfi_def_cfa_offset 16
	movq	%rdi, %rsi
	.loc 13 54 0
	movl	$2145386560, %edi
.LVL1182:
	call	_ZL32caml_raise_exception_with_stringiPKc
.LVL1183:
	.cfi_endproc
.LFE195:
	.size	_Z27caml_raise_invalid_argumentPKc, .-_Z27caml_raise_invalid_argumentPKc
	.section	.rodata.str1.8
	.align 8
.LC81:
	.string	"compare: unknown custom blocks"
	.text
	.type	_ZL15compare_customshii, @function
_ZL15compare_customshii:
.LFB180:
	.loc 12 15 0
	.cfi_startproc
.LVL1184:
	subq	$8, %rsp
	.cfi_def_cfa_offset 16
	movl	%esi, %eax
	.loc 12 16 0
	cmpb	$-124, %dil
	je	.L822
	.loc 12 18 0
	cmpb	$-92, %dil
	jne	.L820
	.loc 12 19 0
	movl	%edx, %esi
.LVL1185:
	movl	%eax, %edi
.LVL1186:
	call	_Z13int64_compareii
.LVL1187:
.L817:
	.loc 12 24 0
	addq	$8, %rsp
	.cfi_remember_state
	.cfi_def_cfa_offset 8
	ret
.LVL1188:
.L822:
	.cfi_restore_state
	.loc 12 17 0
	movl	%edx, %esi
	movl	%eax, %edi
.LVL1189:
	call	_Z13int32_compareii
.LVL1190:
	jmp	.L817
.LVL1191:
.L820:
	.loc 12 21 0
	leaq	.LC81(%rip), %rdi
.LVL1192:
	call	_Z27caml_raise_invalid_argumentPKc
.LVL1193:
	.cfi_endproc
.LFE180:
	.size	_ZL15compare_customshii, .-_ZL15compare_customshii
	.section	.rodata.str1.1
.LC82:
	.string	"compare: abstract value"
.LC83:
	.string	"compare: functional value"
	.text
	.type	_ZL11compare_valiib, @function
_ZL11compare_valiib:
.LFB181:
	.loc 12 30 0
	.cfi_startproc
.LVL1194:
	pushq	%r15
	.cfi_def_cfa_offset 16
	.cfi_offset 15, -16
	pushq	%r14
	.cfi_def_cfa_offset 24
	.cfi_offset 14, -24
	pushq	%r13
	.cfi_def_cfa_offset 32
	.cfi_offset 13, -32
	pushq	%r12
	.cfi_def_cfa_offset 40
	.cfi_offset 12, -40
	pushq	%rbp
	.cfi_def_cfa_offset 48
	.cfi_offset 6, -48
	pushq	%rbx
	.cfi_def_cfa_offset 56
	.cfi_offset 3, -56
	subq	$56, %rsp
	.cfi_def_cfa_offset 112
	movl	%edx, %r13d
	.loc 12 31 0
	cmpl	%esi, %edi
	jne	.L885
	.loc 12 32 0
	movl	$0, %eax
	.loc 12 31 0
	testb	%dl, %dl
	je	.L885
.LVL1195:
.L823:
	.loc 12 95 0
	addq	$56, %rsp
	.cfi_remember_state
	.cfi_def_cfa_offset 56
	popq	%rbx
	.cfi_def_cfa_offset 48
	popq	%rbp
	.cfi_def_cfa_offset 40
	popq	%r12
	.cfi_def_cfa_offset 32
	popq	%r13
	.cfi_def_cfa_offset 24
.LVL1196:
	popq	%r14
	.cfi_def_cfa_offset 16
	popq	%r15
	.cfi_def_cfa_offset 8
	ret
.LVL1197:
.L885:
	.cfi_restore_state
	movl	%edx, %r12d
	movl	%esi, %ebp
	movl	%edi, %ebx
.LBB1003:
	.loc 12 35 0
	testb	$3, %dil
	jne	.L826
.LVL1198:
	.loc 12 35 0 is_stmt 0 discriminator 1
	movl	%edi, %eax
	shrl	$22, %eax
	cmpw	$511, %ax
	je	.L890
.L826:
	.loc 12 83 0 is_stmt 1
	testb	$3, %bpl
	jne	.L865
	.loc 12 83 0 is_stmt 0 discriminator 1
	movl	%ebp, %eax
	shrl	$22, %eax
	cmpw	$511, %ax
	je	.L891
.L865:
	.loc 12 86 0 is_stmt 1
	cmpl	$2141192192, %ebx
	je	.L892
	.loc 12 88 0
	cmpl	$2141192192, %ebp
	je	.L893
	.loc 12 90 0
	cmpl	$-1, %ebx
	jne	.L886
	.loc 12 91 0
	movl	$0, %eax
	.loc 12 90 0
	testl	%ebp, %ebp
	je	.L823
.L886:
	.loc 12 93 0
	cmpl	%ebp, %ebx
	jl	.L884
	.loc 12 93 0 is_stmt 0 discriminator 1
	setg	%al
	jmp	.L823
.L890:
.LBB1004:
	.loc 12 36 0 is_stmt 1
	testb	$3, %sil
	jne	.L827
	.loc 12 36 0 is_stmt 0 discriminator 1
	movl	%esi, %eax
	shrl	$22, %eax
	cmpw	$511, %ax
	je	.L894
.L827:
	.loc 12 80 0 is_stmt 1
	testl	$2097152, %ebx
	jne	.L861
	.loc 12 80 0 is_stmt 0 discriminator 1
	movl	%ebx, %eax
	sall	$12, %eax
	sarl	$12, %eax
	cltq
	leaq	-4+ocaml_ram_heap(%rip), %rdx
.LVL1199:
	cmpb	$-1, 3(%rdx,%rax)
	jne	.L895
	leaq	ocaml_ram_heap(%rip), %rdx
	movzbl	(%rdx,%rax), %edi
.L864:
	.loc 12 80 0 discriminator 9
	movl	%ebp, %edx
	movl	%ebx, %esi
.LVL1200:
	call	_ZL15compare_customshii
.LVL1201:
	jmp	.L823
.LVL1202:
.L894:
.LBB1005:
	.loc 12 37 0 is_stmt 1
	movl	%edi, %r14d
	shrl	$16, %r14d
	movzbl	%r14b, %r14d
	andl	$32, %r14d
	jne	.L828
	.loc 12 37 0 is_stmt 0 discriminator 1
	movl	%edi, %eax
	sall	$12, %eax
	sarl	$12, %eax
	cltq
	leaq	-4+ocaml_ram_heap(%rip), %rdx
.LVL1203:
	movl	(%rdx,%rax), %eax
	shrl	$24, %eax
.L829:
.LVL1204:
	.loc 12 38 0 is_stmt 1 discriminator 4
	movl	%ebp, %r15d
	shrl	$16, %r15d
	movzbl	%r15b, %r15d
	andl	$32, %r15d
	jne	.L830
	.loc 12 38 0 is_stmt 0 discriminator 1
	movl	%ebp, %edx
	sall	$12, %edx
	sarl	$12, %edx
	movslq	%edx, %rdx
	leaq	-4+ocaml_ram_heap(%rip), %rcx
	movl	(%rcx,%rdx), %edx
	shrl	$24, %edx
.L831:
.LVL1205:
	.loc 12 39 0 is_stmt 1 discriminator 4
	cmpb	%dl, %al
	jb	.L874
	.loc 12 40 0
	ja	.L875
.LBB1006:
	.loc 12 42 0
	addl	$9, %eax
.LVL1206:
	cmpb	$8, %al
	ja	.L832
	movzbl	%al, %eax
	leaq	.L834(%rip), %rdx
.LVL1207:
	movslq	(%rdx,%rax,4), %rax
	addq	%rdx, %rax
	jmp	*%rax
	.section	.rodata
	.align 4
	.align 4
.L834:
	.long	.L833-.L834
	.long	.L835-.L834
	.long	.L833-.L834
	.long	.L832-.L834
	.long	.L836-.L834
	.long	.L837-.L834
	.long	.L832-.L834
	.long	.L832-.L834
	.long	.L838-.L834
	.text
.LVL1208:
.L828:
.LBE1006:
	.loc 12 37 0 discriminator 2
	movl	%edi, %eax
	andl	$1048575, %eax
	leaq	-4+_ZL16ocaml_flash_heap(%rip), %rdx
.LVL1209:
	movl	(%rdx,%rax), %eax
	shrl	$24, %eax
	jmp	.L829
.LVL1210:
.L830:
	.loc 12 38 0 discriminator 2
	movl	%ebp, %edx
	andl	$1048575, %edx
	leaq	-4+_ZL16ocaml_flash_heap(%rip), %rcx
	movl	(%rcx,%rdx), %edx
	shrl	$24, %edx
	jmp	.L831
.LVL1211:
.L837:
.LBB1013:
.LBB1007:
	.loc 12 44 0
	movl	%ebp, %esi
.LVL1212:
	movl	%ebx, %edi
	call	_Z14string_compareii
.LVL1213:
	jmp	.L823
.LVL1214:
.L836:
	.loc 12 47 0
	leaq	.LC82(%rip), %rdi
	call	_Z27caml_raise_invalid_argumentPKc
.LVL1215:
.L833:
	.loc 12 51 0
	leaq	.LC83(%rip), %rdi
	call	_Z27caml_raise_invalid_argumentPKc
.LVL1216:
.L835:
	.loc 12 54 0
	testl	%r14d, %r14d
	jne	.L839
	.loc 12 54 0 is_stmt 0 discriminator 1
	movl	%ebx, %eax
	sall	$12, %eax
	sarl	$12, %eax
	cltq
	leaq	4+ocaml_ram_heap(%rip), %rdx
	movl	(%rdx,%rax), %eax
	sarl	%eax
.LVL1217:
.L840:
	.loc 12 54 0 discriminator 4
	testl	%r15d, %r15d
	jne	.L841
	.loc 12 54 0 discriminator 5
	movl	%ebp, %edx
	sall	$12, %edx
	sarl	$12, %edx
	movslq	%edx, %rdx
	leaq	4+ocaml_ram_heap(%rip), %rcx
	movl	(%rcx,%rdx), %edx
	sarl	%edx
.L842:
	.loc 12 54 0 discriminator 8
	subl	%edx, %eax
	jmp	.L823
.LVL1218:
.L839:
	.loc 12 54 0 discriminator 2
	andl	$1048575, %ebx
.LVL1219:
	leaq	4+_ZL16ocaml_flash_heap(%rip), %rax
	movl	(%rax,%rbx), %eax
	sarl	%eax
	jmp	.L840
.L841:
	.loc 12 54 0 discriminator 6
	andl	$1048575, %ebp
	leaq	4+_ZL16ocaml_flash_heap(%rip), %rdx
	movl	(%rdx,%rbp), %edx
	sarl	%edx
	jmp	.L842
.LVL1220:
.L838:
.LBB1008:
	.loc 12 57 0 is_stmt 1
	testl	%r14d, %r14d
	jne	.L843
	.loc 12 57 0 is_stmt 0 discriminator 1
	movl	%ebx, %eax
	sall	$12, %eax
	sarl	$12, %eax
	cltq
	leaq	ocaml_ram_heap(%rip), %rdx
	movzbl	(%rdx,%rax), %edx
.L844:
.LVL1221:
	.loc 12 58 0 is_stmt 1 discriminator 4
	testl	%r15d, %r15d
	jne	.L845
	.loc 12 58 0 is_stmt 0 discriminator 1
	movl	%ebp, %eax
	sall	$12, %eax
	sarl	$12, %eax
	cltq
	leaq	ocaml_ram_heap(%rip), %rcx
	movzbl	(%rcx,%rax), %ecx
.L846:
.LVL1222:
	.loc 12 59 0 is_stmt 1 discriminator 4
	cmpb	%cl, %dl
	jb	.L876
	.loc 12 60 0
	movl	$1, %eax
	ja	.L823
	.loc 12 61 0
	movzbl	%dl, %edi
	movl	%ebp, %edx
.LVL1223:
	movl	%ebx, %esi
.LVL1224:
	call	_ZL15compare_customshii
.LVL1225:
	jmp	.L823
.LVL1226:
.L843:
	.loc 12 57 0 discriminator 2
	movl	%ebx, %eax
	andl	$1048575, %eax
	leaq	_ZL16ocaml_flash_heap(%rip), %rdx
	movzbl	(%rdx,%rax), %edx
	jmp	.L844
.LVL1227:
.L845:
	.loc 12 58 0 discriminator 2
	movl	%ebp, %eax
	andl	$1048575, %eax
	leaq	_ZL16ocaml_flash_heap(%rip), %rcx
	movzbl	(%rcx,%rax), %ecx
	jmp	.L846
.LVL1228:
.L832:
.LBE1008:
.LBB1009:
	.loc 12 65 0
	testl	%r14d, %r14d
	jne	.L847
	.loc 12 65 0 is_stmt 0 discriminator 1
	movl	%ebx, %eax
	sall	$12, %eax
	sarl	$12, %eax
	cltq
	leaq	-4+ocaml_ram_heap(%rip), %rdx
	movl	(%rdx,%rax), %edx
	sarl	$2, %edx
	andl	$4194303, %edx
.L848:
.LVL1229:
	.loc 12 66 0 is_stmt 1 discriminator 4
	testl	%r15d, %r15d
	jne	.L849
	.loc 12 66 0 is_stmt 0 discriminator 1
	movl	%ebp, %eax
	sall	$12, %eax
	sarl	$12, %eax
	cltq
	leaq	-4+ocaml_ram_heap(%rip), %rcx
	movl	(%rcx,%rax), %eax
	sarl	$2, %eax
	andl	$4194303, %eax
	movl	%eax, 4(%rsp)
.L850:
.LVL1230:
	.loc 12 69 0 is_stmt 1 discriminator 4
	movl	4(%rsp), %ecx
	cmpl	%ecx, %edx
	jb	.L878
	.loc 12 70 0
	movl	$1, %eax
	ja	.L823
	.loc 12 71 0
	movl	$0, %eax
	testl	%edx, %edx
	je	.L823
.LVL1231:
	.loc 12 72 0
	movl	%edx, %eax
	subl	$1, %eax
	movl	%eax, 40(%rsp)
	je	.L851
	.loc 12 73 0
	movl	%ebp, %eax
	sall	$12, %eax
	sarl	$12, %eax
	cltq
	movq	%rax, 8(%rsp)
	movl	%ebx, %eax
	sall	$12, %eax
	sarl	$12, %eax
	cltq
	movq	%rax, 16(%rsp)
	leal	-2(%rdx), %eax
	leaq	4(,%rax,4), %rax
	movq	%rax, 24(%rsp)
	movl	$0, %esi
.LVL1232:
	movl	%ebp, %eax
	andl	$1048575, %eax
	leaq	_ZL16ocaml_flash_heap(%rip), %rcx
	addq	%rcx, %rax
	movq	%rax, 32(%rsp)
	movl	%ebp, 44(%rsp)
	movq	%rsi, %rbp
.LVL1233:
	jmp	.L856
.LVL1234:
.L847:
	.loc 12 65 0 discriminator 2
	movl	%ebx, %eax
	andl	$1048575, %eax
	leaq	-4+_ZL16ocaml_flash_heap(%rip), %rdx
	movl	(%rdx,%rax), %edx
	sarl	$2, %edx
	andl	$4194303, %edx
	jmp	.L848
.LVL1235:
.L849:
	.loc 12 66 0 discriminator 2
	movl	%ebp, %eax
	andl	$1048575, %eax
	leaq	-4+_ZL16ocaml_flash_heap(%rip), %rcx
	movl	(%rcx,%rax), %eax
	sarl	$2, %eax
	andl	$4194303, %eax
	movl	%eax, 4(%rsp)
	jmp	.L850
.LVL1236:
.L852:
	.loc 12 73 0 discriminator 2
	movq	32(%rsp), %rax
	movl	(%rax,%rbp), %esi
	jmp	.L853
.L854:
	.loc 12 73 0 is_stmt 0 discriminator 6
	movl	%ebx, %eax
	andl	$1048575, %eax
	leaq	_ZL16ocaml_flash_heap(%rip), %rcx
	addq	%rcx, %rax
	movl	(%rax,%rbp), %edi
.L855:
	.loc 12 73 0 discriminator 8
	call	_ZL11compare_valiib
.LVL1237:
	.loc 12 74 0 is_stmt 1 discriminator 8
	testb	%al, %al
	jne	.L823
	addq	$4, %rbp
	.loc 12 72 0 discriminator 2
	cmpq	24(%rsp), %rbp
	je	.L896
.LVL1238:
.L856:
	.loc 12 73 0
	movzbl	%r13b, %edx
	testl	%r15d, %r15d
	jne	.L852
	.loc 12 73 0 is_stmt 0 discriminator 1
	leaq	ocaml_ram_heap(%rip), %rax
	addq	8(%rsp), %rax
	movl	(%rax,%rbp), %esi
.L853:
	.loc 12 73 0 discriminator 4
	testl	%r14d, %r14d
	jne	.L854
	.loc 12 73 0 discriminator 5
	leaq	ocaml_ram_heap(%rip), %rax
	addq	16(%rsp), %rax
	movl	(%rax,%rbp), %edi
	jmp	.L855
.LVL1239:
.L896:
	movl	44(%rsp), %ebp
.LVL1240:
.L851:
	.loc 12 76 0 is_stmt 1
	movzbl	%r12b, %edx
	testl	%r15d, %r15d
	jne	.L857
	.loc 12 76 0 is_stmt 0 discriminator 1
	movl	%ebp, %eax
	sall	$12, %eax
	sarl	$12, %eax
	cltq
	movl	4(%rsp), %ecx
	leal	-1(%rcx), %esi
	leaq	ocaml_ram_heap(%rip), %rcx
	leaq	(%rcx,%rsi,4), %rcx
	movl	(%rcx,%rax), %esi
.L858:
	.loc 12 76 0 discriminator 4
	testl	%r14d, %r14d
	jne	.L859
	.loc 12 76 0 discriminator 5
	movl	%ebx, %eax
	sall	$12, %eax
	sarl	$12, %eax
	cltq
	movl	40(%rsp), %edi
	leaq	ocaml_ram_heap(%rip), %rcx
	leaq	(%rcx,%rdi,4), %rcx
	movl	(%rcx,%rax), %edi
.LVL1241:
.L860:
	.loc 12 76 0 discriminator 8
	call	_ZL11compare_valiib
.LVL1242:
	jmp	.L823
.LVL1243:
.L857:
	.loc 12 76 0 discriminator 2
	movl	4(%rsp), %eax
	leal	-1(%rax), %ecx
	andl	$1048575, %ebp
	leaq	_ZL16ocaml_flash_heap(%rip), %rax
	leaq	(%rax,%rcx,4), %rax
	movl	(%rax,%rbp), %esi
	jmp	.L858
.L859:
	.loc 12 76 0 discriminator 6
	andl	$1048575, %ebx
.LVL1244:
	movl	40(%rsp), %eax
	leaq	_ZL16ocaml_flash_heap(%rip), %rcx
	leaq	(%rcx,%rax,4), %rax
	movl	(%rax,%rbx), %edi
	jmp	.L860
.LVL1245:
.L895:
.LBE1009:
.LBE1007:
.LBE1013:
.LBE1005:
	.loc 12 81 0 is_stmt 1
	movl	$1, %eax
	jmp	.L823
.LVL1246:
.L861:
	.loc 12 80 0 discriminator 2
	movl	%ebx, %eax
	andl	$1048575, %eax
	leaq	-4+_ZL16ocaml_flash_heap(%rip), %rdx
.LVL1247:
	cmpb	$-1, 3(%rdx,%rax)
	jne	.L897
	leaq	_ZL16ocaml_flash_heap(%rip), %rdx
	movzbl	(%rdx,%rax), %edi
	jmp	.L864
.L897:
	.loc 12 81 0
	movl	$1, %eax
	jmp	.L823
.LVL1248:
.L891:
.LBE1004:
	.loc 12 84 0
	testl	$2097152, %ebp
	jne	.L866
	.loc 12 84 0 is_stmt 0 discriminator 1
	movl	%ebp, %eax
	sall	$12, %eax
	sarl	$12, %eax
	cltq
	leaq	-4+ocaml_ram_heap(%rip), %rdx
.LVL1249:
	cmpb	$-1, 3(%rdx,%rax)
	jne	.L898
	leaq	ocaml_ram_heap(%rip), %rdx
	movzbl	(%rdx,%rax), %edi
.L869:
	.loc 12 84 0 discriminator 9
	movl	%ebp, %edx
	movl	%ebx, %esi
.LVL1250:
	call	_ZL15compare_customshii
.LVL1251:
	jmp	.L823
.LVL1252:
.L898:
	.loc 12 85 0 is_stmt 1
	movl	$-1, %eax
	jmp	.L823
.LVL1253:
.L866:
	.loc 12 84 0 discriminator 2
	movl	%ebp, %eax
	andl	$1048575, %eax
	leaq	-4+_ZL16ocaml_flash_heap(%rip), %rdx
.LVL1254:
	cmpb	$-1, 3(%rdx,%rax)
	jne	.L899
	leaq	_ZL16ocaml_flash_heap(%rip), %rdx
	movzbl	(%rdx,%rax), %edi
	jmp	.L869
.L899:
	.loc 12 85 0
	movl	$-1, %eax
	jmp	.L823
.LVL1255:
.L892:
	.loc 12 87 0
	cmpb	$1, %r12b
	sbbl	%eax, %eax
	andl	$3, %eax
	subl	$1, %eax
	jmp	.L823
.L893:
	.loc 12 89 0
	testb	%r12b, %r12b
	sete	%al
	addl	$1, %eax
	jmp	.L823
.LVL1256:
.L874:
.LBB1016:
.LBB1015:
	.loc 12 39 0
	movl	$-1, %eax
.LVL1257:
	jmp	.L823
.LVL1258:
.L875:
	.loc 12 40 0
	movl	$1, %eax
.LVL1259:
	jmp	.L823
.LVL1260:
.L876:
.LBB1014:
.LBB1012:
.LBB1010:
	.loc 12 59 0
	movl	$-1, %eax
	jmp	.L823
.LVL1261:
.L878:
.LBE1010:
.LBB1011:
	.loc 12 69 0
	movl	$-1, %eax
	jmp	.L823
.LVL1262:
.L884:
.LBE1011:
.LBE1012:
.LBE1014:
.LBE1015:
.LBE1016:
	.loc 12 93 0
	movl	$-1, %eax
	jmp	.L823
.LBE1003:
	.cfi_endproc
.LFE181:
	.size	_ZL11compare_valiib, .-_ZL11compare_valiib
	.globl	_Z10caml_equalii
	.type	_Z10caml_equalii, @function
_Z10caml_equalii:
.LFB182:
	.loc 12 99 0
	.cfi_startproc
.LVL1263:
	subq	$8, %rsp
	.cfi_def_cfa_offset 16
	.loc 12 100 0
	movl	$0, %edx
	call	_ZL11compare_valiib
.LVL1264:
	.loc 12 101 0
	cmpb	$1, %al
	sbbl	%eax, %eax
.LVL1265:
	andl	$2, %eax
	addl	$1, %eax
	.loc 12 102 0
	addq	$8, %rsp
	.cfi_def_cfa_offset 8
	ret
	.cfi_endproc
.LFE182:
	.size	_Z10caml_equalii, .-_Z10caml_equalii
	.globl	_Z13caml_notequalii
	.type	_Z13caml_notequalii, @function
_Z13caml_notequalii:
.LFB183:
	.loc 12 104 0
	.cfi_startproc
.LVL1266:
	subq	$8, %rsp
	.cfi_def_cfa_offset 16
	.loc 12 105 0
	movl	$0, %edx
	call	_ZL11compare_valiib
.LVL1267:
	.loc 12 106 0
	cmpb	$1, %al
	sbbl	%eax, %eax
.LVL1268:
	andl	$-2, %eax
	addl	$3, %eax
	.loc 12 107 0
	addq	$8, %rsp
	.cfi_def_cfa_offset 8
	ret
	.cfi_endproc
.LFE183:
	.size	_Z13caml_notequalii, .-_Z13caml_notequalii
	.globl	_Z13caml_lessthanii
	.type	_Z13caml_lessthanii, @function
_Z13caml_lessthanii:
.LFB184:
	.loc 12 109 0
	.cfi_startproc
.LVL1269:
	subq	$8, %rsp
	.cfi_def_cfa_offset 16
	.loc 12 110 0
	movl	$0, %edx
	call	_ZL11compare_valiib
.LVL1270:
	.loc 12 111 0
	sarb	$6, %al
.LVL1271:
	andl	$2, %eax
	orl	$1, %eax
	movsbl	%al, %eax
	.loc 12 112 0
	addq	$8, %rsp
	.cfi_def_cfa_offset 8
	ret
	.cfi_endproc
.LFE184:
	.size	_Z13caml_lessthanii, .-_Z13caml_lessthanii
	.globl	_Z14caml_lessequalii
	.type	_Z14caml_lessequalii, @function
_Z14caml_lessequalii:
.LFB185:
	.loc 12 114 0
	.cfi_startproc
.LVL1272:
	subq	$8, %rsp
	.cfi_def_cfa_offset 16
	.loc 12 115 0
	movl	$0, %edx
	call	_ZL11compare_valiib
.LVL1273:
	.loc 12 116 0
	testb	%al, %al
	setle	%al
.LVL1274:
	movzbl	%al, %eax
	leal	1(%rax,%rax), %eax
	.loc 12 117 0
	addq	$8, %rsp
	.cfi_def_cfa_offset 8
	ret
	.cfi_endproc
.LFE185:
	.size	_Z14caml_lessequalii, .-_Z14caml_lessequalii
	.globl	_Z16caml_greaterthanii
	.type	_Z16caml_greaterthanii, @function
_Z16caml_greaterthanii:
.LFB186:
	.loc 12 119 0
	.cfi_startproc
.LVL1275:
	subq	$8, %rsp
	.cfi_def_cfa_offset 16
	.loc 12 120 0
	movl	$0, %edx
	call	_ZL11compare_valiib
.LVL1276:
	.loc 12 121 0
	testb	%al, %al
	setg	%dl
	cmpb	$2, %al
	setne	%al
.LVL1277:
	movzbl	%al, %eax
	andl	%edx, %eax
	addl	%eax, %eax
	orl	$1, %eax
	.loc 12 122 0
	addq	$8, %rsp
	.cfi_def_cfa_offset 8
	ret
	.cfi_endproc
.LFE186:
	.size	_Z16caml_greaterthanii, .-_Z16caml_greaterthanii
	.globl	_Z17caml_greaterequalii
	.type	_Z17caml_greaterequalii, @function
_Z17caml_greaterequalii:
.LFB187:
	.loc 12 124 0
	.cfi_startproc
.LVL1278:
	subq	$8, %rsp
	.cfi_def_cfa_offset 16
	.loc 12 125 0
	movl	$0, %edx
	call	_ZL11compare_valiib
.LVL1279:
	.loc 12 126 0
	movl	%eax, %edx
	notl	%edx
	shrb	$7, %dl
	cmpb	$2, %al
	setne	%al
.LVL1280:
	movzbl	%al, %eax
	andl	%edx, %eax
	addl	%eax, %eax
	orl	$1, %eax
	.loc 12 127 0
	addq	$8, %rsp
	.cfi_def_cfa_offset 8
	ret
	.cfi_endproc
.LFE187:
	.size	_Z17caml_greaterequalii, .-_Z17caml_greaterequalii
	.globl	_Z12caml_compareii
	.type	_Z12caml_compareii, @function
_Z12caml_compareii:
.LFB188:
	.loc 12 129 0
	.cfi_startproc
.LVL1281:
	subq	$8, %rsp
	.cfi_def_cfa_offset 16
	.loc 12 130 0
	movl	$1, %edx
	call	_ZL11compare_valiib
.LVL1282:
	.loc 12 131 0
	movsbl	%al, %eax
	leal	1(%rax,%rax), %eax
.LVL1283:
	.loc 12 132 0
	addq	$8, %rsp
	.cfi_def_cfa_offset 8
	ret
	.cfi_endproc
.LFE188:
	.size	_Z12caml_compareii, .-_Z12caml_compareii
	.section	.rodata.str1.1
.LC84:
	.string	"index out of bounds"
	.text
	.globl	_Z30caml_raise_index_out_of_boundsv
	.type	_Z30caml_raise_index_out_of_boundsv, @function
_Z30caml_raise_index_out_of_boundsv:
.LFB197:
	.loc 13 63 0
	.cfi_startproc
	subq	$8, %rsp
	.cfi_def_cfa_offset 16
	.loc 13 64 0
	leaq	.LC84(%rip), %rdi
	call	_Z27caml_raise_invalid_argumentPKc
.LVL1284:
	.cfi_endproc
.LFE197:
	.size	_Z30caml_raise_index_out_of_boundsv, .-_Z30caml_raise_index_out_of_boundsv
	.globl	_Z19caml_array_get_addrii
	.type	_Z19caml_array_get_addrii, @function
_Z19caml_array_get_addrii:
.LFB169:
	.loc 11 23 0
	.cfi_startproc
.LVL1285:
	subq	$8, %rsp
	.cfi_def_cfa_offset 16
	.loc 11 24 0
	sarl	%esi
.LVL1286:
	.loc 11 25 0
	testb	$3, %dil
	jne	.L923
	.loc 11 25 0 discriminator 1
	movl	%edi, %eax
	shrl	$22, %eax
	cmpw	$511, %ax
	jne	.L923
	.loc 11 26 0
	testl	$2097152, %edi
	jne	.L925
	.loc 11 26 0 is_stmt 0 discriminator 1
	sall	$12, %edi
.LVL1287:
	sarl	$12, %edi
	movslq	%edi, %rdi
	leaq	-4+ocaml_ram_heap(%rip), %rax
	movl	(%rax,%rdi), %eax
	sarl	$2, %eax
	andl	$4194303, %eax
	cmpl	%eax, %esi
	jnb	.L926
	.loc 11 27 0 is_stmt 1 discriminator 1
	movl	%esi, %esi
	leaq	ocaml_ram_heap(%rip), %rax
	leaq	(%rax,%rsi,4), %rax
	movl	(%rax,%rdi), %eax
	jmp	.L922
.LVL1288:
.L923:
	.loc 11 25 0 discriminator 3
	leaq	_ZZ19caml_array_get_addriiE19__PRETTY_FUNCTION__(%rip), %rcx
	movl	$25, %edx
	leaq	.LC47(%rip), %rsi
.LVL1289:
	leaq	.LC48(%rip), %rdi
.LVL1290:
	call	__assert_fail@PLT
.LVL1291:
.L925:
	.loc 11 26 0 discriminator 2
	andl	$1048575, %edi
.LVL1292:
	leaq	-4+_ZL16ocaml_flash_heap(%rip), %rax
	movl	(%rax,%rdi), %eax
	sarl	$2, %eax
	andl	$4194303, %eax
	cmpl	%eax, %esi
	jnb	.L926
	.loc 11 27 0 discriminator 2
	movl	%esi, %esi
	leaq	_ZL16ocaml_flash_heap(%rip), %rax
	leaq	(%rax,%rsi,4), %rax
	movl	(%rax,%rdi), %eax
.LVL1293:
.L922:
	.loc 11 28 0
	addq	$8, %rsp
	.cfi_remember_state
	.cfi_def_cfa_offset 8
	ret
.LVL1294:
.L926:
	.cfi_restore_state
	.loc 11 26 0 discriminator 5
	call	_Z30caml_raise_index_out_of_boundsv
.LVL1295:
	.cfi_endproc
.LFE169:
	.size	_Z19caml_array_get_addrii, .-_Z19caml_array_get_addrii
	.globl	_Z14caml_array_getii
	.type	_Z14caml_array_getii, @function
_Z14caml_array_getii:
.LFB173:
	.loc 11 51 0
	.cfi_startproc
.LVL1296:
	subq	$8, %rsp
	.cfi_def_cfa_offset 16
	.loc 11 52 0
	call	_Z19caml_array_get_addrii
.LVL1297:
	.loc 11 53 0
	addq	$8, %rsp
	.cfi_def_cfa_offset 8
	ret
	.cfi_endproc
.LFE173:
	.size	_Z14caml_array_getii, .-_Z14caml_array_getii
	.globl	_Z19caml_floatarray_getii
	.type	_Z19caml_floatarray_getii, @function
_Z19caml_floatarray_getii:
.LFB176:
	.loc 11 63 0
	.cfi_startproc
.LVL1298:
	subq	$8, %rsp
	.cfi_def_cfa_offset 16
	.loc 11 64 0
	call	_Z19caml_array_get_addrii
.LVL1299:
	.loc 11 65 0
	addq	$8, %rsp
	.cfi_def_cfa_offset 8
	ret
	.cfi_endproc
.LFE176:
	.size	_Z19caml_floatarray_getii, .-_Z19caml_floatarray_getii
	.globl	_Z19caml_array_set_addriii
	.type	_Z19caml_array_set_addriii, @function
_Z19caml_array_set_addriii:
.LFB170:
	.loc 11 30 0
	.cfi_startproc
.LVL1300:
	subq	$8, %rsp
	.cfi_def_cfa_offset 16
	.loc 11 31 0
	sarl	%esi
.LVL1301:
	.loc 11 32 0
	testb	$3, %dil
	jne	.L937
	.loc 11 32 0 discriminator 1
	movl	%edi, %eax
	shrl	$22, %eax
	cmpw	$511, %ax
	jne	.L937
	.loc 11 33 0
	testl	$2097152, %edi
	jne	.L942
	.loc 11 34 0 discriminator 1
	sall	$12, %edi
.LVL1302:
	sarl	$12, %edi
	movslq	%edi, %rdi
	leaq	-4+ocaml_ram_heap(%rip), %rax
	movl	(%rax,%rdi), %eax
	sarl	$2, %eax
	andl	$4194303, %eax
	cmpl	%eax, %esi
	jnb	.L943
	.loc 11 35 0
	movl	%esi, %esi
	leaq	ocaml_ram_heap(%rip), %rax
	leaq	(%rax,%rsi,4), %rax
	movl	%edx, (%rax,%rdi)
	.loc 11 37 0
	movl	$1, %eax
	addq	$8, %rsp
	.cfi_remember_state
	.cfi_def_cfa_offset 8
	ret
.LVL1303:
.L937:
	.cfi_restore_state
	.loc 11 32 0 discriminator 3
	leaq	_ZZ19caml_array_set_addriiiE19__PRETTY_FUNCTION__(%rip), %rcx
	movl	$32, %edx
.LVL1304:
	leaq	.LC47(%rip), %rsi
.LVL1305:
	leaq	.LC48(%rip), %rdi
.LVL1306:
	call	__assert_fail@PLT
.LVL1307:
.L942:
	.loc 11 33 0 discriminator 1
	leaq	_ZZ19caml_array_set_addriiiE19__PRETTY_FUNCTION__(%rip), %rcx
	movl	$33, %edx
.LVL1308:
	leaq	.LC47(%rip), %rsi
.LVL1309:
	leaq	.LC49(%rip), %rdi
.LVL1310:
	call	__assert_fail@PLT
.LVL1311:
.L943:
	.loc 11 34 0 discriminator 5
	call	_Z30caml_raise_index_out_of_boundsv
.LVL1312:
	.cfi_endproc
.LFE170:
	.size	_Z19caml_array_set_addriii, .-_Z19caml_array_set_addriii
	.globl	_Z14caml_array_setiii
	.type	_Z14caml_array_setiii, @function
_Z14caml_array_setiii:
.LFB174:
	.loc 11 55 0
	.cfi_startproc
.LVL1313:
	subq	$8, %rsp
	.cfi_def_cfa_offset 16
	.loc 11 56 0
	call	_Z19caml_array_set_addriii
.LVL1314:
	.loc 11 57 0
	addq	$8, %rsp
	.cfi_def_cfa_offset 8
	ret
	.cfi_endproc
.LFE174:
	.size	_Z14caml_array_setiii, .-_Z14caml_array_setiii
	.globl	_Z19caml_floatarray_setiii
	.type	_Z19caml_floatarray_setiii, @function
_Z19caml_floatarray_setiii:
.LFB175:
	.loc 11 59 0
	.cfi_startproc
.LVL1315:
	subq	$8, %rsp
	.cfi_def_cfa_offset 16
	.loc 11 60 0
	call	_Z19caml_array_set_addriii
.LVL1316:
	.loc 11 61 0
	addq	$8, %rsp
	.cfi_def_cfa_offset 8
	ret
	.cfi_endproc
.LFE175:
	.size	_Z19caml_floatarray_setiii, .-_Z19caml_floatarray_setiii
	.globl	_Z15caml_string_getii
	.type	_Z15caml_string_getii, @function
_Z15caml_string_getii:
.LFB474:
	.loc 18 118 0
	.cfi_startproc
.LVL1317:
	pushq	%rbp
	.cfi_def_cfa_offset 16
	.cfi_offset 6, -16
	pushq	%rbx
	.cfi_def_cfa_offset 24
	.cfi_offset 3, -24
	subq	$8, %rsp
	.cfi_def_cfa_offset 32
	movl	%edi, %ebx
	.loc 18 119 0
	sarl	%esi
.LVL1318:
	movl	%esi, %ebp
.LVL1319:
	.loc 18 120 0
	call	_Z13string_lengthi
.LVL1320:
	.loc 18 121 0
	cmpl	%eax, %ebp
	jnb	.L953
	.loc 18 122 0
	testl	$2097152, %ebx
	je	.L954
	.loc 18 122 0 is_stmt 0 discriminator 2
	andl	$1048575, %ebx
.LVL1321:
	movl	%ebp, %ebp
	leaq	_ZL16ocaml_flash_heap(%rip), %rax
.LVL1322:
	addq	%rax, %rbx
	movzbl	(%rbx,%rbp), %eax
	leal	1(%rax,%rax), %eax
.LVL1323:
.L948:
	.loc 18 123 0 is_stmt 1
	addq	$8, %rsp
	.cfi_remember_state
	.cfi_def_cfa_offset 24
	popq	%rbx
	.cfi_def_cfa_offset 16
	popq	%rbp
	.cfi_def_cfa_offset 8
	ret
.LVL1324:
.L953:
	.cfi_restore_state
	.loc 18 121 0 discriminator 1
	call	_Z30caml_raise_index_out_of_boundsv
.LVL1325:
.L954:
	.loc 18 122 0 discriminator 1
	sall	$12, %ebx
.LVL1326:
	sarl	$12, %ebx
	movslq	%ebx, %rbx
	movl	%ebp, %ebp
	leaq	ocaml_ram_heap(%rip), %rax
.LVL1327:
	addq	%rax, %rbx
	movzbl	(%rbx,%rbp), %eax
	leal	1(%rax,%rax), %eax
	jmp	.L948
	.cfi_endproc
.LFE474:
	.size	_Z15caml_string_getii, .-_Z15caml_string_getii
	.globl	_Z14caml_bytes_getii
	.type	_Z14caml_bytes_getii, @function
_Z14caml_bytes_getii:
.LFB475:
	.loc 18 125 0
	.cfi_startproc
.LVL1328:
	subq	$8, %rsp
	.cfi_def_cfa_offset 16
	.loc 18 126 0
	call	_Z15caml_string_getii
.LVL1329:
	.loc 18 127 0
	addq	$8, %rsp
	.cfi_def_cfa_offset 8
	ret
	.cfi_endproc
.LFE475:
	.size	_Z14caml_bytes_getii, .-_Z14caml_bytes_getii
	.section	.rodata.str1.1
.LC85:
	.string	"Is_block(b)"
.LC86:
	.string	"Is_in_ram(b)"
	.text
	.globl	_Z14caml_bytes_setiii
	.type	_Z14caml_bytes_setiii, @function
_Z14caml_bytes_setiii:
.LFB476:
	.loc 18 129 0
	.cfi_startproc
.LVL1330:
	pushq	%r12
	.cfi_def_cfa_offset 16
	.cfi_offset 12, -16
	pushq	%rbp
	.cfi_def_cfa_offset 24
	.cfi_offset 6, -24
	pushq	%rbx
	.cfi_def_cfa_offset 32
	.cfi_offset 3, -32
	.loc 18 130 0
	testb	$3, %dil
	jne	.L958
	movl	%edi, %ebx
	movl	%edx, %r12d
	.loc 18 130 0 discriminator 1
	movl	%edi, %eax
	shrl	$22, %eax
	cmpw	$511, %ax
	jne	.L958
	.loc 18 131 0
	testl	$2097152, %edi
	jne	.L963
	.loc 18 132 0
	sarl	%esi
.LVL1331:
	movl	%esi, %ebp
.LVL1332:
	.loc 18 133 0
	call	_Z13string_lengthi
.LVL1333:
	.loc 18 134 0
	cmpl	%eax, %ebp
	jnb	.L964
	.loc 18 135 0
	sall	$12, %ebx
.LVL1334:
	sarl	$12, %ebx
	movslq	%ebx, %rbx
	movl	%ebp, %ebp
	leaq	ocaml_ram_heap(%rip), %rax
.LVL1335:
	addq	%rax, %rbx
	sarl	%r12d
.LVL1336:
	movb	%r12b, (%rbx,%rbp)
	.loc 18 137 0
	movl	$1, %eax
	popq	%rbx
	.cfi_remember_state
	.cfi_def_cfa_offset 24
	popq	%rbp
	.cfi_def_cfa_offset 16
.LVL1337:
	popq	%r12
	.cfi_def_cfa_offset 8
	ret
.LVL1338:
.L958:
	.cfi_restore_state
	.loc 18 130 0 discriminator 3
	leaq	_ZZ14caml_bytes_setiiiE19__PRETTY_FUNCTION__(%rip), %rcx
	movl	$130, %edx
.LVL1339:
	leaq	.LC78(%rip), %rsi
.LVL1340:
	leaq	.LC85(%rip), %rdi
.LVL1341:
	call	__assert_fail@PLT
.LVL1342:
.L963:
	.loc 18 131 0 discriminator 1
	leaq	_ZZ14caml_bytes_setiiiE19__PRETTY_FUNCTION__(%rip), %rcx
	movl	$131, %edx
.LVL1343:
	leaq	.LC78(%rip), %rsi
.LVL1344:
	leaq	.LC86(%rip), %rdi
	call	__assert_fail@PLT
.LVL1345:
.L964:
	.loc 18 134 0 discriminator 1
	call	_Z30caml_raise_index_out_of_boundsv
.LVL1346:
	.cfi_endproc
.LFE476:
	.size	_Z14caml_bytes_setiii, .-_Z14caml_bytes_setiii
	.globl	_Z18caml_raise_failurePKc
	.type	_Z18caml_raise_failurePKc, @function
_Z18caml_raise_failurePKc:
.LFB196:
	.loc 13 57 0
	.cfi_startproc
.LVL1347:
	subq	$8, %rsp
	.cfi_def_cfa_offset 16
	movq	%rdi, %rsi
	.loc 13 58 0
	movl	$2145386536, %edi
.LVL1348:
	call	_ZL32caml_raise_exception_with_stringiPKc
.LVL1349:
	.cfi_endproc
.LFE196:
	.size	_Z18caml_raise_failurePKc, .-_Z18caml_raise_failurePKc
	.section	.rodata.str1.8
	.align 8
.LC87:
	.string	"Int32.of_string not yet implemented"
	.text
	.globl	_Z20caml_int32_of_stringi
	.type	_Z20caml_int32_of_stringi, @function
_Z20caml_int32_of_stringi:
.LFB541:
	.loc 22 131 0
	.cfi_startproc
.LVL1350:
	subq	$8, %rsp
	.cfi_def_cfa_offset 16
	.loc 22 132 0
	leaq	.LC87(%rip), %rdi
.LVL1351:
	call	_Z18caml_raise_failurePKc
.LVL1352:
	.cfi_endproc
.LFE541:
	.size	_Z20caml_int32_of_stringi, .-_Z20caml_int32_of_stringi
	.section	.rodata.str1.8
	.align 8
.LC88:
	.string	"Int64.of_string not yet implemented"
	.text
	.globl	_Z20caml_int64_of_stringi
	.type	_Z20caml_int64_of_stringi, @function
_Z20caml_int64_of_stringi:
.LFB562:
	.loc 23 134 0
	.cfi_startproc
.LVL1353:
	subq	$8, %rsp
	.cfi_def_cfa_offset 16
	.loc 23 135 0
	leaq	.LC88(%rip), %rdi
.LVL1354:
	call	_Z18caml_raise_failurePKc
.LVL1355:
	.cfi_endproc
.LFE562:
	.size	_Z20caml_int64_of_stringi, .-_Z20caml_int64_of_stringi
	.globl	_Z12caml_obj_dupi
	.type	_Z12caml_obj_dupi, @function
_Z12caml_obj_dupi:
.LFB452:
	.loc 16 7 0
	.cfi_startproc
.LVL1356:
	pushq	%r14
	.cfi_def_cfa_offset 16
	.cfi_offset 14, -16
	pushq	%r13
	.cfi_def_cfa_offset 24
	.cfi_offset 13, -24
	pushq	%r12
	.cfi_def_cfa_offset 32
	.cfi_offset 12, -32
	pushq	%rbp
	.cfi_def_cfa_offset 40
	.cfi_offset 6, -40
	pushq	%rbx
	.cfi_def_cfa_offset 48
	.cfi_offset 3, -48
	.loc 16 8 0
	movl	%edi, %ebx
	shrl	$16, %ebx
	movzbl	%bl, %ebx
	andl	$32, %ebx
	jne	.L972
	.loc 16 8 0 is_stmt 0 discriminator 1
	movl	%edi, %eax
	sall	$12, %eax
	sarl	$12, %eax
	cltq
	leaq	-4+ocaml_ram_heap(%rip), %rdx
	movl	(%rdx,%rax), %eax
	movl	%eax, %ebp
	sarl	$2, %ebp
.LVL1357:
.LBB1017:
	.loc 16 9 0 is_stmt 1 discriminator 1
	andl	$4194303, %ebp
.LVL1358:
	je	.L987
.LBB1018:
	.loc 16 13 0 discriminator 1
	shrl	$24, %eax
	movl	%eax, %r14d
.L976:
	movl	%edi, %r12d
.LVL1359:
	.loc 16 15 0 discriminator 4
	movl	%ebp, %eax
	leaq	4(,%rax,4), %r13
	movq	%r13, %rax
	addq	heap_ptr(%rip), %rax
	cmpq	%rax, heap_end(%rip)
	jb	.L988
.LVL1360:
.L977:
	.loc 16 15 0 is_stmt 0 discriminator 2
	movl	%r14d, %eax
	sall	$24, %eax
	leal	0(,%rbp,4), %edx
	orl	%edx, %eax
	movq	heap_ptr(%rip), %rdx
	movl	%eax, (%rdx)
	movq	heap_ptr(%rip), %rdx
	leaq	-4+ocaml_ram_heap(%rip), %rax
	movq	%rdx, %rdi
	subq	%rax, %rdi
	movq	%rdi, %rax
	orl	$2143289344, %eax
.LVL1361:
	addq	%rdx, %r13
	movq	%r13, heap_ptr(%rip)
.LVL1362:
	.loc 16 17 0 is_stmt 1 discriminator 2
	movl	%r12d, %r8d
	sall	$12, %r8d
	sarl	$12, %r8d
	movslq	%r8d, %r8
	movl	%eax, %ecx
	sall	$12, %ecx
	sarl	$12, %ecx
	movslq	%ecx, %rcx
	movl	$0, %edx
	andl	$1048575, %r12d
.LVL1363:
	leaq	_ZL16ocaml_flash_heap(%rip), %rsi
	addq	%rsi, %r12
	leaq	ocaml_ram_heap(%rip), %rsi
	addq	%rsi, %r8
	addq	%rsi, %rcx
	jmp	.L980
.LVL1364:
.L972:
.LBE1018:
.LBE1017:
	.loc 16 8 0 discriminator 2
	movl	%edi, %eax
	andl	$1048575, %eax
	leaq	-4+_ZL16ocaml_flash_heap(%rip), %rdx
	movl	(%rdx,%rax), %eax
	movl	%eax, %ebp
	sarl	$2, %ebp
.LVL1365:
.LBB1020:
	.loc 16 9 0 discriminator 2
	andl	$4194303, %ebp
.LVL1366:
	je	.L989
.LBB1019:
	.loc 16 13 0 discriminator 2
	shrl	$24, %eax
	movl	%eax, %r14d
	jmp	.L976
.LVL1367:
.L988:
	.loc 16 15 0 discriminator 1
	call	_Z2gcv
.LVL1368:
	movq	%r13, %rax
	addq	heap_ptr(%rip), %rax
	cmpq	%rax, heap_end(%rip)
	jnb	.L977
	.loc 16 15 0 is_stmt 0 discriminator 3
	call	_Z24caml_raise_out_of_memoryv
.LVL1369:
.L978:
	.loc 16 17 0 is_stmt 1 discriminator 2
	movl	(%r12,%rdx,4), %esi
.L979:
	.loc 16 17 0 is_stmt 0 discriminator 4
	movl	%esi, (%rcx,%rdx,4)
.LVL1370:
	addq	$1, %rdx
.LVL1371:
	.loc 16 16 0 is_stmt 1 discriminator 4
	cmpl	%edx, %ebp
	jbe	.L971
.L980:
.LVL1372:
	.loc 16 17 0
	testl	%ebx, %ebx
	jne	.L978
	.loc 16 17 0 is_stmt 0 discriminator 1
	movl	(%r8,%rdx,4), %esi
	jmp	.L979
.LVL1373:
.L987:
.LBE1019:
	.loc 16 10 0 is_stmt 1
	movl	%edi, %eax
.LVL1374:
.L971:
.LBE1020:
	.loc 16 21 0
	popq	%rbx
	.cfi_remember_state
	.cfi_def_cfa_offset 40
	popq	%rbp
	.cfi_def_cfa_offset 32
.LVL1375:
	popq	%r12
	.cfi_def_cfa_offset 24
	popq	%r13
	.cfi_def_cfa_offset 16
	popq	%r14
	.cfi_def_cfa_offset 8
	ret
.LVL1376:
.L989:
	.cfi_restore_state
.LBB1021:
	.loc 16 10 0
	movl	%edi, %eax
	jmp	.L971
.LBE1021:
	.cfi_endproc
.LFE452:
	.size	_Z12caml_obj_dupi, .-_Z12caml_obj_dupi
	.section	.rodata.str1.1
.LC89:
	.string	"tg == 0"
	.text
	.globl	_Z14caml_obj_blockii
	.type	_Z14caml_obj_blockii, @function
_Z14caml_obj_blockii:
.LFB453:
	.loc 16 23 0
	.cfi_startproc
.LVL1377:
	pushq	%r12
	.cfi_def_cfa_offset 16
	.cfi_offset 12, -16
	pushq	%rbp
	.cfi_def_cfa_offset 24
	.cfi_offset 6, -24
	pushq	%rbx
	.cfi_def_cfa_offset 32
	.cfi_offset 3, -32
.LVL1378:
	.loc 16 29 0
	sarl	%edi
.LVL1379:
	movl	%edi, %ebp
.LVL1380:
	.loc 16 30 0
	movl	%esi, %ebx
	sarl	%ebx
.LVL1381:
	jne	.L991
	.loc 16 31 0
	testb	%dil, %dil
	jne	.L998
	.loc 16 32 0
	movl	$2145386500, %eax
.LVL1382:
.L990:
	.loc 16 40 0
	popq	%rbx
	.cfi_remember_state
	.cfi_def_cfa_offset 24
.LVL1383:
	popq	%rbp
	.cfi_def_cfa_offset 16
	popq	%r12
	.cfi_def_cfa_offset 8
	ret
.LVL1384:
.L998:
	.cfi_restore_state
	.loc 16 31 0 discriminator 1
	leaq	_ZZ14caml_obj_blockiiE19__PRETTY_FUNCTION__(%rip), %rcx
	movl	$31, %edx
	leaq	.LC75(%rip), %rsi
.LVL1385:
	leaq	.LC89(%rip), %rdi
.LVL1386:
	call	__assert_fail@PLT
.LVL1387:
.L991:
	.loc 16 34 0
	movl	%ebx, %eax
	leaq	4(,%rax,4), %r12
	movq	%r12, %rax
	addq	heap_ptr(%rip), %rax
	cmpq	%rax, heap_end(%rip)
	jb	.L999
.LVL1388:
.L993:
	.loc 16 34 0 is_stmt 0 discriminator 2
	leal	0(,%rbx,4), %edi
	sall	$24, %ebp
.LVL1389:
	orl	%edi, %ebp
	movq	heap_ptr(%rip), %rax
	movl	%ebp, (%rax)
	movq	heap_ptr(%rip), %rcx
	leaq	4(%rcx), %rax
	leaq	ocaml_ram_heap(%rip), %rdx
	subq	%rdx, %rax
	orl	$2143289344, %eax
.LVL1390:
	addq	%rcx, %r12
	movq	%r12, heap_ptr(%rip)
.LVL1391:
	.loc 16 36 0 is_stmt 1 discriminator 2
	movl	%eax, %ecx
	sall	$12, %ecx
	sarl	$12, %ecx
	movslq	%ecx, %rcx
	addq	%rcx, %rdx
	leaq	4+ocaml_ram_heap(%rip), %rsi
	addq	%rsi, %rcx
	leal	-1(%rbx), %esi
	leaq	(%rcx,%rsi,4), %rcx
.LVL1392:
.L994:
	movl	$1, (%rdx)
	addq	$4, %rdx
	.loc 16 35 0 discriminator 2
	cmpq	%rcx, %rdx
	jne	.L994
	jmp	.L990
.LVL1393:
.L999:
	.loc 16 34 0 discriminator 1
	call	_Z2gcv
.LVL1394:
	movq	%r12, %rax
	addq	heap_ptr(%rip), %rax
	cmpq	%rax, heap_end(%rip)
	jnb	.L993
	.loc 16 34 0 is_stmt 0 discriminator 3
	call	_Z24caml_raise_out_of_memoryv
.LVL1395:
	.cfi_endproc
.LFE453:
	.size	_Z14caml_obj_blockii, .-_Z14caml_obj_blockii
	.globl	_Z16caml_alloc_dummyi
	.type	_Z16caml_alloc_dummyi, @function
_Z16caml_alloc_dummyi:
.LFB454:
	.loc 16 42 0 is_stmt 1
	.cfi_startproc
.LVL1396:
.LBB1022:
	.loc 16 44 0
	sarl	%edi
.LVL1397:
	je	.L1004
.LBE1022:
	.loc 16 42 0
	pushq	%rbp
	.cfi_def_cfa_offset 16
	.cfi_offset 6, -16
	pushq	%rbx
	.cfi_def_cfa_offset 24
	.cfi_offset 3, -24
	subq	$8, %rsp
	.cfi_def_cfa_offset 32
	movl	%edi, %ebx
.LBB1025:
.LBB1023:
	.loc 16 49 0
	movl	%edi, %eax
	leaq	4(,%rax,4), %rbp
	movq	%rbp, %rax
	addq	heap_ptr(%rip), %rax
	cmpq	%rax, heap_end(%rip)
	jb	.L1010
.LVL1398:
.L1002:
	.loc 16 49 0 is_stmt 0 discriminator 2
	leal	0(,%rbx,4), %edx
	movq	heap_ptr(%rip), %rax
	movl	%edx, (%rax)
	movq	heap_ptr(%rip), %rcx
	leaq	4(%rcx), %rax
	leaq	ocaml_ram_heap(%rip), %rdx
	subq	%rdx, %rax
	orl	$2143289344, %eax
.LVL1399:
	addq	%rcx, %rbp
	movq	%rbp, heap_ptr(%rip)
.LVL1400:
	.loc 16 53 0 is_stmt 1 discriminator 2
	movl	%eax, %ecx
	sall	$12, %ecx
	sarl	$12, %ecx
	movslq	%ecx, %rcx
	addq	%rcx, %rdx
	leaq	4+ocaml_ram_heap(%rip), %rsi
	addq	%rsi, %rcx
	leal	-1(%rbx), %esi
	leaq	(%rcx,%rsi,4), %rcx
.LVL1401:
.L1003:
	movl	$0, (%rdx)
	addq	$4, %rdx
	.loc 16 50 0 discriminator 2
	cmpq	%rcx, %rdx
	jne	.L1003
.LBE1023:
.LBE1025:
	.loc 16 57 0
	addq	$8, %rsp
	.cfi_remember_state
	.cfi_def_cfa_offset 24
	popq	%rbx
	.cfi_def_cfa_offset 16
.LVL1402:
	popq	%rbp
	.cfi_def_cfa_offset 8
	ret
.LVL1403:
.L1010:
	.cfi_restore_state
.LBB1026:
.LBB1024:
	.loc 16 49 0 discriminator 1
	call	_Z2gcv
.LVL1404:
	movq	%rbp, %rax
	addq	heap_ptr(%rip), %rax
	cmpq	%rax, heap_end(%rip)
	jnb	.L1002
	.loc 16 49 0 is_stmt 0 discriminator 3
	call	_Z24caml_raise_out_of_memoryv
.LVL1405:
.L1004:
	.cfi_def_cfa_offset 8
	.cfi_restore 3
	.cfi_restore 6
.LBE1024:
	.loc 16 45 0 is_stmt 1
	movl	$2145386500, %eax
.LBE1026:
	.loc 16 57 0
	ret
	.cfi_endproc
.LFE454:
	.size	_Z16caml_alloc_dummyi, .-_Z16caml_alloc_dummyi
	.globl	_Z25caml_alloc_dummy_functionii
	.type	_Z25caml_alloc_dummy_functionii, @function
_Z25caml_alloc_dummy_functionii:
.LFB455:
	.loc 16 59 0
	.cfi_startproc
.LVL1406:
	subq	$8, %rsp
	.cfi_def_cfa_offset 16
	.loc 16 60 0
	call	_Z16caml_alloc_dummyi
.LVL1407:
	.loc 16 61 0
	addq	$8, %rsp
	.cfi_def_cfa_offset 8
	ret
	.cfi_endproc
.LFE455:
	.size	_Z25caml_alloc_dummy_functionii, .-_Z25caml_alloc_dummy_functionii
	.globl	_Z12create_bytesj
	.type	_Z12create_bytesj, @function
_Z12create_bytesj:
.LFB460:
	.loc 18 13 0
	.cfi_startproc
.LVL1408:
	pushq	%r13
	.cfi_def_cfa_offset 16
	.cfi_offset 13, -16
	pushq	%r12
	.cfi_def_cfa_offset 24
	.cfi_offset 12, -24
	pushq	%rbp
	.cfi_def_cfa_offset 32
	.cfi_offset 6, -32
	pushq	%rbx
	.cfi_def_cfa_offset 40
	.cfi_offset 3, -40
	subq	$8, %rsp
	.cfi_def_cfa_offset 48
	movl	%edi, %ebx
	.loc 18 15 0
	movl	%edi, %r12d
	shrl	$2, %r12d
	leal	1(%r12), %eax
.LVL1409:
	.loc 18 16 0
	leal	0(,%rax,4), %ebp
.LVL1410:
	.loc 18 17 0
	movl	%eax, %eax
	leaq	4(,%rax,4), %r13
	movq	%r13, %rax
.LVL1411:
	addq	heap_ptr(%rip), %rax
	cmpq	%rax, heap_end(%rip)
	jb	.L1016
.LVL1412:
.L1014:
	.loc 18 17 0 is_stmt 0 discriminator 2
	movl	%ebp, %edx
	orl	$-67108864, %edx
	movq	heap_ptr(%rip), %rax
	movl	%edx, (%rax)
	movq	heap_ptr(%rip), %rdx
	leaq	4(%rdx), %rax
	leaq	ocaml_ram_heap(%rip), %rcx
	subq	%rcx, %rax
	orl	$2143289344, %eax
.LVL1413:
	addq	%rdx, %r13
	movq	%r13, heap_ptr(%rip)
	.loc 18 18 0 is_stmt 1 discriminator 2
	movl	%eax, %edx
	sall	$12, %edx
	sarl	$12, %edx
	movslq	%edx, %rdx
	movl	%r12d, %r12d
	leaq	(%rcx,%r12,4), %rsi
	movl	$0, (%rsi,%rdx)
	.loc 18 19 0 discriminator 2
	leal	-1(%rbp), %esi
	addq	%rcx, %rdx
	notl	%ebx
.LVL1414:
	addl	%ebp, %ebx
.LVL1415:
	movb	%bl, (%rdx,%rsi)
	.loc 18 21 0 discriminator 2
	addq	$8, %rsp
	.cfi_remember_state
	.cfi_def_cfa_offset 40
	popq	%rbx
	.cfi_def_cfa_offset 32
	popq	%rbp
	.cfi_def_cfa_offset 24
.LVL1416:
	popq	%r12
	.cfi_def_cfa_offset 16
.LVL1417:
	popq	%r13
	.cfi_def_cfa_offset 8
	ret
.LVL1418:
.L1016:
	.cfi_restore_state
	.loc 18 17 0 discriminator 1
	call	_Z2gcv
.LVL1419:
	movq	%r13, %rax
	addq	heap_ptr(%rip), %rax
	cmpq	%rax, heap_end(%rip)
	jnb	.L1014
	.loc 18 17 0 is_stmt 0 discriminator 3
	call	_Z24caml_raise_out_of_memoryv
.LVL1420:
	.cfi_endproc
.LFE460:
	.size	_Z12create_bytesj, .-_Z12create_bytesj
	.globl	_Z10copy_bytesPKc
	.type	_Z10copy_bytesPKc, @function
_Z10copy_bytesPKc:
.LFB461:
	.loc 18 23 0 is_stmt 1
	.cfi_startproc
.LVL1421:
	pushq	%r12
	.cfi_def_cfa_offset 16
	.cfi_offset 12, -16
	pushq	%rbp
	.cfi_def_cfa_offset 24
	.cfi_offset 6, -24
	pushq	%rbx
	.cfi_def_cfa_offset 32
	.cfi_offset 3, -32
	movq	%rdi, %r12
	.loc 18 24 0
	movq	$-1, %rcx
	movl	$0, %eax
	repnz scasb
.LVL1422:
	movq	%rcx, %rsi
	notq	%rsi
	leaq	-1(%rsi), %rbx
.LVL1423:
	.loc 18 25 0
	movl	%ebx, %edi
	call	_Z12create_bytesj
.LVL1424:
	movl	%eax, %ebp
.LVL1425:
	.loc 18 26 0
	movl	%eax, %edi
	sall	$12, %edi
	sarl	$12, %edi
	movslq	%edi, %rdi
	leaq	ocaml_ram_heap(%rip), %rax
.LVL1426:
	addq	%rax, %rdi
.LVL1427:
.LBB1027:
.LBB1028:
	.loc 24 34 0
	movl	%ebx, %edx
	movq	%r12, %rsi
	call	memcpy@PLT
.LVL1428:
.LBE1028:
.LBE1027:
	.loc 18 28 0
	movl	%ebp, %eax
	popq	%rbx
	.cfi_def_cfa_offset 24
.LVL1429:
	popq	%rbp
	.cfi_def_cfa_offset 16
.LVL1430:
	popq	%r12
	.cfi_def_cfa_offset 8
	ret
	.cfi_endproc
.LFE461:
	.size	_Z10copy_bytesPKc, .-_Z10copy_bytesPKc
	.globl	_Z18caml_string_of_inti
	.type	_Z18caml_string_of_inti, @function
_Z18caml_string_of_inti:
.LFB477:
	.loc 18 139 0
	.cfi_startproc
.LVL1431:
	pushq	%rbx
	.cfi_def_cfa_offset 16
	.cfi_offset 3, -16
	subq	$32, %rsp
	.cfi_def_cfa_offset 48
	.loc 18 139 0
	movq	%fs:40, %rax
	movq	%rax, 24(%rsp)
	xorl	%eax, %eax
.LVL1432:
.LBB1029:
.LBB1030:
	.loc 5 65 0
	leaq	11(%rsp), %rbx
.LVL1433:
	sarl	%edi
.LVL1434:
	movl	%edi, %r9d
	leaq	.LC12(%rip), %r8
	movl	$13, %ecx
	movl	$1, %edx
	movl	$13, %esi
	movq	%rbx, %rdi
	call	__snprintf_chk@PLT
.LVL1435:
.LBE1030:
.LBE1029:
	.loc 18 148 0
	movq	%rbx, %rdi
	call	_Z10copy_bytesPKc
.LVL1436:
	.loc 18 149 0
	movq	24(%rsp), %rdx
	xorq	%fs:40, %rdx
	jne	.L1022
	addq	$32, %rsp
	.cfi_remember_state
	.cfi_def_cfa_offset 16
	popq	%rbx
	.cfi_def_cfa_offset 8
	ret
.L1022:
	.cfi_restore_state
	call	__stack_chk_fail@PLT
.LVL1437:
	.cfi_endproc
.LFE477:
	.size	_Z18caml_string_of_inti, .-_Z18caml_string_of_inti
	.section	.rodata.str1.1
.LC90:
	.string	"%.3lg"
	.text
	.globl	_Z20caml_string_of_floati
	.type	_Z20caml_string_of_floati, @function
_Z20caml_string_of_floati:
.LFB478:
	.loc 18 151 0
	.cfi_startproc
.LVL1438:
	pushq	%rbx
	.cfi_def_cfa_offset 16
	.cfi_offset 3, -16
	subq	$32, %rsp
	.cfi_def_cfa_offset 48
	.loc 18 151 0
	movq	%fs:40, %rax
	movq	%rax, 24(%rsp)
	xorl	%eax, %eax
	.loc 18 153 0
	call	_Z14float_of_valuei
.LVL1439:
	cvtss2sd	%xmm0, %xmm0
.LBB1031:
.LBB1032:
	.loc 5 65 0
	leaq	11(%rsp), %rbx
.LVL1440:
	leaq	.LC90(%rip), %r8
	movl	$13, %ecx
	movl	$1, %edx
	movl	$13, %esi
	movq	%rbx, %rdi
	movl	$1, %eax
	call	__snprintf_chk@PLT
.LVL1441:
.LBE1032:
.LBE1031:
	.loc 18 154 0
	movq	%rbx, %rdi
	call	_Z10copy_bytesPKc
.LVL1442:
	.loc 18 155 0
	movq	24(%rsp), %rdx
	xorq	%fs:40, %rdx
	jne	.L1026
	addq	$32, %rsp
	.cfi_remember_state
	.cfi_def_cfa_offset 16
	popq	%rbx
	.cfi_def_cfa_offset 8
	ret
.L1026:
	.cfi_restore_state
	call	__stack_chk_fail@PLT
.LVL1443:
	.cfi_endproc
.LFE478:
	.size	_Z20caml_string_of_floati, .-_Z20caml_string_of_floati
	.globl	_Z20caml_string_of_int32i
	.type	_Z20caml_string_of_int32i, @function
_Z20caml_string_of_int32i:
.LFB540:
	.loc 22 125 0
	.cfi_startproc
.LVL1444:
	pushq	%rbx
	.cfi_def_cfa_offset 16
	.cfi_offset 3, -16
	subq	$32, %rsp
	.cfi_def_cfa_offset 48
	.loc 22 125 0
	movq	%fs:40, %rax
	movq	%rax, 24(%rsp)
	xorl	%eax, %eax
	.loc 22 127 0
	testb	$1, %dil
	jne	.L1033
	.loc 22 127 0 discriminator 2
	testl	$2097152, %edi
	je	.L1034
	.loc 22 127 0 is_stmt 0 discriminator 5
	andl	$1048575, %edi
.LVL1445:
	leaq	4+_ZL16ocaml_flash_heap(%rip), %rax
	movl	(%rax,%rdi), %r9d
	jmp	.L1029
.LVL1446:
.L1033:
	.loc 22 127 0 is_stmt 1 discriminator 1
	sarl	%edi
.LVL1447:
	movl	%edi, %r9d
.L1029:
.LVL1448:
.LBB1033:
.LBB1034:
	.loc 5 65 0 discriminator 8
	leaq	11(%rsp), %rbx
.LVL1449:
	leaq	.LC12(%rip), %r8
	movl	$13, %ecx
	movl	$1, %edx
	movl	$13, %esi
	movq	%rbx, %rdi
	movl	$0, %eax
	call	__snprintf_chk@PLT
.LVL1450:
.LBE1034:
.LBE1033:
	.loc 22 128 0 discriminator 8
	movq	%rbx, %rdi
	call	_Z10copy_bytesPKc
.LVL1451:
	.loc 22 129 0 discriminator 8
	movq	24(%rsp), %rdx
	xorq	%fs:40, %rdx
	jne	.L1035
	.loc 22 129 0 is_stmt 0
	addq	$32, %rsp
	.cfi_remember_state
	.cfi_def_cfa_offset 16
	popq	%rbx
	.cfi_def_cfa_offset 8
	ret
.LVL1452:
.L1034:
	.cfi_restore_state
	.loc 22 127 0 is_stmt 1 discriminator 4
	sall	$12, %edi
.LVL1453:
	sarl	$12, %edi
	movslq	%edi, %rdi
	leaq	4+ocaml_ram_heap(%rip), %rax
	movl	(%rax,%rdi), %r9d
	jmp	.L1029
.L1035:
	.loc 22 129 0
	call	__stack_chk_fail@PLT
.LVL1454:
	.cfi_endproc
.LFE540:
	.size	_Z20caml_string_of_int32i, .-_Z20caml_string_of_int32i
	.globl	_Z20caml_string_of_int64i
	.type	_Z20caml_string_of_int64i, @function
_Z20caml_string_of_int64i:
.LFB561:
	.loc 23 128 0
	.cfi_startproc
.LVL1455:
	pushq	%rbx
	.cfi_def_cfa_offset 16
	.cfi_offset 3, -16
	subq	$48, %rsp
	.cfi_def_cfa_offset 64
	movl	%edi, %edx
	.loc 23 128 0
	movq	%fs:40, %rax
	movq	%rax, 40(%rsp)
	xorl	%eax, %eax
	.loc 23 130 0
	movq	%rsp, %rbx
	movl	$26, %esi
	movq	%rbx, %rdi
.LVL1456:
	call	_Z12format_int64Pcii
.LVL1457:
	.loc 23 131 0
	movq	%rbx, %rdi
	call	_Z10copy_bytesPKc
.LVL1458:
	.loc 23 132 0
	movq	40(%rsp), %rcx
	xorq	%fs:40, %rcx
	jne	.L1039
	addq	$48, %rsp
	.cfi_remember_state
	.cfi_def_cfa_offset 16
	popq	%rbx
	.cfi_def_cfa_offset 8
	ret
.L1039:
	.cfi_restore_state
	call	__stack_chk_fail@PLT
.LVL1459:
	.cfi_endproc
.LFE561:
	.size	_Z20caml_string_of_int64i, .-_Z20caml_string_of_int64i
	.globl	_Z17caml_create_bytesi
	.type	_Z17caml_create_bytesi, @function
_Z17caml_create_bytesi:
.LFB462:
	.loc 18 30 0
	.cfi_startproc
.LVL1460:
	subq	$8, %rsp
	.cfi_def_cfa_offset 16
	.loc 18 31 0
	sarl	%edi
.LVL1461:
	call	_Z12create_bytesj
.LVL1462:
	.loc 18 32 0
	addq	$8, %rsp
	.cfi_def_cfa_offset 8
	ret
	.cfi_endproc
.LFE462:
	.size	_Z17caml_create_bytesi, .-_Z17caml_create_bytesi
	.section	.rodata.str1.8
	.align 8
.LC91:
	.string	"/home/adilla/Documents/VmMic/Tools/OMicroBPIC32/src/byterun/vm/interp.c"
	.align 8
.LC92:
	.string	"pc >= 0 && pc < OCAML_BYTECODE_BSIZE"
	.section	.rodata.str1.1
.LC93:
	.string	"Is_block(acc)"
	.section	.rodata.str1.8
	.align 8
.LC94:
	.string	"Tag_val(acc) == Closure_tag || Tag_val(acc) == Infix_tag"
	.section	.rodata.str1.1
.LC95:
	.string	"0"
	.text
	.type	_ZL6interpv, @function
_ZL6interpv:
.LFB511:
	.file 25 "/home/adilla/Documents/VmMic/Tools/OMicroBPIC32/src/byterun/vm/interp.c"
	.loc 25 181 0
	.cfi_startproc
	pushq	%r13
	.cfi_def_cfa_offset 16
	.cfi_offset 13, -16
	pushq	%r12
	.cfi_def_cfa_offset 24
	.cfi_offset 12, -24
	pushq	%rbp
	.cfi_def_cfa_offset 32
	.cfi_offset 6, -32
	pushq	%rbx
	.cfi_def_cfa_offset 40
	.cfi_offset 3, -40
	subq	$8, %rsp
	.cfi_def_cfa_offset 48
	.loc 25 185 0
	leaq	caml_exception_jmp_buf(%rip), %rdi
	call	_setjmp@PLT
.LVL1463:
	.loc 25 185 0
	testl	%eax, %eax
	jne	.L1044
.L1045:
	leaq	_ZL14ocaml_bytecode(%rip), %rbp
.LBB1035:
.LBB1036:
	.loc 25 210 0
	leaq	.L1050(%rip), %rbx
	movl	$1, %r12d
	movl	%r12d, %r13d
	jmp	.L1134
.L1145:
	testb	%cl, %cl
	jne	.L1144
.L1047:
.LBE1036:
	.loc 25 208 0 discriminator 1
	leaq	_ZZL6interpvE19__PRETTY_FUNCTION__(%rip), %rcx
	movl	$208, %edx
	leaq	.LC91(%rip), %rsi
	leaq	.LC92(%rip), %rdi
	call	__assert_fail@PLT
.LVL1464:
.L1144:
	movw	%dx, pc(%rip)
	jmp	.L1047
.LVL1465:
.L1077:
	movw	%si, pc(%rip)
.LVL1466:
.L1083:
.LBB1283:
.LBB1037:
.LBB1038:
.LBB1039:
.LBB1040:
	.loc 25 46 0
	movzwl	pc(%rip), %edx
.LVL1467:
.LBB1041:
.LBB1042:
	.loc 10 142 0
	movzwl	%dx, %eax
	movzbl	0(%rbp,%rax), %eax
.LVL1468:
.LBE1042:
.LBE1041:
	.loc 25 47 0
	addl	$1, %edx
	movw	%dx, pc(%rip)
.LBE1040:
.LBE1039:
.LBE1038:
	.loc 25 1700 0
	movsbl	%al, %eax
	leal	1(%rax,%rax), %eax
	movl	%eax, acc(%rip)
.L1134:
	movzwl	pc(%rip), %edx
	movzwl	%dx, %eax
	addq	%rbp, %rax
.LBE1037:
.LBE1283:
.LBE1035:
	.loc 25 181 0
	movl	$0, %ecx
.L1084:
.LBB1292:
	.loc 25 208 0
	cmpw	$264, %dx
	ja	.L1145
.LBB1284:
.LBB1285:
.LBB1286:
	.loc 25 47 0
	leal	1(%rdx), %esi
.LVL1469:
.LBE1286:
.LBE1285:
.LBE1284:
.LBB1289:
	.loc 25 210 0
	cmpb	$32, (%rax)
	ja	.L1048
	movzbl	(%rax), %ecx
	movslq	(%rbx,%rcx,4), %rcx
	addq	%rbx, %rcx
	jmp	*%rcx
	.section	.rodata
	.align 4
	.align 4
.L1050:
	.long	.L1049-.L1050
	.long	.L1051-.L1050
	.long	.L1052-.L1050
	.long	.L1053-.L1050
	.long	.L1054-.L1050
	.long	.L1055-.L1050
	.long	.L1056-.L1050
	.long	.L1057-.L1050
	.long	.L1058-.L1050
	.long	.L1059-.L1050
	.long	.L1060-.L1050
	.long	.L1061-.L1050
	.long	.L1062-.L1050
	.long	.L1063-.L1050
	.long	.L1064-.L1050
	.long	.L1065-.L1050
	.long	.L1066-.L1050
	.long	.L1067-.L1050
	.long	.L1068-.L1050
	.long	.L1069-.L1050
	.long	.L1070-.L1050
	.long	.L1071-.L1050
	.long	.L1072-.L1050
	.long	.L1073-.L1050
	.long	.L1074-.L1050
	.long	.L1075-.L1050
	.long	.L1076-.L1050
	.long	.L1077-.L1050
	.long	.L1078-.L1050
	.long	.L1079-.L1050
	.long	.L1080-.L1050
	.long	.L1081-.L1050
	.long	.L1082-.L1050
	.text
.L1070:
	addq	$1, %rax
.LVL1470:
.LBE1289:
.LBB1290:
.LBB1288:
.LBB1287:
	.loc 25 47 0
	movl	%esi, %edx
	movl	%r13d, %ecx
	jmp	.L1084
.LVL1471:
.L1049:
	movw	%si, pc(%rip)
.LVL1472:
.LBE1287:
.LBE1288:
.LBE1290:
.LBB1291:
.LBB1282:
.LBB1043:
.LBB1044:
	.loc 25 120 0
	movq	sp(%rip), %rax
.LVL1473:
	movl	(%rax), %eax
.LVL1474:
.LBE1044:
.LBE1043:
	.loc 25 214 0
	movl	%eax, acc(%rip)
	.loc 25 215 0
	jmp	.L1134
.LVL1475:
.L1051:
	movw	%si, pc(%rip)
.LBB1045:
.LBB1046:
	.loc 25 120 0
	movq	sp(%rip), %rax
.LVL1476:
.LBE1046:
.LBE1045:
	.loc 25 222 0
	movl	4(%rax), %eax
	movl	%eax, acc(%rip)
	.loc 25 223 0
	jmp	.L1134
.LVL1477:
.L1052:
	movw	%si, pc(%rip)
.LBB1047:
.LBB1048:
	.loc 25 120 0
	movq	sp(%rip), %rax
.LVL1478:
.LBE1048:
.LBE1047:
	.loc 25 230 0
	movl	8(%rax), %eax
	movl	%eax, acc(%rip)
	.loc 25 231 0
	jmp	.L1134
.LVL1479:
.L1053:
	movw	%si, pc(%rip)
	.loc 25 294 0
	movl	acc(%rip), %edx
.LVL1480:
.LBB1049:
.LBB1050:
	.loc 25 124 0
	movq	sp(%rip), %rax
.LVL1481:
	leaq	ocaml_stack(%rip), %rcx
	cmpq	%rcx, %rax
	jbe	.L1146
	.loc 25 127 0
	leaq	-4(%rax), %rcx
	movq	%rcx, sp(%rip)
	movl	%edx, -4(%rax)
.LVL1482:
.LBE1050:
.LBE1049:
.LBB1052:
.LBB1053:
	.loc 25 120 0
	movq	sp(%rip), %rax
.LBE1053:
.LBE1052:
	.loc 25 295 0
	movl	4(%rax), %eax
	movl	%eax, acc(%rip)
	.loc 25 296 0
	jmp	.L1134
.LVL1483:
.L1146:
.LBB1054:
.LBB1051:
	.loc 25 125 0
	call	_Z25caml_raise_stack_overflowv
.LVL1484:
.L1054:
	movw	%si, pc(%rip)
.LBE1051:
.LBE1054:
	.loc 25 303 0
	movl	acc(%rip), %edx
.LVL1485:
.LBB1055:
.LBB1056:
	.loc 25 124 0
	movq	sp(%rip), %rax
.LVL1486:
	leaq	ocaml_stack(%rip), %rcx
	cmpq	%rcx, %rax
	jbe	.L1147
	.loc 25 127 0
	leaq	-4(%rax), %rcx
	movq	%rcx, sp(%rip)
	movl	%edx, -4(%rax)
.LVL1487:
.LBE1056:
.LBE1055:
.LBB1058:
.LBB1059:
	.loc 25 120 0
	movq	sp(%rip), %rax
.LBE1059:
.LBE1058:
	.loc 25 304 0
	movl	8(%rax), %eax
	movl	%eax, acc(%rip)
	.loc 25 305 0
	jmp	.L1134
.LVL1488:
.L1147:
.LBB1060:
.LBB1057:
	.loc 25 125 0
	call	_Z25caml_raise_stack_overflowv
.LVL1489:
.L1055:
	movw	%si, pc(%rip)
.LBE1057:
.LBE1060:
	.loc 25 312 0
	movl	acc(%rip), %edx
.LVL1490:
.LBB1061:
.LBB1062:
	.loc 25 124 0
	movq	sp(%rip), %rax
.LVL1491:
	leaq	ocaml_stack(%rip), %rcx
	cmpq	%rcx, %rax
	jbe	.L1148
	.loc 25 127 0
	leaq	-4(%rax), %rcx
	movq	%rcx, sp(%rip)
	movl	%edx, -4(%rax)
.LVL1492:
.LBE1062:
.LBE1061:
.LBB1064:
.LBB1065:
	.loc 25 120 0
	movq	sp(%rip), %rax
.LBE1065:
.LBE1064:
	.loc 25 313 0
	movl	12(%rax), %eax
	movl	%eax, acc(%rip)
	.loc 25 314 0
	jmp	.L1134
.LVL1493:
.L1148:
.LBB1066:
.LBB1063:
	.loc 25 125 0
	call	_Z25caml_raise_stack_overflowv
.LVL1494:
.L1056:
	movw	%si, pc(%rip)
.LBE1063:
.LBE1066:
	.loc 25 321 0
	movl	acc(%rip), %edx
.LVL1495:
.LBB1067:
.LBB1068:
	.loc 25 124 0
	movq	sp(%rip), %rax
.LVL1496:
	leaq	ocaml_stack(%rip), %rcx
	cmpq	%rcx, %rax
	jbe	.L1149
	.loc 25 127 0
	leaq	-4(%rax), %rcx
	movq	%rcx, sp(%rip)
	movl	%edx, -4(%rax)
.LVL1497:
.LBE1068:
.LBE1067:
.LBB1070:
.LBB1071:
	.loc 25 120 0
	movq	sp(%rip), %rax
.LBE1071:
.LBE1070:
	.loc 25 322 0
	movl	16(%rax), %eax
	movl	%eax, acc(%rip)
	.loc 25 323 0
	jmp	.L1134
.LVL1498:
.L1149:
.LBB1072:
.LBB1069:
	.loc 25 125 0
	call	_Z25caml_raise_stack_overflowv
.LVL1499:
.L1057:
	movw	%si, pc(%rip)
.LBE1069:
.LBE1072:
	.loc 25 330 0
	movl	acc(%rip), %edx
.LVL1500:
.LBB1073:
.LBB1074:
	.loc 25 124 0
	movq	sp(%rip), %rax
.LVL1501:
	leaq	ocaml_stack(%rip), %rcx
	cmpq	%rcx, %rax
	jbe	.L1150
	.loc 25 127 0
	leaq	-4(%rax), %rcx
	movq	%rcx, sp(%rip)
	movl	%edx, -4(%rax)
.LVL1502:
.LBE1074:
.LBE1073:
.LBB1076:
.LBB1077:
	.loc 25 120 0
	movq	sp(%rip), %rax
.LBE1077:
.LBE1076:
	.loc 25 331 0
	movl	20(%rax), %eax
	movl	%eax, acc(%rip)
	.loc 25 332 0
	jmp	.L1134
.LVL1503:
.L1150:
.LBB1078:
.LBB1075:
	.loc 25 125 0
	call	_Z25caml_raise_stack_overflowv
.LVL1504:
.L1058:
.LBE1075:
.LBE1078:
.LBB1079:
.LBB1080:
.LBB1081:
.LBB1082:
.LBB1083:
	.loc 10 142 0
	movzwl	%si, %esi
	movzbl	0(%rbp,%rsi), %eax
.LVL1505:
.LBE1083:
.LBE1082:
	.loc 25 47 0
	addl	$2, %edx
	movw	%dx, pc(%rip)
.LVL1506:
.LBE1081:
.LBE1080:
.LBE1079:
.LBB1084:
.LBB1085:
	.loc 25 136 0
	movzbl	%al, %eax
.LVL1507:
	salq	$2, %rax
	addq	%rax, sp(%rip)
	jmp	.L1134
.LVL1508:
.L1059:
	movw	%si, pc(%rip)
.LBE1085:
.LBE1084:
.LBB1086:
	.loc 25 508 0
	movl	acc(%rip), %eax
.LVL1509:
	.loc 25 508 0
	testb	$3, %al
	jne	.L1091
	.loc 25 508 0 discriminator 1
	movl	%eax, %edx
	shrl	$22, %edx
	cmpw	$511, %dx
	jne	.L1091
	.loc 25 509 0
	testl	$2097152, %eax
	jne	.L1093
	.loc 25 509 0 is_stmt 0 discriminator 1
	sall	$12, %eax
	sarl	$12, %eax
	cltq
	leaq	-4+ocaml_ram_heap(%rip), %rdx
	movl	(%rdx,%rax), %eax
	sarl	$24, %eax
	.loc 25 509 0 is_stmt 1 discriminator 1
	cmpb	$-9, %al
	je	.L1094
	.loc 25 509 0 discriminator 6
	cmpb	$-7, %al
	sete	%al
.L1097:
	.loc 25 509 0 is_stmt 0 discriminator 9
	testb	%al, %al
	je	.L1151
.L1094:
.LBB1087:
.LBB1088:
	.loc 25 132 0 is_stmt 1
	movq	sp(%rip), %rax
	leaq	4(%rax), %rcx
	movq	%rcx, sp(%rip)
	movl	(%rax), %esi
.LVL1510:
.LBE1088:
.LBE1087:
	.loc 25 511 0
	movzbl	extra_args(%rip), %edx
	leal	1(%rdx,%rdx), %edx
.LVL1511:
.LBB1089:
.LBB1090:
	.loc 25 124 0
	leaq	ocaml_stack(%rip), %rdi
	cmpq	%rdi, %rcx
	jbe	.L1152
	.loc 25 127 0
	movq	%rax, sp(%rip)
	movl	%edx, (%rax)
.LVL1512:
.LBE1090:
.LBE1089:
	.loc 25 512 0
	movl	env(%rip), %edx
.LVL1513:
.LBB1092:
.LBB1093:
	.loc 25 124 0
	movq	sp(%rip), %rax
	leaq	ocaml_stack(%rip), %rcx
	cmpq	%rcx, %rax
	jbe	.L1153
	.loc 25 127 0
	leaq	-4(%rax), %rcx
	movq	%rcx, sp(%rip)
	movl	%edx, -4(%rax)
.LVL1514:
.LBE1093:
.LBE1092:
	.loc 25 513 0
	movzwl	pc(%rip), %eax
	addl	%eax, %eax
	orl	$-2147483647, %eax
.LVL1515:
.LBB1095:
.LBB1096:
	.loc 25 124 0
	movq	sp(%rip), %rdx
	leaq	ocaml_stack(%rip), %rcx
	cmpq	%rcx, %rdx
	jbe	.L1154
	.loc 25 127 0
	leaq	-4(%rdx), %rcx
	movq	%rcx, sp(%rip)
	movl	%eax, -4(%rdx)
.LVL1516:
.LBE1096:
.LBE1095:
.LBB1098:
.LBB1099:
	.loc 25 124 0
	movq	sp(%rip), %rax
	leaq	ocaml_stack(%rip), %rdx
	cmpq	%rdx, %rax
	jbe	.L1155
	.loc 25 127 0
	leaq	-4(%rax), %rdx
	movq	%rdx, sp(%rip)
	movl	%esi, -4(%rax)
.LVL1517:
.LBE1099:
.LBE1098:
	.loc 25 515 0
	movl	acc(%rip), %edx
	testl	$2097152, %edx
	jne	.L1102
	.loc 25 515 0 is_stmt 0 discriminator 1
	movl	%edx, %eax
	sall	$12, %eax
	sarl	$12, %eax
	cltq
	leaq	ocaml_ram_heap(%rip), %rcx
	movl	(%rcx,%rax), %eax
	shrl	%eax
.L1103:
	.loc 25 515 0 discriminator 4
	movw	%ax, pc(%rip)
	.loc 25 516 0 is_stmt 1 discriminator 4
	movl	%edx, env(%rip)
	.loc 25 517 0 discriminator 4
	movb	$0, extra_args(%rip)
	.loc 25 518 0 discriminator 4
	jmp	.L1134
.LVL1518:
.L1091:
	.loc 25 508 0 discriminator 3
	leaq	_ZZL6interpvE19__PRETTY_FUNCTION__(%rip), %rcx
	movl	$508, %edx
	leaq	.LC91(%rip), %rsi
	leaq	.LC93(%rip), %rdi
	call	__assert_fail@PLT
.LVL1519:
.L1093:
	.loc 25 509 0 discriminator 2
	andl	$1048575, %eax
	leaq	-4+_ZL16ocaml_flash_heap(%rip), %rdx
	movl	(%rdx,%rax), %eax
	sarl	$24, %eax
	.loc 25 509 0 discriminator 2
	cmpb	$-9, %al
	je	.L1094
	.loc 25 509 0 discriminator 7
	cmpb	$-7, %al
	sete	%al
	jmp	.L1097
.L1151:
	.loc 25 509 0 discriminator 10
	leaq	_ZZL6interpvE19__PRETTY_FUNCTION__(%rip), %rcx
	movl	$509, %edx
	leaq	.LC91(%rip), %rsi
	leaq	.LC94(%rip), %rdi
	call	__assert_fail@PLT
.LVL1520:
.L1152:
.LBB1101:
.LBB1091:
	.loc 25 125 0
	call	_Z25caml_raise_stack_overflowv
.LVL1521:
.L1153:
.LBE1091:
.LBE1101:
.LBB1102:
.LBB1094:
	call	_Z25caml_raise_stack_overflowv
.LVL1522:
.L1154:
.LBE1094:
.LBE1102:
.LBB1103:
.LBB1097:
	call	_Z25caml_raise_stack_overflowv
.LVL1523:
.L1155:
.LBE1097:
.LBE1103:
.LBB1104:
.LBB1100:
	call	_Z25caml_raise_stack_overflowv
.LVL1524:
.L1102:
.LBE1100:
.LBE1104:
	.loc 25 515 0 discriminator 2
	movl	%edx, %eax
	andl	$1048575, %eax
	leaq	_ZL16ocaml_flash_heap(%rip), %rcx
	movl	(%rcx,%rax), %eax
	shrl	%eax
	jmp	.L1103
.LVL1525:
.L1060:
	movw	%si, pc(%rip)
.LBE1086:
.LBB1105:
.LBB1106:
.LBB1107:
	.loc 25 132 0
	movq	sp(%rip), %rax
.LVL1526:
	leaq	4(%rax), %rdi
	movq	%rdi, sp(%rip)
	movl	(%rax), %ecx
.LVL1527:
.LBE1107:
.LBE1106:
.LBB1108:
.LBB1109:
	leaq	8(%rax), %r8
	movq	%r8, sp(%rip)
	movl	4(%rax), %esi
.LVL1528:
.LBE1109:
.LBE1108:
	.loc 25 527 0
	movzbl	extra_args(%rip), %edx
	leal	1(%rdx,%rdx), %edx
.LVL1529:
.LBB1110:
.LBB1111:
	.loc 25 124 0
	leaq	ocaml_stack(%rip), %r9
	cmpq	%r9, %r8
	jbe	.L1156
	.loc 25 127 0
	movq	%rdi, sp(%rip)
	movl	%edx, 4(%rax)
.LVL1530:
.LBE1111:
.LBE1110:
	.loc 25 528 0
	movl	env(%rip), %edx
.LVL1531:
.LBB1113:
.LBB1114:
	.loc 25 124 0
	movq	sp(%rip), %rax
	leaq	ocaml_stack(%rip), %rdi
	cmpq	%rdi, %rax
	jbe	.L1157
	.loc 25 127 0
	leaq	-4(%rax), %rdi
	movq	%rdi, sp(%rip)
	movl	%edx, -4(%rax)
.LVL1532:
.LBE1114:
.LBE1113:
	.loc 25 529 0
	movzwl	pc(%rip), %eax
	addl	%eax, %eax
	orl	$-2147483647, %eax
.LVL1533:
.LBB1116:
.LBB1117:
	.loc 25 124 0
	movq	sp(%rip), %rdx
	leaq	ocaml_stack(%rip), %rdi
	cmpq	%rdi, %rdx
	jbe	.L1158
	.loc 25 127 0
	leaq	-4(%rdx), %rdi
	movq	%rdi, sp(%rip)
	movl	%eax, -4(%rdx)
.LVL1534:
.LBE1117:
.LBE1116:
.LBB1119:
.LBB1120:
	.loc 25 124 0
	movq	sp(%rip), %rax
	leaq	ocaml_stack(%rip), %rdx
	cmpq	%rdx, %rax
	jbe	.L1159
	.loc 25 127 0
	leaq	-4(%rax), %rdx
	movq	%rdx, sp(%rip)
	movl	%esi, -4(%rax)
.LVL1535:
.LBE1120:
.LBE1119:
.LBB1122:
.LBB1123:
	.loc 25 124 0
	movq	sp(%rip), %rax
	leaq	ocaml_stack(%rip), %rdx
	cmpq	%rdx, %rax
	jbe	.L1160
	.loc 25 127 0
	leaq	-4(%rax), %rdx
	movq	%rdx, sp(%rip)
	movl	%ecx, -4(%rax)
.LVL1536:
.LBE1123:
.LBE1122:
	.loc 25 532 0
	movl	acc(%rip), %edx
	testl	$2097152, %edx
	jne	.L1109
	.loc 25 532 0 is_stmt 0 discriminator 1
	movl	%edx, %eax
	sall	$12, %eax
	sarl	$12, %eax
	cltq
	leaq	ocaml_ram_heap(%rip), %rcx
.LVL1537:
	movl	(%rcx,%rax), %eax
	shrl	%eax
.L1110:
	.loc 25 532 0 discriminator 4
	movw	%ax, pc(%rip)
	.loc 25 533 0 is_stmt 1 discriminator 4
	movl	%edx, env(%rip)
	.loc 25 534 0 discriminator 4
	movb	%r12b, extra_args(%rip)
	.loc 25 535 0 discriminator 4
	jmp	.L1134
.LVL1538:
.L1156:
.LBB1125:
.LBB1112:
	.loc 25 125 0
	call	_Z25caml_raise_stack_overflowv
.LVL1539:
.L1157:
.LBE1112:
.LBE1125:
.LBB1126:
.LBB1115:
	call	_Z25caml_raise_stack_overflowv
.LVL1540:
.L1158:
.LBE1115:
.LBE1126:
.LBB1127:
.LBB1118:
	call	_Z25caml_raise_stack_overflowv
.LVL1541:
.L1159:
.LBE1118:
.LBE1127:
.LBB1128:
.LBB1121:
	call	_Z25caml_raise_stack_overflowv
.LVL1542:
.L1160:
.LBE1121:
.LBE1128:
.LBB1129:
.LBB1124:
	call	_Z25caml_raise_stack_overflowv
.LVL1543:
.L1109:
.LBE1124:
.LBE1129:
	.loc 25 532 0 discriminator 2
	movl	%edx, %eax
	andl	$1048575, %eax
	leaq	_ZL16ocaml_flash_heap(%rip), %rcx
.LVL1544:
	movl	(%rcx,%rax), %eax
	shrl	%eax
	jmp	.L1110
.LVL1545:
.L1061:
.LBE1105:
.LBB1130:
.LBB1131:
.LBB1132:
.LBB1133:
.LBB1134:
.LBB1135:
	.loc 10 142 0
	movzwl	%si, %esi
	movzbl	0(%rbp,%rsi), %eax
.LVL1546:
.LBE1135:
.LBE1134:
	.loc 25 47 0
	addl	$2, %edx
	movw	%dx, pc(%rip)
.LVL1547:
.LBE1133:
.LBE1132:
.LBE1131:
.LBB1136:
.LBB1137:
	.loc 25 136 0
	movzbl	%al, %eax
.LVL1548:
	movq	sp(%rip), %rdx
	leaq	(%rdx,%rax,4), %rax
	movq	%rax, sp(%rip)
.LVL1549:
.LBE1137:
.LBE1136:
	.loc 25 624 0
	movzbl	extra_args(%rip), %edx
	testb	%dl, %dl
	je	.L1111
	.loc 25 625 0
	subl	$1, %edx
	movb	%dl, extra_args(%rip)
	.loc 25 626 0
	movl	acc(%rip), %edx
	testl	$2097152, %edx
	jne	.L1112
	.loc 25 626 0 is_stmt 0 discriminator 1
	movl	%edx, %eax
	sall	$12, %eax
	sarl	$12, %eax
	cltq
	leaq	ocaml_ram_heap(%rip), %rcx
	movl	(%rcx,%rax), %eax
	shrl	%eax
.L1113:
	.loc 25 626 0 discriminator 4
	movw	%ax, pc(%rip)
	.loc 25 627 0 is_stmt 1 discriminator 4
	movl	%edx, env(%rip)
	jmp	.L1134
.L1112:
	.loc 25 626 0 discriminator 2
	movl	%edx, %eax
	andl	$1048575, %eax
	leaq	_ZL16ocaml_flash_heap(%rip), %rcx
	movl	(%rcx,%rax), %eax
	shrl	%eax
	jmp	.L1113
.L1111:
.LBB1138:
.LBB1139:
	.loc 25 132 0
	leaq	4(%rax), %rdx
	movq	%rdx, sp(%rip)
.LBE1139:
.LBE1138:
	.loc 25 629 0
	movl	(%rax), %edx
	shrl	%edx
	movw	%dx, pc(%rip)
.LBB1140:
.LBB1141:
	.loc 25 132 0
	leaq	8(%rax), %rdx
	movq	%rdx, sp(%rip)
.LBE1141:
.LBE1140:
	.loc 25 630 0
	movl	4(%rax), %edx
	movl	%edx, env(%rip)
.LBB1142:
.LBB1143:
	.loc 25 132 0
	leaq	12(%rax), %rdx
	movq	%rdx, sp(%rip)
.LBE1143:
.LBE1142:
	.loc 25 631 0
	movl	8(%rax), %eax
	sarl	%eax
	movb	%al, extra_args(%rip)
	jmp	.L1134
.LVL1550:
.L1062:
	movw	%si, pc(%rip)
.LBE1130:
.LBB1144:
	.loc 25 640 0
	movl	env(%rip), %eax
.LVL1551:
	testl	$2097152, %eax
	jne	.L1114
	.loc 25 640 0 is_stmt 0 discriminator 1
	sall	$12, %eax
	sarl	$12, %eax
	cltq
	leaq	-4+ocaml_ram_heap(%rip), %rdx
	movl	(%rdx,%rax), %ecx
	sarl	$2, %ecx
	subl	$2, %ecx
.L1115:
.LVL1552:
	.loc 25 642 0 is_stmt 1 discriminator 4
	movq	sp(%rip), %rdx
	movzbl	%cl, %eax
	salq	$2, %rax
	movq	%rdx, %rdi
	subq	%rax, %rdi
	movq	%rdi, sp(%rip)
	.loc 25 643 0 discriminator 4
	leaq	ocaml_stack(%rip), %rsi
	cmpq	%rsi, %rdi
	jb	.L1161
.LVL1553:
	.loc 25 647 0
	testb	%cl, %cl
	je	.L1117
	leal	-1(%rcx), %eax
	movzbl	%al, %eax
	leaq	12(,%rax,4), %rsi
	movl	$8, %edx
	leaq	_ZL16ocaml_flash_heap(%rip), %r8
	leaq	ocaml_ram_heap(%rip), %rdi
	jmp	.L1120
.LVL1554:
.L1114:
	.loc 25 640 0 discriminator 2
	andl	$1048575, %eax
	leaq	-4+_ZL16ocaml_flash_heap(%rip), %rdx
	movl	(%rdx,%rax), %ecx
	sarl	$2, %ecx
	subl	$2, %ecx
	jmp	.L1115
.LVL1555:
.L1161:
	.loc 25 644 0
	movq	%rdx, sp(%rip)
	.loc 25 645 0
	call	_Z25caml_raise_stack_overflowv
.LVL1556:
.L1118:
	.loc 25 647 0 discriminator 4
	andl	$1048575, %eax
	leaq	(%r8,%rdx), %r9
	movl	(%r9,%rax), %r9d
.L1119:
	.loc 25 647 0 is_stmt 0 discriminator 6
	movq	sp(%rip), %rax
	movl	%r9d, -8(%rax,%rdx)
	addq	$4, %rdx
	cmpq	%rdx, %rsi
	je	.L1117
.L1120:
	.loc 25 647 0 discriminator 2
	movl	env(%rip), %eax
	testl	$2097152, %eax
	jne	.L1118
	.loc 25 647 0 discriminator 3
	sall	$12, %eax
	sarl	$12, %eax
	cltq
	leaq	(%rdi,%rdx), %r9
	movl	(%r9,%rax), %r9d
	jmp	.L1119
.L1117:
	.loc 25 648 0 is_stmt 1
	movl	env(%rip), %eax
	testl	$2097152, %eax
	jne	.L1121
	.loc 25 648 0 is_stmt 0 discriminator 1
	sall	$12, %eax
	sarl	$12, %eax
	cltq
	leaq	4+ocaml_ram_heap(%rip), %rdx
	movl	(%rdx,%rax), %eax
.L1122:
	.loc 25 648 0 discriminator 4
	movl	%eax, env(%rip)
	.loc 25 649 0 is_stmt 1 discriminator 4
	addb	%cl, extra_args(%rip)
	.loc 25 650 0 discriminator 4
	jmp	.L1134
.L1121:
	.loc 25 648 0 discriminator 2
	andl	$1048575, %eax
	leaq	4+_ZL16ocaml_flash_heap(%rip), %rdx
	movl	(%rdx,%rax), %eax
	jmp	.L1122
.LVL1557:
.L1063:
.LBE1144:
.LBB1145:
.LBB1146:
.LBB1147:
.LBB1148:
.LBB1149:
.LBB1150:
	.loc 10 142 0
	movzwl	%si, %esi
	movzbl	0(%rbp,%rsi), %ecx
.LVL1558:
.LBE1150:
.LBE1149:
	.loc 25 47 0
	addl	$2, %edx
	movw	%dx, pc(%rip)
.LVL1559:
.LBE1148:
.LBE1147:
.LBE1146:
	.loc 25 659 0
	movzbl	extra_args(%rip), %eax
.LVL1560:
	cmpb	%cl, %al
	jb	.L1123
	.loc 25 660 0
	subl	%ecx, %eax
	movb	%al, extra_args(%rip)
	jmp	.L1134
.L1123:
	.loc 25 662 0
	movzbl	%al, %eax
	movq	heap_ptr(%rip), %rdx
	leaq	16(%rdx,%rax,4), %rax
	cmpq	%rax, heap_end(%rip)
	jb	.L1162
.LVL1561:
.L1124:
	.loc 25 662 0 is_stmt 0 discriminator 2
	movzbl	extra_args(%rip), %eax
	leal	12(,%rax,4), %eax
	orl	$-150994944, %eax
	movq	heap_ptr(%rip), %rdx
	movl	%eax, (%rdx)
	movq	heap_ptr(%rip), %rax
	addq	$4, %rax
	leaq	ocaml_ram_heap(%rip), %rdx
	movq	%rax, %rcx
	subq	%rdx, %rcx
	orl	$2143289344, %ecx
	movl	%ecx, acc(%rip)
	movzbl	extra_args(%rip), %r8d
	movzbl	%r8b, %esi
	leaq	12(%rax,%rsi,4), %rax
	movq	%rax, heap_ptr(%rip)
	.loc 25 663 0 is_stmt 1 discriminator 2
	sall	$12, %ecx
	sarl	$12, %ecx
	movslq	%ecx, %rcx
	movzwl	pc(%rip), %eax
	leal	-6(%rax,%rax), %eax
	orl	$-2147483647, %eax
	movl	%eax, (%rdx,%rcx)
	.loc 25 664 0 discriminator 2
	leaq	4(%rdx), %rax
	movl	env(%rip), %edx
	movl	%edx, (%rax,%rcx)
.LVL1562:
	.loc 25 665 0 discriminator 2
	movl	$0, %eax
	.loc 25 666 0 discriminator 2
	leaq	ocaml_ram_heap(%rip), %r9
.LVL1563:
.L1125:
.LBB1151:
.LBB1152:
	.loc 25 132 0
	movq	sp(%rip), %rdx
	leaq	4(%rdx), %rsi
	movq	%rsi, sp(%rip)
	movl	(%rdx), %edi
.LBE1152:
.LBE1151:
	.loc 25 666 0
	movzbl	%al, %esi
	leaq	8(%r9,%rsi,4), %rsi
	movl	%edi, (%rsi,%rcx)
	.loc 25 665 0
	addl	$1, %eax
.LVL1564:
	cmpb	%al, %r8b
	jnb	.L1125
.LBB1153:
.LBB1154:
	.loc 25 132 0
	leaq	8(%rdx), %rax
.LVL1565:
	movq	%rax, sp(%rip)
.LBE1154:
.LBE1153:
	.loc 25 668 0
	movl	4(%rdx), %eax
	shrl	%eax
	movw	%ax, pc(%rip)
	.loc 25 669 0
	movl	8(%rdx), %eax
	movl	%eax, env(%rip)
.LBB1155:
.LBB1156:
	.loc 25 132 0
	leaq	16(%rdx), %rax
	movq	%rax, sp(%rip)
.LBE1156:
.LBE1155:
	.loc 25 670 0
	movl	12(%rdx), %eax
	sarl	%eax
	movb	%al, extra_args(%rip)
	jmp	.L1134
.LVL1566:
.L1162:
	.loc 25 662 0 discriminator 1
	call	_Z2gcv
.LVL1567:
	movzbl	extra_args(%rip), %edx
	movq	heap_ptr(%rip), %rax
	leaq	16(%rax,%rdx,4), %rax
	cmpq	%rax, heap_end(%rip)
	jnb	.L1124
	.loc 25 662 0 is_stmt 0 discriminator 4
	call	_Z24caml_raise_out_of_memoryv
.LVL1568:
.L1064:
	movw	%si, pc(%rip)
.LBE1145:
	.loc 25 928 0 is_stmt 1
	movl	acc(%rip), %edx
.LVL1569:
.LBB1157:
.LBB1158:
	.loc 25 124 0
	movq	sp(%rip), %rax
.LVL1570:
	leaq	ocaml_stack(%rip), %rcx
	cmpq	%rcx, %rax
	jbe	.L1163
	.loc 25 127 0
	leaq	-4(%rax), %rcx
	movq	%rcx, sp(%rip)
	movl	%edx, -4(%rax)
.LVL1571:
.LBE1158:
.LBE1157:
.LBB1160:
.LBB1161:
.LBB1162:
	.loc 25 46 0
	movzwl	pc(%rip), %eax
.LVL1572:
.LBB1163:
.LBB1164:
	.loc 10 142 0
	movzwl	%ax, %edx
	movzbl	0(%rbp,%rdx), %edx
.LVL1573:
.LBE1164:
.LBE1163:
	.loc 25 47 0
	addl	$1, %eax
	movw	%ax, pc(%rip)
.LBE1162:
.LBE1161:
.LBE1160:
.LBB1165:
.LBB1166:
.LBB1167:
.LBB1168:
	.loc 10 154 0
	movzbl	%dl, %eax
	leaq	_ZL23ocaml_flash_global_data(%rip), %rdx
.LBE1168:
.LBE1167:
.LBE1166:
.LBE1165:
	.loc 25 938 0
	movl	(%rdx,%rax,4), %eax
	movl	%eax, acc(%rip)
	.loc 25 939 0
	jmp	.L1134
.LVL1574:
.L1163:
.LBB1169:
.LBB1159:
	.loc 25 125 0
	call	_Z25caml_raise_stack_overflowv
.LVL1575:
.L1065:
.LBE1159:
.LBE1169:
.LBB1170:
.LBB1171:
.LBB1172:
.LBB1173:
.LBB1174:
.LBB1175:
.LBB1176:
	.loc 10 142 0
	movzwl	%si, %esi
.LBE1176:
.LBE1175:
.LBE1174:
.LBE1173:
.LBE1172:
	.loc 25 103 0
	movsbw	0(%rbp,%rsi), %ax
.LVL1576:
	addl	%eax, %edx
	movw	%dx, pc(%rip)
.LBE1171:
.LBE1170:
	.loc 25 1332 0
	jmp	.L1134
.LVL1577:
.L1066:
.LBB1177:
.LBB1178:
.LBB1179:
.LBB1180:
.LBB1181:
.LBB1182:
.LBB1183:
.LBB1184:
.LBB1185:
.LBB1186:
	.loc 10 142 0
	movzwl	%si, %esi
.LBE1186:
.LBE1185:
.LBE1184:
.LBE1183:
.LBE1182:
	.loc 25 66 0
	movzbl	0(%rbp,%rsi), %eax
.LVL1578:
	sall	$8, %eax
	movl	%eax, %ecx
.LBB1189:
.LBB1188:
.LBB1187:
	.loc 25 47 0
	leal	2(%rdx), %eax
.LBE1187:
.LBE1188:
.LBE1189:
.LBB1190:
.LBB1191:
.LBB1192:
.LBB1193:
.LBB1194:
	.loc 10 142 0
	movzwl	%ax, %eax
.LBE1194:
.LBE1193:
.LBE1192:
.LBE1191:
.LBE1190:
	.loc 25 66 0
	movzbl	0(%rbp,%rax), %eax
	orl	%ecx, %eax
.LBE1181:
.LBE1180:
.LBE1179:
	.loc 25 108 0
	addl	%eax, %edx
	movw	%dx, pc(%rip)
.LBE1178:
.LBE1177:
	.loc 25 1340 0
	jmp	.L1134
.LVL1579:
.L1067:
	.loc 25 1355 0
	cmpl	$1, acc(%rip)
	je	.L1127
.LBB1195:
.LBB1196:
.LBB1197:
.LBB1198:
.LBB1199:
.LBB1200:
.LBB1201:
	.loc 10 142 0
	movzwl	%si, %esi
.LBE1201:
.LBE1200:
.LBE1199:
.LBE1198:
.LBE1197:
	.loc 25 103 0
	movsbw	0(%rbp,%rsi), %ax
.LVL1580:
	addl	%eax, %edx
	movw	%dx, pc(%rip)
.LBE1196:
.LBE1195:
	jmp	.L1134
.LVL1581:
.L1127:
	.loc 25 1358 0
	addl	$2, %edx
	movw	%dx, pc(%rip)
	jmp	.L1134
.L1068:
	.loc 25 1391 0
	cmpl	$1, acc(%rip)
	je	.L1164
	.loc 25 1394 0
	addl	$2, %edx
	movw	%dx, pc(%rip)
	jmp	.L1134
.L1164:
.LBB1202:
.LBB1203:
.LBB1204:
.LBB1205:
.LBB1206:
.LBB1207:
.LBB1208:
	.loc 10 142 0
	movzwl	%si, %esi
.LBE1208:
.LBE1207:
.LBE1206:
.LBE1205:
.LBE1204:
	.loc 25 103 0
	movsbw	0(%rbp,%rsi), %ax
.LVL1582:
	addl	%eax, %edx
	movw	%dx, pc(%rip)
.LBE1203:
.LBE1202:
	jmp	.L1134
.LVL1583:
.L1069:
.LBB1209:
	.loc 25 1427 0
	movl	acc(%rip), %eax
.LVL1584:
	testb	$1, %al
	je	.L1129
.LVL1585:
.LBB1210:
	.loc 25 1428 0
	sarl	%eax
.LVL1586:
	addl	$2, %eax
	.loc 25 1429 0
	movzbl	%al, %eax
	addl	%esi, %eax
.LBB1211:
.LBB1212:
.LBB1213:
.LBB1214:
.LBB1215:
.LBB1216:
.LBB1217:
	.loc 10 142 0
	movzwl	%ax, %eax
.LBE1217:
.LBE1216:
.LBE1215:
.LBE1214:
.LBE1213:
	.loc 25 103 0
	movsbw	0(%rbp,%rax), %ax
.LBE1212:
.LBE1211:
	.loc 25 1430 0
	addl	%eax, %edx
	movw	%dx, pc(%rip)
.LBE1210:
	jmp	.L1134
.LVL1587:
.L1129:
.LBB1218:
	.loc 25 1432 0
	testl	$2097152, %eax
	jne	.L1130
	.loc 25 1432 0 is_stmt 0 discriminator 1
	sall	$12, %eax
	sarl	$12, %eax
	cltq
	leaq	-4+ocaml_ram_heap(%rip), %rcx
	movl	(%rcx,%rax), %ecx
	shrl	$24, %ecx
.L1131:
.LVL1588:
.LBB1219:
.LBB1220:
.LBB1221:
.LBB1222:
.LBB1223:
	.loc 10 142 0 is_stmt 1 discriminator 4
	movzwl	%si, %esi
.LVL1589:
.LBE1223:
.LBE1222:
.LBE1221:
.LBE1220:
.LBE1219:
	.loc 25 1433 0 discriminator 4
	movzbl	0(%rbp,%rsi), %eax
	.loc 25 1435 0 discriminator 4
	leal	3(%rdx,%rax), %eax
	.loc 25 1434 0 discriminator 4
	movzbl	%cl, %ecx
	.loc 25 1435 0 discriminator 4
	addl	%ecx, %eax
.LBB1224:
.LBB1225:
.LBB1226:
.LBB1227:
.LBB1228:
.LBB1229:
.LBB1230:
	.loc 10 142 0 discriminator 4
	movzwl	%ax, %eax
.LBE1230:
.LBE1229:
.LBE1228:
.LBE1227:
.LBE1226:
	.loc 25 103 0 discriminator 4
	movsbw	0(%rbp,%rax), %ax
.LBE1225:
.LBE1224:
	.loc 25 1436 0 discriminator 4
	addl	%eax, %edx
	movw	%dx, pc(%rip)
	jmp	.L1134
.LVL1590:
.L1130:
	.loc 25 1432 0 discriminator 2
	andl	$1048575, %eax
	leaq	-4+_ZL16ocaml_flash_heap(%rip), %rcx
	movl	(%rcx,%rax), %ecx
	shrl	$24, %ecx
	jmp	.L1131
.L1044:
.LBE1218:
.LBE1209:
	.loc 25 1539 0
	movl	trapSp(%rip), %eax
	cmpl	$-1, %eax
	je	.L1165
	.loc 25 1543 0
	sarl	%eax
	cltq
	leaq	ocaml_stack(%rip), %rdx
	leaq	(%rdx,%rax,4), %rax
	.loc 25 1544 0
	movl	(%rax), %edx
	shrl	%edx
	movw	%dx, pc(%rip)
	.loc 25 1545 0
	movl	4(%rax), %edx
	movl	%edx, trapSp(%rip)
	.loc 25 1546 0
	movl	8(%rax), %edx
	movl	%edx, env(%rip)
.LBB1231:
.LBB1232:
	.loc 25 132 0
	leaq	16(%rax), %rdx
	movq	%rdx, sp(%rip)
.LBE1232:
.LBE1231:
	.loc 25 1547 0
	movl	12(%rax), %eax
	sarl	%eax
	movb	%al, extra_args(%rip)
	.loc 25 1549 0
	jmp	.L1045
.L1165:
	.loc 25 1540 0
	movl	acc(%rip), %edi
	call	_Z18uncaught_exceptioni
.LVL1591:
	jmp	.L1042
.LVL1592:
.L1071:
.LBB1233:
.LBB1234:
.LBB1235:
.LBB1236:
.LBB1237:
	.loc 10 142 0
	movzwl	%si, %esi
	movzbl	0(%rbp,%rsi), %eax
.LVL1593:
.LBE1237:
.LBE1236:
	.loc 25 47 0
	addl	$2, %edx
	movw	%dx, pc(%rip)
.LBE1235:
.LBE1234:
.LBE1233:
.LBB1238:
.LBB1239:
.LBB1240:
.LBB1241:
	.loc 10 150 0
	movzbl	%al, %eax
.LBE1241:
.LBE1240:
.LBE1239:
.LBE1238:
	.loc 25 1562 0
	movl	acc(%rip), %edi
	leaq	ocaml_primitives(%rip), %rdx
	call	*(%rdx,%rax,8)
.LVL1594:
	movl	%eax, acc(%rip)
	.loc 25 1563 0
	jmp	.L1134
.LVL1595:
.L1072:
.LBB1242:
.LBB1243:
.LBB1244:
.LBB1245:
.LBB1246:
	.loc 10 142 0
	movzwl	%si, %esi
	movzbl	0(%rbp,%rsi), %eax
.LVL1596:
.LBE1246:
.LBE1245:
	.loc 25 47 0
	addl	$2, %edx
	movw	%dx, pc(%rip)
.LBE1244:
.LBE1243:
.LBE1242:
.LBB1247:
.LBB1248:
.LBB1249:
.LBB1250:
	.loc 10 150 0
	movzbl	%al, %eax
.LBE1250:
.LBE1249:
.LBE1248:
.LBE1247:
	.loc 25 1570 0
	movq	sp(%rip), %rdx
	movl	(%rdx), %esi
	movl	acc(%rip), %edi
	leaq	ocaml_primitives(%rip), %rdx
	call	*(%rdx,%rax,8)
.LVL1597:
	movl	%eax, acc(%rip)
.LVL1598:
.LBB1251:
.LBB1252:
	.loc 25 136 0
	addq	$4, sp(%rip)
	jmp	.L1134
.LVL1599:
.L1073:
	movw	%si, pc(%rip)
.LBE1252:
.LBE1251:
	.loc 25 1628 0
	movl	$1, acc(%rip)
	.loc 25 1629 0
	jmp	.L1134
.L1074:
	movw	%si, pc(%rip)
	.loc 25 1646 0
	movl	$3, acc(%rip)
	.loc 25 1647 0
	jmp	.L1134
.L1075:
	movw	%si, pc(%rip)
	.loc 25 1664 0
	movl	$5, acc(%rip)
	.loc 25 1665 0
	jmp	.L1134
.L1076:
	movw	%si, pc(%rip)
	.loc 25 1682 0
	movl	$7, acc(%rip)
	.loc 25 1683 0
	jmp	.L1134
.L1079:
	movw	%si, pc(%rip)
	.loc 25 1690 0
	movl	acc(%rip), %edx
.LVL1600:
.LBB1253:
.LBB1254:
	.loc 25 124 0
	movq	sp(%rip), %rax
.LVL1601:
	leaq	ocaml_stack(%rip), %rcx
	cmpq	%rcx, %rax
	jbe	.L1166
	.loc 25 127 0
	leaq	-4(%rax), %rcx
	movq	%rcx, sp(%rip)
	movl	%edx, -4(%rax)
	jmp	.L1083
.L1166:
	.loc 25 125 0
	call	_Z25caml_raise_stack_overflowv
.LVL1602:
.L1078:
.LBE1254:
.LBE1253:
.LBB1255:
.LBB1256:
.LBB1257:
.LBB1258:
.LBB1259:
.LBB1260:
.LBB1261:
.LBB1262:
	.loc 10 142 0
	movzwl	%si, %esi
	movzbl	0(%rbp,%rsi), %eax
.LVL1603:
.LBE1262:
.LBE1261:
	.loc 25 47 0
	leal	2(%rdx), %ecx
.LBE1260:
.LBE1259:
.LBE1258:
.LBB1263:
.LBB1264:
.LBB1265:
.LBB1266:
.LBB1267:
	.loc 10 142 0
	movzwl	%cx, %ecx
	movzbl	0(%rbp,%rcx), %ecx
.LVL1604:
.LBE1267:
.LBE1266:
	.loc 25 47 0
	addl	$3, %edx
	movw	%dx, pc(%rip)
.LBE1265:
.LBE1264:
.LBE1263:
	.loc 25 66 0
	sall	$8, %eax
	movzbl	%cl, %edx
	orl	%edx, %eax
.LBE1257:
.LBE1256:
.LBE1255:
	.loc 25 1718 0
	cwtl
	leal	1(%rax,%rax), %eax
	movl	%eax, acc(%rip)
	.loc 25 1719 0
	jmp	.L1134
.LVL1605:
.L1080:
	movw	%si, pc(%rip)
.LBB1268:
.LBB1269:
	.loc 25 132 0
	movq	sp(%rip), %rax
.LVL1606:
	leaq	4(%rax), %rdx
	movq	%rdx, sp(%rip)
.LBE1269:
.LBE1268:
	.loc 25 1898 0
	movl	(%rax), %eax
	cmpl	%eax, acc(%rip)
	setle	%al
	movzbl	%al, %eax
	leal	1(%rax,%rax), %eax
	movl	%eax, acc(%rip)
	.loc 25 1899 0
	jmp	.L1134
.LVL1607:
.L1081:
.LBB1270:
.LBB1271:
.LBB1272:
.LBB1273:
.LBB1274:
	.loc 10 142 0
	movzwl	%si, %esi
.LVL1608:
.LBE1274:
.LBE1273:
	.loc 25 47 0
	leal	2(%rdx), %ecx
.LBE1272:
.LBE1271:
.LBE1270:
	.loc 25 2157 0
	movsbl	0(%rbp,%rsi), %eax
.LVL1609:
	leal	1(%rax,%rax), %eax
	cmpl	acc(%rip), %eax
	jle	.L1137
.LBB1275:
.LBB1276:
.LBB1277:
.LBB1278:
.LBB1279:
.LBB1280:
.LBB1281:
	.loc 10 142 0
	movzwl	%cx, %ecx
.LBE1281:
.LBE1280:
.LBE1279:
.LBE1278:
.LBE1277:
	.loc 25 103 0
	movsbw	0(%rbp,%rcx), %ax
.LBE1276:
.LBE1275:
	.loc 25 2158 0
	addl	%eax, %edx
	movw	%dx, pc(%rip)
	jmp	.L1134
.L1137:
	.loc 25 2160 0
	addl	$3, %edx
	movw	%dx, pc(%rip)
	jmp	.L1134
.LVL1610:
.L1048:
	movw	%si, pc(%rip)
	.loc 25 2341 0
	leaq	_ZZL6interpvE19__PRETTY_FUNCTION__(%rip), %rcx
	movl	$2341, %edx
	leaq	.LC91(%rip), %rsi
	leaq	.LC95(%rip), %rdi
	call	__assert_fail@PLT
.LVL1611:
.L1082:
	movw	%si, pc(%rip)
.LVL1612:
.L1042:
.LBE1282:
.LBE1291:
.LBE1292:
	.loc 25 2346 0
	addq	$8, %rsp
	.cfi_def_cfa_offset 40
	popq	%rbx
	.cfi_def_cfa_offset 32
	popq	%rbp
	.cfi_def_cfa_offset 24
	popq	%r12
	.cfi_def_cfa_offset 16
	popq	%r13
	.cfi_def_cfa_offset 8
	ret
	.cfi_endproc
.LFE511:
	.size	_ZL6interpv, .-_ZL6interpv
	.globl	main
	.type	main, @function
main:
.LFB512:
	.loc 25 2351 0
	.cfi_startproc
.LVL1613:
	subq	$8, %rsp
	.cfi_def_cfa_offset 16
.LVL1614:
.LBB1305:
.LBB1306:
	.loc 10 11 0
	movq	%rsi, global_argv(%rip)
.LVL1615:
.LBE1306:
.LBE1305:
.LBB1307:
.LBB1308:
.LBB1309:
.LBB1310:
	.loc 25 151 0
	leaq	788+ocaml_stack(%rip), %rax
	movq	%rax, sp(%rip)
.LVL1616:
	movl	$0, %eax
.LVL1617:
.LBB1311:
.LBB1312:
.LBB1313:
.LBB1314:
	.loc 25 146 0
	leaq	788+ocaml_stack(%rip), %rsi
.LVL1618:
.LBB1315:
.LBB1316:
	.loc 10 146 0
	leaq	_ZL19ocaml_initial_stack(%rip), %rcx
.LVL1619:
.L1168:
.LBE1316:
.LBE1315:
	.loc 25 146 0
	movzbl	(%rcx,%rax), %edx
	movb	%dl, (%rsi,%rax)
.LVL1620:
	addq	$1, %rax
.LVL1621:
.LBE1314:
	.loc 25 144 0
	cmpq	$12, %rax
	jne	.L1168
.LVL1622:
.LBE1313:
.LBE1312:
.LBE1311:
.LBE1310:
.LBE1309:
	.loc 25 172 0
	movl	$-1, trapSp(%rip)
	.loc 25 173 0
	movl	$1, env(%rip)
	.loc 25 174 0
	movb	$0, extra_args(%rip)
	.loc 25 175 0
	movw	$0, pc(%rip)
.LBE1308:
.LBE1307:
	.loc 25 2355 0
	call	_Z7gc_initv
.LVL1623:
	.loc 25 2356 0
	call	_ZL6interpv
.LVL1624:
	.loc 25 2361 0
	movl	$0, %eax
	addq	$8, %rsp
	.cfi_def_cfa_offset 8
	ret
	.cfi_endproc
.LFE512:
	.size	main, .-main
	.globl	_Z11caml_gc_runi
	.type	_Z11caml_gc_runi, @function
_Z11caml_gc_runi:
.LFB513:
	.loc 21 6 0
	.cfi_startproc
.LVL1625:
	subq	$8, %rsp
	.cfi_def_cfa_offset 16
	.loc 21 7 0
	call	_Z2gcv
.LVL1626:
	.loc 21 9 0
	movl	$1, %eax
	addq	$8, %rsp
	.cfi_def_cfa_offset 8
	ret
	.cfi_endproc
.LFE513:
	.size	_Z11caml_gc_runi, .-_Z11caml_gc_runi
	.type	_ZL14value_of_int32i, @function
_ZL14value_of_int32i:
.LFB521:
	.loc 22 16 0
	.cfi_startproc
.LVL1627:
.LBB1317:
	.loc 22 29 0
	movl	%edi, %eax
	addl	$1073741824, %eax
	js	.L1174
	.loc 22 30 0
	leal	1(%rdi,%rdi), %eax
.LBE1317:
	.loc 22 41 0
	ret
.L1174:
	.loc 22 16 0
	pushq	%rbx
	.cfi_def_cfa_offset 16
	.cfi_offset 3, -16
	movl	%edi, %ebx
.LBB1320:
.LBB1318:
	.loc 22 33 0
	movq	heap_ptr(%rip), %rax
	addq	$12, %rax
	cmpq	%rax, heap_end(%rip)
	jb	.L1180
.LVL1628:
.L1176:
	.loc 22 33 0 is_stmt 0 discriminator 2
	movq	heap_ptr(%rip), %rax
	movl	$-16777208, (%rax)
	movq	heap_ptr(%rip), %rdx
	leaq	4(%rdx), %rdi
	leaq	ocaml_ram_heap(%rip), %rcx
	subq	%rcx, %rdi
	movl	%edi, %eax
	orl	$2143289344, %eax
.LVL1629:
	addq	$12, %rdx
	movq	%rdx, heap_ptr(%rip)
	.loc 22 34 0 is_stmt 1 discriminator 2
	movl	%eax, %edx
	sall	$12, %edx
	sarl	$12, %edx
	movslq	%edx, %rdx
	movl	$132, (%rcx,%rdx)
	.loc 22 35 0 discriminator 2
	leaq	4(%rcx), %rcx
	movl	%ebx, (%rcx,%rdx)
.LBE1318:
.LBE1320:
	.loc 22 41 0 discriminator 2
	popq	%rbx
	.cfi_remember_state
	.cfi_def_cfa_offset 8
.LVL1630:
	ret
.LVL1631:
.L1180:
	.cfi_restore_state
.LBB1321:
.LBB1319:
	.loc 22 33 0 discriminator 1
	call	_Z2gcv
.LVL1632:
	movq	heap_ptr(%rip), %rax
	addq	$12, %rax
	cmpq	%rax, heap_end(%rip)
	jnb	.L1176
	.loc 22 33 0 is_stmt 0 discriminator 3
	call	_Z24caml_raise_out_of_memoryv
.LVL1633:
.LBE1319:
.LBE1321:
	.cfi_endproc
.LFE521:
	.size	_ZL14value_of_int32i, .-_ZL14value_of_int32i
	.globl	_Z14caml_int32_negi
	.type	_Z14caml_int32_negi, @function
_Z14caml_int32_negi:
.LFB524:
	.loc 22 55 0 is_stmt 1
	.cfi_startproc
.LVL1634:
	subq	$8, %rsp
	.cfi_def_cfa_offset 16
	.loc 22 56 0
	testb	$1, %dil
	jne	.L1186
	.loc 22 56 0 is_stmt 0 discriminator 2
	testl	$2097152, %edi
	je	.L1187
	.loc 22 56 0 discriminator 5
	andl	$1048575, %edi
.LVL1635:
	leaq	4+_ZL16ocaml_flash_heap(%rip), %rax
	movl	(%rax,%rdi), %edi
	negl	%edi
	jmp	.L1183
.LVL1636:
.L1186:
	.loc 22 56 0 discriminator 1
	sarl	%edi
.LVL1637:
	negl	%edi
.L1183:
	.loc 22 56 0 discriminator 8
	call	_ZL14value_of_int32i
.LVL1638:
	.loc 22 57 0 is_stmt 1 discriminator 8
	addq	$8, %rsp
	.cfi_remember_state
	.cfi_def_cfa_offset 8
	ret
.LVL1639:
.L1187:
	.cfi_restore_state
	.loc 22 56 0 discriminator 4
	sall	$12, %edi
.LVL1640:
	sarl	$12, %edi
	movslq	%edi, %rdi
	leaq	4+ocaml_ram_heap(%rip), %rax
	movl	(%rax,%rdi), %edi
	negl	%edi
	jmp	.L1183
	.cfi_endproc
.LFE524:
	.size	_Z14caml_int32_negi, .-_Z14caml_int32_negi
	.globl	_Z14caml_int32_addii
	.type	_Z14caml_int32_addii, @function
_Z14caml_int32_addii:
.LFB525:
	.loc 22 59 0
	.cfi_startproc
.LVL1641:
	subq	$8, %rsp
	.cfi_def_cfa_offset 16
	.loc 22 60 0
	testb	$1, %dil
	je	.L1189
	.loc 22 60 0 is_stmt 0 discriminator 1
	sarl	%edi
.LVL1642:
.L1190:
	.loc 22 60 0 discriminator 8
	testb	$1, %sil
	jne	.L1196
	.loc 22 60 0 discriminator 10
	testl	$2097152, %esi
	je	.L1197
	.loc 22 60 0 discriminator 13
	andl	$1048575, %esi
.LVL1643:
	leaq	4+_ZL16ocaml_flash_heap(%rip), %rax
	movl	(%rax,%rsi), %esi
	jmp	.L1193
.LVL1644:
.L1189:
	.loc 22 60 0 discriminator 2
	testl	$2097152, %edi
	jne	.L1191
	.loc 22 60 0 discriminator 4
	movl	%edi, %eax
	sall	$12, %eax
	sarl	$12, %eax
	cltq
	leaq	4+ocaml_ram_heap(%rip), %rdx
	movl	(%rdx,%rax), %edi
.LVL1645:
	jmp	.L1190
.LVL1646:
.L1191:
	.loc 22 60 0 discriminator 5
	andl	$1048575, %edi
.LVL1647:
	leaq	4+_ZL16ocaml_flash_heap(%rip), %rax
	movl	(%rax,%rdi), %edi
	jmp	.L1190
.L1196:
	.loc 22 60 0 discriminator 9
	sarl	%esi
.LVL1648:
.L1193:
	.loc 22 60 0 discriminator 16
	addl	%esi, %edi
	call	_ZL14value_of_int32i
.LVL1649:
	.loc 22 61 0 is_stmt 1 discriminator 16
	addq	$8, %rsp
	.cfi_remember_state
	.cfi_def_cfa_offset 8
	ret
.LVL1650:
.L1197:
	.cfi_restore_state
	.loc 22 60 0 discriminator 12
	sall	$12, %esi
.LVL1651:
	sarl	$12, %esi
	movslq	%esi, %rsi
	leaq	4+ocaml_ram_heap(%rip), %rax
	movl	(%rax,%rsi), %esi
	jmp	.L1193
	.cfi_endproc
.LFE525:
	.size	_Z14caml_int32_addii, .-_Z14caml_int32_addii
	.globl	_Z14caml_int32_subii
	.type	_Z14caml_int32_subii, @function
_Z14caml_int32_subii:
.LFB526:
	.loc 22 63 0
	.cfi_startproc
.LVL1652:
	subq	$8, %rsp
	.cfi_def_cfa_offset 16
	.loc 22 64 0
	testb	$1, %dil
	je	.L1199
	.loc 22 64 0 is_stmt 0 discriminator 1
	sarl	%edi
.LVL1653:
.L1200:
	.loc 22 64 0 discriminator 8
	testb	$1, %sil
	jne	.L1206
	.loc 22 64 0 discriminator 10
	testl	$2097152, %esi
	je	.L1207
	.loc 22 64 0 discriminator 13
	andl	$1048575, %esi
.LVL1654:
	leaq	4+_ZL16ocaml_flash_heap(%rip), %rax
	movl	(%rax,%rsi), %esi
	jmp	.L1203
.LVL1655:
.L1199:
	.loc 22 64 0 discriminator 2
	testl	$2097152, %edi
	jne	.L1201
	.loc 22 64 0 discriminator 4
	sall	$12, %edi
.LVL1656:
	sarl	$12, %edi
	movslq	%edi, %rdi
	leaq	4+ocaml_ram_heap(%rip), %rax
	movl	(%rax,%rdi), %edi
	jmp	.L1200
.LVL1657:
.L1201:
	.loc 22 64 0 discriminator 5
	andl	$1048575, %edi
.LVL1658:
	leaq	4+_ZL16ocaml_flash_heap(%rip), %rax
	movl	(%rax,%rdi), %edi
	jmp	.L1200
.L1206:
	.loc 22 64 0 discriminator 9
	sarl	%esi
.LVL1659:
.L1203:
	.loc 22 64 0 discriminator 16
	subl	%esi, %edi
	call	_ZL14value_of_int32i
.LVL1660:
	.loc 22 65 0 is_stmt 1 discriminator 16
	addq	$8, %rsp
	.cfi_remember_state
	.cfi_def_cfa_offset 8
	ret
.LVL1661:
.L1207:
	.cfi_restore_state
	.loc 22 64 0 discriminator 12
	sall	$12, %esi
.LVL1662:
	sarl	$12, %esi
	movslq	%esi, %rsi
	leaq	4+ocaml_ram_heap(%rip), %rax
	movl	(%rax,%rsi), %esi
	jmp	.L1203
	.cfi_endproc
.LFE526:
	.size	_Z14caml_int32_subii, .-_Z14caml_int32_subii
	.globl	_Z14caml_int32_mulii
	.type	_Z14caml_int32_mulii, @function
_Z14caml_int32_mulii:
.LFB527:
	.loc 22 67 0
	.cfi_startproc
.LVL1663:
	subq	$8, %rsp
	.cfi_def_cfa_offset 16
	.loc 22 68 0
	testb	$1, %dil
	je	.L1209
	.loc 22 68 0 is_stmt 0 discriminator 1
	sarl	%edi
.LVL1664:
.L1210:
	.loc 22 68 0 discriminator 8
	testb	$1, %sil
	jne	.L1216
	.loc 22 68 0 discriminator 10
	testl	$2097152, %esi
	je	.L1217
	.loc 22 68 0 discriminator 13
	andl	$1048575, %esi
.LVL1665:
	leaq	4+_ZL16ocaml_flash_heap(%rip), %rax
	movl	(%rax,%rsi), %esi
	jmp	.L1213
.LVL1666:
.L1209:
	.loc 22 68 0 discriminator 2
	testl	$2097152, %edi
	jne	.L1211
	.loc 22 68 0 discriminator 4
	movl	%edi, %eax
	sall	$12, %eax
	sarl	$12, %eax
	cltq
	leaq	4+ocaml_ram_heap(%rip), %rdx
	movl	(%rdx,%rax), %edi
.LVL1667:
	jmp	.L1210
.LVL1668:
.L1211:
	.loc 22 68 0 discriminator 5
	andl	$1048575, %edi
.LVL1669:
	leaq	4+_ZL16ocaml_flash_heap(%rip), %rax
	movl	(%rax,%rdi), %edi
	jmp	.L1210
.L1216:
	.loc 22 68 0 discriminator 9
	sarl	%esi
.LVL1670:
.L1213:
	.loc 22 68 0 discriminator 16
	imull	%esi, %edi
	call	_ZL14value_of_int32i
.LVL1671:
	.loc 22 69 0 is_stmt 1 discriminator 16
	addq	$8, %rsp
	.cfi_remember_state
	.cfi_def_cfa_offset 8
	ret
.LVL1672:
.L1217:
	.cfi_restore_state
	.loc 22 68 0 discriminator 12
	sall	$12, %esi
.LVL1673:
	sarl	$12, %esi
	movslq	%esi, %rsi
	leaq	4+ocaml_ram_heap(%rip), %rax
	movl	(%rax,%rsi), %esi
	jmp	.L1213
	.cfi_endproc
.LFE527:
	.size	_Z14caml_int32_mulii, .-_Z14caml_int32_mulii
	.globl	_Z14caml_int32_divii
	.type	_Z14caml_int32_divii, @function
_Z14caml_int32_divii:
.LFB528:
	.loc 22 71 0
	.cfi_startproc
.LVL1674:
	subq	$8, %rsp
	.cfi_def_cfa_offset 16
	.loc 22 72 0
	testb	$1, %dil
	je	.L1219
	.loc 22 72 0 is_stmt 0 discriminator 1
	movl	%edi, %eax
	sarl	%eax
.LVL1675:
.L1220:
	.loc 22 73 0 is_stmt 1 discriminator 8
	testb	$1, %sil
	je	.L1222
	.loc 22 73 0 is_stmt 0 discriminator 1
	sarl	%esi
.LVL1676:
.L1223:
	.loc 22 74 0 is_stmt 1 discriminator 8
	testl	%esi, %esi
	je	.L1227
	.loc 22 75 0
	cltd
	idivl	%esi
.LVL1677:
	movl	%eax, %edi
	call	_ZL14value_of_int32i
.LVL1678:
	.loc 22 76 0
	addq	$8, %rsp
	.cfi_remember_state
	.cfi_def_cfa_offset 8
	ret
.LVL1679:
.L1219:
	.cfi_restore_state
	.loc 22 72 0 discriminator 2
	testl	$2097152, %edi
	jne	.L1221
	.loc 22 72 0 is_stmt 0 discriminator 4
	sall	$12, %edi
.LVL1680:
	sarl	$12, %edi
	movslq	%edi, %rdi
	leaq	4+ocaml_ram_heap(%rip), %rax
	movl	(%rax,%rdi), %eax
	jmp	.L1220
.LVL1681:
.L1221:
	.loc 22 72 0 discriminator 5
	andl	$1048575, %edi
.LVL1682:
	leaq	4+_ZL16ocaml_flash_heap(%rip), %rax
	movl	(%rax,%rdi), %eax
	jmp	.L1220
.LVL1683:
.L1222:
	.loc 22 73 0 is_stmt 1 discriminator 2
	testl	$2097152, %esi
	jne	.L1224
	.loc 22 73 0 is_stmt 0 discriminator 4
	sall	$12, %esi
.LVL1684:
	sarl	$12, %esi
	movslq	%esi, %rsi
	leaq	4+ocaml_ram_heap(%rip), %rdx
	movl	(%rdx,%rsi), %esi
	jmp	.L1223
.LVL1685:
.L1224:
	.loc 22 73 0 discriminator 5
	andl	$1048575, %esi
.LVL1686:
	leaq	4+_ZL16ocaml_flash_heap(%rip), %rdx
	movl	(%rdx,%rsi), %esi
	jmp	.L1223
.LVL1687:
.L1227:
	.loc 22 74 0 is_stmt 1 discriminator 1
	call	_Z27caml_raise_division_by_zerov
.LVL1688:
	.cfi_endproc
.LFE528:
	.size	_Z14caml_int32_divii, .-_Z14caml_int32_divii
	.globl	_Z14caml_int32_modii
	.type	_Z14caml_int32_modii, @function
_Z14caml_int32_modii:
.LFB529:
	.loc 22 78 0
	.cfi_startproc
.LVL1689:
	subq	$8, %rsp
	.cfi_def_cfa_offset 16
	.loc 22 79 0
	testb	$1, %dil
	je	.L1229
	.loc 22 79 0 is_stmt 0 discriminator 1
	movl	%edi, %eax
	sarl	%eax
.LVL1690:
.L1230:
	.loc 22 80 0 is_stmt 1 discriminator 8
	testb	$1, %sil
	je	.L1232
	.loc 22 80 0 is_stmt 0 discriminator 1
	sarl	%esi
.LVL1691:
.L1233:
	.loc 22 81 0 is_stmt 1 discriminator 8
	testl	%esi, %esi
	je	.L1237
	.loc 22 82 0
	cltd
	idivl	%esi
.LVL1692:
	movl	%edx, %edi
	call	_ZL14value_of_int32i
.LVL1693:
	.loc 22 83 0
	addq	$8, %rsp
	.cfi_remember_state
	.cfi_def_cfa_offset 8
	ret
.LVL1694:
.L1229:
	.cfi_restore_state
	.loc 22 79 0 discriminator 2
	testl	$2097152, %edi
	jne	.L1231
	.loc 22 79 0 is_stmt 0 discriminator 4
	sall	$12, %edi
.LVL1695:
	sarl	$12, %edi
	movslq	%edi, %rdi
	leaq	4+ocaml_ram_heap(%rip), %rax
	movl	(%rax,%rdi), %eax
	jmp	.L1230
.LVL1696:
.L1231:
	.loc 22 79 0 discriminator 5
	andl	$1048575, %edi
.LVL1697:
	leaq	4+_ZL16ocaml_flash_heap(%rip), %rax
	movl	(%rax,%rdi), %eax
	jmp	.L1230
.LVL1698:
.L1232:
	.loc 22 80 0 is_stmt 1 discriminator 2
	testl	$2097152, %esi
	jne	.L1234
	.loc 22 80 0 is_stmt 0 discriminator 4
	sall	$12, %esi
.LVL1699:
	sarl	$12, %esi
	movslq	%esi, %rsi
	leaq	4+ocaml_ram_heap(%rip), %rdx
	movl	(%rdx,%rsi), %esi
	jmp	.L1233
.LVL1700:
.L1234:
	.loc 22 80 0 discriminator 5
	andl	$1048575, %esi
.LVL1701:
	leaq	4+_ZL16ocaml_flash_heap(%rip), %rdx
	movl	(%rdx,%rsi), %esi
	jmp	.L1233
.LVL1702:
.L1237:
	.loc 22 81 0 is_stmt 1 discriminator 1
	call	_Z27caml_raise_division_by_zerov
.LVL1703:
	.cfi_endproc
.LFE529:
	.size	_Z14caml_int32_modii, .-_Z14caml_int32_modii
	.globl	_Z14caml_int32_andii
	.type	_Z14caml_int32_andii, @function
_Z14caml_int32_andii:
.LFB530:
	.loc 22 85 0
	.cfi_startproc
.LVL1704:
	subq	$8, %rsp
	.cfi_def_cfa_offset 16
	.loc 22 86 0
	testb	$1, %dil
	je	.L1239
	.loc 22 86 0 is_stmt 0 discriminator 1
	sarl	%edi
.LVL1705:
.L1240:
	.loc 22 86 0 discriminator 8
	testb	$1, %sil
	jne	.L1246
	.loc 22 86 0 discriminator 10
	testl	$2097152, %esi
	je	.L1247
	.loc 22 86 0 discriminator 13
	andl	$1048575, %esi
.LVL1706:
	leaq	4+_ZL16ocaml_flash_heap(%rip), %rax
	movl	(%rax,%rsi), %esi
	jmp	.L1243
.LVL1707:
.L1239:
	.loc 22 86 0 discriminator 2
	testl	$2097152, %edi
	jne	.L1241
	.loc 22 86 0 discriminator 4
	movl	%edi, %eax
	sall	$12, %eax
	sarl	$12, %eax
	cltq
	leaq	4+ocaml_ram_heap(%rip), %rdx
	movl	(%rdx,%rax), %edi
.LVL1708:
	jmp	.L1240
.LVL1709:
.L1241:
	.loc 22 86 0 discriminator 5
	andl	$1048575, %edi
.LVL1710:
	leaq	4+_ZL16ocaml_flash_heap(%rip), %rax
	movl	(%rax,%rdi), %edi
	jmp	.L1240
.L1246:
	.loc 22 86 0 discriminator 9
	sarl	%esi
.LVL1711:
.L1243:
	.loc 22 86 0 discriminator 16
	andl	%esi, %edi
	call	_ZL14value_of_int32i
.LVL1712:
	.loc 22 87 0 is_stmt 1 discriminator 16
	addq	$8, %rsp
	.cfi_remember_state
	.cfi_def_cfa_offset 8
	ret
.LVL1713:
.L1247:
	.cfi_restore_state
	.loc 22 86 0 discriminator 12
	sall	$12, %esi
.LVL1714:
	sarl	$12, %esi
	movslq	%esi, %rsi
